         U BN_bin2bn
         U CRYPTO_free
         U CRYPTO_malloc
         U CRYPTO_num_locks
         U CRYPTO_set_dynlock_create_callback
         U CRYPTO_set_dynlock_destroy_callback
         U CRYPTO_set_dynlock_lock_callback
         U CRYPTO_set_id_callback
         U CRYPTO_set_locking_callback
         U DES_ede3_cbc_encrypt
         U DES_set_key_unchecked
         U DH_free
         U DH_new
         U ERR_get_error_line_data
         U EVP_BytesToKey
         U EVP_des_ede3_cbc
         U EVP_md5
         U OPENSSL_add_all_algorithms_noconf
         U SSL_CIPHER_get_name
         U SSL_CTX_check_private_key
         U SSL_CTX_ctrl
         U SSL_CTX_free
         U SSL_CTX_get_verify_depth
         U SSL_CTX_get_verify_mode
         U SSL_CTX_load_verify_locations
         U SSL_CTX_new
         U SSL_CTX_set_cipher_list
         U SSL_CTX_set_default_verify_paths
         U SSL_CTX_set_session_id_context
         U SSL_CTX_set_verify
         U SSL_CTX_use_PrivateKey_file
         U SSL_CTX_use_certificate_file
         U SSL_SESSION_set_timeout
         U SSL_clear
         U SSL_ctrl
         U SSL_do_handshake
         U SSL_free
         U SSL_get_cipher_list
         U SSL_get_current_cipher
         U SSL_get_default_timeout
         U SSL_get_fd
         U SSL_get_peer_certificate
         U SSL_get_session
         U SSL_get_verify_depth
         U SSL_get_verify_mode
         U SSL_get_verify_result
         U SSL_get_version
         U SSL_library_init
         U SSL_load_error_strings
         U SSL_new
         U SSL_read
         U SSL_set_fd
         U SSL_set_quiet_shutdown
         U SSL_shutdown
         U SSL_write
         U TLSv1_client_method
         U TLSv1_server_method
         U X509_NAME_oneline
         U X509_STORE_CTX_get_current_cert
         U X509_STORE_CTX_get_error
         U X509_STORE_CTX_get_error_depth
         U X509_free
         U X509_get_issuer_name
         U X509_get_subject_name
         U _IO_putc
         w _Jv_RegisterClasses
         U __assert_fail
         U __ctype_b_loc
         U __ctype_toupper_loc
         U __cxa_atexit
         U __errno_location
         U __fxstat64
         w __gmon_start__
         U __isinf
         U __isnan
         U __isnanf
         U __libc_start_main
         U __lxstat64
         U __strtol_internal
         U __strtoll_internal
         U __strtoul_internal
         U __xstat64
         U abort
         U accept
         U access
         U acos
         U alarm
         U asin
         U atan
         U atan2
         U bcopy
         U bind
         U calloc
         U chdir
         U chmod
         U chown
         U chroot
         U clock
         U close
         U closedir
         U compress
         U confstr
         U connect
         U cos
         U crc32
         U crypt
         U difftime
         U dlclose
         U dlerror
         U dlopen
         U dlsym
         U dup
         U endpwent
         U exit
         U exp
         U fchmod
         U fclose
         U fcntl
         U fdatasync
         U fdopen
         U feof
         U fflush
         U fgets
         U fileno
         U finite
         U fmod
         U fopen64
         U fprintf
         U fputc
         U fputs
         U fread
         U free
         U freopen64
         U fseek
         U fsync
         U ftell
         U ftruncate64
         U fwrite
         U getcwd
         U getenv
         U geteuid
         U gethostbyaddr
         U gethostbyname
         U gethostbyname_r
         U gethostname
         U getpagesize
         U getpeername
         U getpid
         U getpwnam
         U getpwuid
         U getrlimit64
         U getrusage
         U getservbyname
         U getsockname
         U gettimeofday
         U getuid
         U gmtime_r
         U inet_addr
         U inet_ntoa
         U initgroups
         U ioctl
         U listen
         U localtime_r
         U log
         U log10
         U lseek64
         U madvise
         U mallinfo
         U malloc
         U memcpy
         U memmove
         U memset
         U mkdir
         U mkstemp64
         U mlockall
         U mmap64
         U msync
         U munmap
         U open64
         U opendir
         U poll
         U pow
         U prctl
         U pread64
         U printf
         U pthread_attr_destroy
         U pthread_attr_getstacksize
         U pthread_attr_init
         U pthread_attr_setdetachstate
         U pthread_attr_setschedparam
         U pthread_attr_setscope
         U pthread_attr_setstacksize
         U pthread_cond_broadcast
         U pthread_cond_destroy
         U pthread_cond_init
         U pthread_cond_signal
         U pthread_cond_timedwait
         U pthread_cond_wait
         U pthread_create
         U pthread_exit
         U pthread_getschedparam
         U pthread_getspecific
         U pthread_key_create
         U pthread_key_delete
         U pthread_kill
         U pthread_mutex_destroy
         U pthread_mutex_init
         U pthread_mutex_lock
         U pthread_mutex_trylock
         U pthread_mutex_unlock
         U pthread_mutexattr_destroy
         U pthread_mutexattr_init
         U pthread_mutexattr_settype
         U pthread_rwlock_destroy
         U pthread_rwlock_init
         U pthread_rwlock_rdlock
         U pthread_rwlock_trywrlock
         U pthread_rwlock_unlock
         U pthread_rwlock_wrlock
         U pthread_self
         U pthread_setschedparam
         U pthread_setspecific
         U pthread_sigmask
         U puts
         U pwrite64
         U read
         U readdir64_r
         U readlink
         U realloc
         U realpath
         U rename
         U rewind
         U rint
         U rintf
         U rmdir
         U sbrk
         U sched_yield
         U select
         U setgid
         U setregid
         U setreuid
         U setrlimit64
         U setsockopt
         U setuid
         U shmat
         U shmctl
         U shmdt
         U shmget
         U shutdown
         U sigaction
         U sigaddset
         U sigdelset
         U sigemptyset
         U sigfillset
         U signal
         U sigprocmask
         U sigwait
         U sin
         U sleep
         U snprintf
         U socket
         U sprintf
         U sqrt
         U sscanf
         U stpcpy
         U strcat
         U strchr
         U strcmp
         U strcpy
         U strerror
         U strlen
         U strncasecmp
         U strncmp
         U strncpy
         U strrchr
         U symlink
         U tan
         U time
         U times
         U tzset
         U umask
         U uncompress
         U unlink
         U utime
         U vfprintf
         U write
080e9ee4 T _init
080eb0e0 T _start
080eb190 T _Z8lex_freev
080eb1a0 T _ZN18st_parsing_options5resetEv
080eb1c0 T _ZN16Lex_input_streamC2EP3THDPKcj
080eb230 T _ZN16Lex_input_streamC1EP3THDPKcj
080eb2a0 T _ZN16Lex_input_streamD2Ev
080eb2b0 T _ZN16Lex_input_streamD1Ev
080eb500 T _Z18skip_rear_commentsP15charset_info_stPcS1_
080eb550 T _ZN18st_select_lex_node10init_queryEv
080eb580 T _ZN18st_select_lex_node11init_selectEv
080eb590 T _ZN18st_select_lex_unit10init_queryEv
080eb640 T _ZN18st_select_lex_node12include_downEPS_
080eb670 T _ZN18st_select_lex_node18include_standaloneEPS_PS0_
080eb6a0 T _ZN18st_select_lex_node17include_neighbourEPS_
080eb6e0 T _ZN18st_select_lex_node14include_globalEPPS_
080eb710 T _ZN18st_select_lex_node12fast_excludeEv
080eb760 T _ZN18st_select_lex_node7excludeEv
080eb790 T _ZN18st_select_lex_unit13exclude_levelEv
080eb850 T _ZN18st_select_lex_node10set_bracesEb
080eb860 T _ZN18st_select_lex_node15inc_in_sum_exprEv
080eb870 T _ZN18st_select_lex_node15get_in_sum_exprEv
080eb880 T _ZN18st_select_lex_node14get_table_listEv
080eb890 T _ZN18st_select_lex_node13get_item_listEv
080eb8a0 T _ZN18st_select_lex_node13get_use_indexEv
080eb8b0 T _ZN18st_select_lex_node16get_ignore_indexEv
080eb8c0 T _ZN18st_select_lex_node17add_table_to_listEP3THDP11Table_identP13st_lex_stringm13thr_lock_typeP4ListI6StringESA_S5_
080eb8d0 T _ZN18st_select_lex_node22get_table_join_optionsEv
080eb8e0 T _ZN18st_select_lex_unit11master_unitEv
080eb8f0 T _ZN18st_select_lex_unit12outer_selectEv
080eb900 T _ZN13st_select_lex11master_unitEv
080eb910 T _ZN13st_select_lex12outer_selectEv
080eb920 T _ZN13st_select_lex10set_bracesEb
080eb940 T _ZN13st_select_lex15inc_in_sum_exprEv
080eb950 T _ZN13st_select_lex15get_in_sum_exprEv
080eb960 T _ZN13st_select_lex14get_table_listEv
080eb970 T _ZN13st_select_lex13get_item_listEv
080eb980 T _ZN13st_select_lex13get_use_indexEv
080eb990 T _ZN13st_select_lex16get_ignore_indexEv
080eb9a0 T _ZN13st_select_lex22get_table_join_optionsEv
080eb9b0 T _ZN6st_lex29cleanup_lex_after_parse_errorEP3THD
080eb9e0 T _ZN6st_lex14can_use_mergedEv
080eba10 T _ZN6st_lex18can_not_use_mergedEv
080eba40 T _ZN6st_lex19only_view_structureEv
080ebaa0 T _ZN6st_lex18need_correct_identEv
080ebad0 T _ZN6st_lex24get_effective_with_checkEP10TABLE_LIST
080ebb50 T _ZN6st_lex29set_trg_event_type_for_tablesEv
080ebbe0 T _ZN6st_lex23first_lists_tables_sameEv
080ebc40 T _ZN6st_lex18unlink_first_tableEPb
080ebcc0 T _ZN6st_lex21link_first_table_backEP10TABLE_LISTb
080ebd70 T _ZN13st_select_lex23fix_prepare_informationEP3THDPP4ItemS4_
080ebe80 T _ZN6st_lex36add_time_zone_tables_to_query_tablesEP3THD
080ebf10 T _ZNK6st_lex10copy_db_toEPPcPj
080ebfc0 T _ZN17Query_tables_list25destroy_query_tables_listEv
080ebfd0 T _ZN17Query_tables_list23reset_query_tables_listEb
080ec050 T _ZN6st_lex32reset_n_backup_query_tables_listEP17Query_tables_list
080ec090 T _ZN13st_select_lex15setup_ref_arrayEP3THDj
080ec110 T _ZN13st_select_lex10init_queryEv
080ec2b0 T _ZN13st_select_lex18add_ftfunc_to_listEP15Item_func_match
080ec320 T _ZN13st_select_lex17add_group_to_listEP3THDP4Itemb
080ec360 T _ZN13st_select_lex17add_order_to_listEP3THDP4Itemb
080ec3a0 T _ZN13st_select_lex10test_limitEv
080ec6a0 T _Z8MYSQLlexPvS_
080ed880 T _Z7lex_endP6st_lex
080ed8b0 T _Z8lex_initv
080ed920 T _ZN13st_select_lex11init_selectEv
080edad0 T _Z9lex_startP3THD
080ede30 T _ZN13st_select_lex17mark_as_dependentEPS_
080edef0 T _ZN18st_select_lex_unit12exclude_treeEv
080edf70 T _ZN6st_lex28cleanup_after_one_table_openEv
080edfd0 T _ZN6st_lex13can_be_mergedEv
080ee070 T _ZN6st_lex32restore_backup_query_tables_listEP17Query_tables_list
080ee0b0 T _ZN6st_lexC2Ev
080ee4b0 T _ZN18st_select_lex_unit9set_limitEP13st_select_lex
080ee520 T _ZN13st_select_lex16add_item_to_listEP3THDP4Item
080ee590 T _ZN6st_lexC1Ev
080ee9a0 T _ZN13st_select_lex11print_limitEP3THDP6String
080eeac0 T _ZN13st_select_lex11print_orderEP6StringP8st_order
080eebb0 T _ZN18st_select_lex_unit5printEP6String
080eed70 T _Z10is_keywordPKcj
080eee50 T _ZN10Alter_infoC2ERKS_P11st_mem_root
080ef0f0 T _ZN10Alter_infoC1ERKS_P11st_mem_root
080ef390 W _ZN7sys_var11set_defaultEP3THD13enum_var_type
080ef3a0 W _ZN7sys_var9show_typeEv
080ef3b0 W _ZN7sys_var9value_ptrEP3THD13enum_var_typeP13st_lex_string
080ef3c0 W _ZN7sys_var10check_typeE13enum_var_type
080ef3d0 W _ZN7sys_var17check_update_typeE11Item_result
080ef3e0 W _ZN7sys_var13check_defaultE13enum_var_type
080ef400 W _ZN7sys_var9is_structEv
080ef410 W _ZNK7sys_var11is_readonlyEv
080ef420 W _ZN23sys_var_long_ptr_global9show_typeEv
080ef430 W _ZN23sys_var_long_ptr_global9value_ptrEP3THD13enum_var_typeP13st_lex_string
080ef440 W _ZN18st_select_lex_nodeD1Ev
080ef450 W _ZN18st_select_lex_node19set_lock_for_tablesE13thr_lock_type
080ef460 W _ZN18st_select_lex_unit20return_after_parsingEv
080ef470 W _ZN13st_select_lex20return_after_parsingEv
080ef490 W _ZN18st_select_lex_unitD1Ev
080ef4a0 W _ZN13st_select_lexD1Ev
080ef4b0 W _ZN14sys_var_globalD0Ev
080ef4d0 W _ZN18st_select_lex_unitD0Ev
080ef4e0 W _ZN18st_select_lex_nodeD0Ev
080ef4f0 W _ZN13st_select_lexD0Ev
080ef500 W _ZN6st_lexD0Ev
080ef540 W _ZN6st_lexD1Ev
080ef580 W _ZN14sys_var_globalD1Ev
080ef590 W _ZN16sys_var_long_ptrD1Ev
080ef5a0 W _ZN16sys_var_long_ptrD0Ev
080ef6a0 T _Z14mysql_ha_closeP3THDP10TABLE_LIST
080ef750 T _Z13mysql_ha_openP3THDP10TABLE_LISTb
080efb20 T _Z14mysql_ha_flushP3THDP10TABLE_LISTjb
080efc80 T _Z13mysql_ha_readP3THDP10TABLE_LIST18enum_ha_read_modesPcP4ListI4ItemE16ha_rkey_functionPS6_mm
080f0670 T _ZNK18Hybrid_type_traits18fix_length_and_decEP4ItemS1_
080f0690 T _ZN18Hybrid_type_traits8instanceEv
080f06a0 T _ZN26Hybrid_type_traits_decimal8instanceEv
080f06b0 T _ZNK26Hybrid_type_traits_decimal18fix_length_and_decEP4ItemS1_
080f06e0 T _ZNK26Hybrid_type_traits_decimal8set_zeroEP11Hybrid_type
080f0710 T _ZN26Hybrid_type_traits_integer8instanceEv
080f0720 T _ZNK26Hybrid_type_traits_integer18fix_length_and_decEP4ItemS1_
080f0740 T _ZN4ItemC2EP3THDPS_
080f07f0 T _ZN4ItemC1EP3THDPS_
080f08a0 T _ZN4Item7cleanupEv
080f08c0 T _ZN4Item17cleanup_processorEPc
080f08e0 T _ZN4Item6renameEPc
080f0910 T _ZN4Item9transformEMS_FPS_PcES1_
080f0960 T _ZN10Item_identC2EP3THDPS_
080f09e0 T _ZN10Item_identC1EP3THDPS_
080f0a60 T _ZN10Item_ident7cleanupEv
080f0a90 T _ZN10Item_ident27remove_dependence_processorEPc
080f0ab0 T _ZN10Item_field33find_item_in_field_list_processorEPc
080f0b10 T _ZNK4Item2eqEPKS_b
080f0b80 T _ZN4Item25save_in_field_no_warningsEP5Fieldb
080f0bd0 T _ZN16Item_sp_variable10fix_fieldsEP3THDPP4Item
080f0c30 T _ZN16Item_sp_variable8val_realEv
080f0c70 T _ZN16Item_sp_variable7val_intEv
080f0cb0 T _ZN16Item_sp_variable11val_decimalEP10my_decimal
080f0cf0 T _ZN16Item_sp_variable7is_nullEv
080f0d20 T _ZN15Item_name_const8val_realEv
080f0d50 T _ZN15Item_name_const7val_intEv
080f0d80 T _ZN15Item_name_const7val_strEP6String
080f0db0 T _ZN15Item_name_const11val_decimalEP10my_decimal
080f0de0 T _ZN15Item_name_const7is_nullEv
080f0e00 T _ZNK15Item_name_const4typeEv
080f0e80 T _ZN19Item_ident_for_show10make_fieldEP10Send_field
080f0f10 T _ZN10Item_fieldC1EP3THDPS_
080f0f90 T _ZN10Item_field9set_fieldEP5Field
080f1080 T _ZN10Item_field11reset_fieldEP5Field
080f10b0 T _ZNK10Item_field11used_tablesEv
080f10f0 T _ZNK9Item_null2eqEPK4Itemb
080f1130 T _ZN9Item_null8val_realEv
080f1140 T _ZN9Item_null7val_intEv
080f1150 T _ZN9Item_null7val_strEP6String
080f1160 T _ZN9Item_null11val_decimalEP10my_decimal
080f1170 T _ZN9Item_null22safe_charset_converterEP15charset_info_st
080f11a0 T _ZN10Item_param8set_nullEv
080f11e0 T _ZN10Item_param7set_intExj
080f1220 T _ZN10Item_param10set_doubleEd
080f1250 T _ZNK10Item_param16basic_const_itemEv
080f1270 T _ZN16Item_copy_string7val_strEP6String
080f1290 T _ZN4Item10fix_fieldsEP3THDPPS_
080f12a0 T _ZN20Item_ref_null_helper8val_realEv
080f12e0 T _ZN20Item_ref_null_helper7val_intEv
080f1340 T _ZN20Item_ref_null_helper11val_decimalEP10my_decimal
080f1390 T _ZN20Item_ref_null_helper8val_boolEv
080f13e0 T _ZN20Item_ref_null_helper7val_strEP6String
080f1430 T _ZN20Item_ref_null_helper8get_dateEP13st_mysql_timej
080f1490 T _ZN10Item_field7cleanupEv
080f14c0 T _ZN10Item_field22subst_argument_checkerEPPc
080f14f0 T _ZN10Item_field16set_no_const_subEPc
080f1520 T _ZN4Item15init_make_fieldEP10Send_field16enum_field_types
080f15a0 T _ZN4Item10make_fieldEP10Send_field
080f15d0 T _ZN17Item_empty_string10make_fieldEP10Send_field
080f1610 T _ZNK4Item10field_typeEv
080f1650 T _ZN4Item11is_datetimeEv
080f1690 T _ZN10Item_field10make_fieldEP10Send_field
080f16e0 T _ZNK8Item_int2eqEPK4Itemb
080f17e0 T _ZNK10Item_float2eqEPK4Itemb
080f1850 T _ZN15Item_hex_string7val_intEv
080f18c0 T _ZN9Item_null4sendEP8ProtocolP6String
080f18e0 T _ZN10Item_field4sendEP8ProtocolP6String
080f1900 T _ZN8Item_ref14set_propertiesEv
080f1990 T _ZN8Item_ref7cleanupEv
080f19b0 T _ZN8Item_ref4sendEP8ProtocolP6String
080f1a10 T _ZN8Item_ref8val_realEv
080f1a40 T _ZN8Item_ref7val_intEv
080f1a70 T _ZN8Item_ref8val_boolEv
080f1aa0 T _ZN8Item_ref7val_strEP6String
080f1ad0 T _ZN8Item_ref7is_nullEv
080f1af0 T _ZN8Item_ref8get_dateEP13st_mysql_timej
080f1b30 T _ZN8Item_ref11val_decimalEP10my_decimal
080f1b60 T _ZN8Item_ref13save_in_fieldEP5Fieldb
080f1ba0 T _ZN8Item_ref17save_org_in_fieldEP5Field
080f1bc0 T _ZN8Item_ref10make_fieldEP10Send_field
080f1c10 T _ZN15Item_direct_ref8val_realEv
080f1c40 T _ZN15Item_direct_ref7val_intEv
080f1c70 T _ZN15Item_direct_ref7val_strEP6String
080f1ca0 T _ZN15Item_direct_ref11val_decimalEP10my_decimal
080f1cd0 T _ZN15Item_direct_ref8val_boolEv
080f1d00 T _ZN15Item_direct_ref7is_nullEv
080f1d20 T _ZN15Item_direct_ref8get_dateEP13st_mysql_timej
080f1d60 T _ZNK20Item_direct_view_ref2eqEPK4Itemb
080f1dd0 T _ZNK18Item_default_value2eqEPK4Itemb
080f1e30 T _ZNK17Item_insert_value2eqEPK4Itemb
080f1e90 T _ZNK18Item_trigger_field2eqEPK4Itemb
080f1f00 T _ZN18Item_trigger_field22set_required_privilegeEb
080f1f20 T _ZN18Item_trigger_field7cleanupEv
080f1f40 T _Z13item_cmp_type11Item_resultS_
080f1fc0 T _ZN14Item_cache_int5storeEP4Item
080f2000 T _ZN14Item_cache_int5storeEP4Itemx
080f2030 T _ZN15Item_cache_real5storeEP4Item
080f2060 T _ZN18Item_cache_decimal11val_decimalEP10my_decimal
080f2070 T _ZN14Item_cache_row5storeEP4Item
080f2100 T _ZN14Item_cache_row11null_insideEv
080f2190 T _ZN14Item_cache_row11bring_valueEv
080f21d0 T _ZN16Item_type_holder13get_real_typeEP4Item
080f22a0 T _ZN16Item_type_holder14display_lengthEP4Item
080f2380 T _ZN16Item_type_holder13get_full_infoEP4Item
080f2400 T _ZN16Item_type_holder8val_realEv
080f2410 T _ZN16Item_type_holder7val_intEv
080f2420 T _ZN16Item_type_holder11val_decimalEP10my_decimal
080f2430 T _ZN16Item_type_holder7val_strEP6String
080f2440 T _ZN17Item_result_field7cleanupEv
080f2460 T _Z21dummy_error_processorP3THDPv
080f2470 T _ZN15Item_cache_real7val_intEv
080f24b0 T _ZN8Item_int7val_strEP6String
080f24f0 T _ZN4Item8val_boolEv
080f2690 T _Z20view_error_processorP3THDPv
080f26b0 T _ZNK16Item_type_holder11result_typeEv
080f26d0 T _ZN14Item_cache_row10check_colsEj
080f2710 T _ZN14Item_cache_row19illegal_method_callEPKc
080f29f0 T _ZN4Item10check_colsEj
080f2a20 T _ZN16Item_copy_string4copyEv
080f2a70 T _ZNK26Hybrid_type_traits_decimal8val_realEP11Hybrid_type
080f2ab0 T _ZN10Item_float7val_strEP6String
080f2af0 T _ZN4Item20val_string_from_realEP6String
080f2b50 T _ZNK18Hybrid_type_traits7val_strEP11Hybrid_typeP6Stringh
080f2b90 T _ZNK12Item_decimal2eqEPK4Itemb
080f2c10 T _ZN18Item_trigger_field10fix_fieldsEP3THDPP4Item
080f2d30 T _ZN18Item_trigger_field9set_valueEP3THDP11sp_rcontextPP4Item
080f2db0 T _ZN18Item_trigger_field11setup_fieldEP3THDP8st_tableP13st_grant_info
080f2e30 T _ZN18Item_default_value10fix_fieldsEP3THDPP4Item
080f2fe0 T _ZNK10Item_field2eqEPK4Itemb
080f3220 T _Z30mark_select_range_as_dependentP3THDP13st_select_lexS2_P5FieldP4ItemP10Item_ident
080f3330 T _ZN12Item_decimal5printEP6String
080f3390 T _ZN8Item_int5printEP6String
080f33e0 T _ZNK15Item_hex_string2eqEPK4Itemb
080f3480 T _ZNK10Item_param2eqEPK4Itemb
080f35b0 T _ZNK11Item_string2eqEPK4Itemb
080f3650 T _ZN8Item_int13save_in_fieldEP5Fieldb
080f36c0 T _ZN9Item_uint13save_in_fieldEP5Fieldb
080f36d0 T _ZN9Item_null18save_safe_in_fieldEP5Field
080f36e0 T _ZN4Item23save_str_value_in_fieldEP5FieldP6String
080f3750 T _ZN11Item_string13save_in_fieldEP5Fieldb
080f3790 T _ZN9Item_null13save_in_fieldEP5Fieldb
080f37b0 T _ZN10Item_field13save_in_fieldEP5Fieldb
080f3850 T _ZN18Item_default_value13save_in_fieldEP5Fieldb
080f39a0 T _ZN10Item_field15find_item_equalEP10COND_EQUAL
080f3a00 T _ZN10Item_field23equal_fields_propagatorEPc
080f3a60 T _ZN10Item_param12set_longdataEPKcm
080f3ab0 T _ZN10Item_param7set_strEPKcm
080f3b20 T _ZN9Item_uint7val_strEP6String
080f3b60 T _ZN4Item19val_string_from_intEP6String
080f3bf0 T _ZNK10Item_ident9full_nameEv
080f3d10 T _ZN11DTCollation9aggregateERS_j
080f3ee0 T _Z19agg_item_collationsR11DTCollationPKcPP4Itemjji
080f3f90 T _Z34agg_item_collations_for_comparisonR11DTCollationPKcPP4Itemjj
080f3fd0 T _ZN14Item_case_expr5printEP6String
080f4020 T _ZN14Item_case_expr14this_item_addrEP3THDPP4Item
080f4040 T _ZNK14Item_case_expr9this_itemEv
080f4070 T _ZN14Item_case_expr9this_itemEv
080f40a0 T _ZN12Item_splocal9set_valueEP3THDP11sp_rcontextPP4Item
080f40e0 T _ZN12Item_splocal14this_item_addrEP3THDPP4Item
080f4100 T _ZNK12Item_splocal9this_itemEv
080f4130 T _ZN12Item_splocal9this_itemEv
080f4160 T _Z9item_initv
080f4170 T _ZN14Item_cache_str7val_intEv
080f41c0 T _ZN14Item_cache_str8val_realEv
080f4210 T _ZN4Item4sendEP8ProtocolP6String
080f4460 T _ZN8Item_ref18val_decimal_resultEP10my_decimal
080f44f0 T _ZN8Item_ref14val_int_resultEv
080f4550 T _ZN8Item_ref10val_resultEv
080f45b0 T _ZN10Item_field18val_decimal_resultEP10my_decimal
080f4620 T _ZN10Item_field14val_int_resultEv
080f4680 T _ZN10Item_field10val_resultEv
080f46e0 T _ZN10Item_field8get_timeEP13st_mysql_time
080f4770 T _ZN10Item_field15get_date_resultEP13st_mysql_timej
080f4800 T _ZN10Item_field8get_dateEP13st_mysql_timej
080f4890 T _ZN10Item_field11val_decimalEP10my_decimal
080f4900 T _ZN10Item_field7val_intEv
080f4960 T _ZN10Item_field8val_realEv
080f49c0 T _ZN10Item_field7val_strEP6String
080f4a30 T _ZN12Item_decimal7val_strEP6String
080f4a80 T _ZN10Item_field10str_resultEP6String
080f4af0 T _ZN8Item_ref10str_resultEP6String
080f4b80 T _ZN10Item_param22safe_charset_converterEP15charset_info_st
080f4c30 T _ZN10Item_field17save_org_in_fieldEP5Field
080f4cc0 T _ZN10Item_param13save_in_fieldEP5Fieldb
080f4dd0 T _ZN4Item18save_date_in_fieldEP5Field
080f4e40 T _ZN4Item18save_time_in_fieldEP5Field
080f4ea0 T _ZN15Item_hex_string13save_in_fieldEP5Fieldb
080f4fc0 T _ZN10Item_float13save_in_fieldEP5Fieldb
080f5020 T _ZN12Item_decimal13save_in_fieldEP5Fieldb
080f5050 T _ZN18Item_cache_decimal5storeEP4Item
080f50c0 T _ZN10Item_param17set_from_user_varEP3THDPK14user_var_entry
080f5290 T _ZN12Item_decimal17set_decimal_valueEP10my_decimal
080f5310 T _ZN10Item_fieldC2EP3THDPS_
080f5390 T _ZN10Item_param11set_decimalEPKcm
080f5470 T _ZN4Item13save_in_fieldEP5Fieldb
080f5700 T _ZN4Item21val_decimal_from_timeEP10my_decimal
080f5770 T _ZN4Item21val_decimal_from_dateEP10my_decimal
080f57e0 T _ZN10Item_field19replace_equal_fieldEPc
080f5850 T _ZNK4Item17decimal_precisionEv
080f58b0 T _ZN18Item_cache_decimal8val_realEv
080f58d0 T _ZN10Item_param8val_realEv
080f5990 T _ZN12Item_decimal8val_realEv
080f59b0 T _ZN4Item21val_real_from_decimalEv
080f5a00 T _ZN4Item17make_string_fieldEP8st_table
080f5c10 T _ZN17Item_insert_value10fix_fieldsEP3THDPP4Item
080f5e40 T _ZN10Item_field18get_tmp_table_itemEP3THD
080f5e80 T _ZN8Item_ref15val_bool_resultEv
080f5f70 T _ZN10Item_field15val_bool_resultEv
080f6050 T _ZN14Item_cache_str11val_decimalEP10my_decimal
080f60a0 T _ZN16Item_copy_string11val_decimalEP10my_decimal
080f60f0 T _ZN10Item_param7val_strEP6String
080f61f0 T _ZNK10Item_param13query_val_strEP6String
080f6350 T _ZN14Item_cache_int11val_decimalEP10my_decimal
080f63b0 T _ZN4Item20val_int_from_decimalEv
080f6470 T _ZNK26Hybrid_type_traits_decimal7val_strEP11Hybrid_typeP6Stringh
080f6500 T _ZN4Item31tmp_table_field_from_field_typeEP8st_table
080f6e70 T _ZN16Item_type_holder18make_field_by_typeEP8st_table
080f7010 T _ZN10Item_field17update_null_valueEv
080f7060 T _ZN14Item_cache_row8allocateEj
080f70d0 T _ZN4Item17print_item_w_nameEP6String
080f7150 T _ZN4ItemC1Ev
080f7240 T _ZN4ItemC2Ev
080f7330 T _ZN16Item_sp_variableC1EPcj
080f7360 T _ZN16Item_sp_variableC2EPcj
080f7390 T _ZN14Item_case_exprC1Ei
080f73d0 T _ZN14Item_case_exprC2Ei
080f7410 T _ZN12Item_splocalC1ERK13st_lex_stringj16enum_field_typesjj
080f7480 T _ZN12Item_splocalC2ERK13st_lex_stringj16enum_field_typesjj
080f74f0 T _ZN10Item_identC1EP23Name_resolution_contextPKcS3_S3_
080f7560 T _ZN10Item_identC2EP23Name_resolution_contextPKcS3_S3_
080f75d0 T _ZN8Item_refC1EP23Name_resolution_contextPP4ItemPKcS6_b
080f7660 T _ZN10Item_field24update_value_transformerEPc
080f7740 T _ZN8Item_refC2EP23Name_resolution_contextPP4ItemPKcS6_b
080f77d0 T _ZN10Item_fieldC1EP3THDP23Name_resolution_contextP5Field
080f78a0 T _ZN10Item_fieldC2EP3THDP23Name_resolution_contextP5Field
080f7970 T _ZN10Item_fieldC1EP5Field
080f79f0 T _ZN8Item_ref18get_tmp_table_itemEP3THD
080f7a60 T _ZN10Item_fieldC2EP5Field
080f7ae0 T _ZN15Item_bin_stringC2EPKcj
080f7c20 T _ZN10Item_floatC1EPKcj
080f7cc0 T _ZN10Item_floatC2EPKcj
080f7d60 T _ZN12Item_decimalC2EPKcii
080f7df0 T _ZN12Item_decimalC1EP10my_decimal
080f7e80 T _ZN12Item_decimalC2EP10my_decimal
080f7f10 T _ZN12Item_decimalC1EPKcii
080f7fa0 T _ZN12Item_decimalC2EPKcPK10my_decimaljj
080f8010 T _ZN8Item_intC2EPKcj
080f8070 T _ZN9Item_uintC1EPKcj
080f80a0 T _ZN9Item_uintC2EPKcj
080f80d0 T _ZN12Item_decimalC1EPKcPK10my_decimaljj
080f8140 T _ZN12Item_decimalC2EPKcjP15charset_info_st
080f81d0 T _ZN8Item_intC1EPKcj
080f8230 T _ZN12Item_decimalC1EPKcjP15charset_info_st
080f82c0 T _ZN9Item_uintC2EPKcxj
080f8310 T _ZN9Item_uintC1EPKcxj
080f8360 T _ZN17Item_int_with_ref10clone_itemEv
080f8430 T _ZN4Item23val_decimal_from_stringEP10my_decimal
080f8500 T _ZN11Item_string11val_decimalEP10my_decimal
080f8510 T _ZN10Item_fieldC1EP23Name_resolution_contextPKcS3_S3_
080f85b0 T _ZN10Item_fieldC2EP23Name_resolution_contextPKcS3_S3_
080f8650 T _ZN10Item_param8set_timeEP13st_mysql_time25enum_mysql_timestamp_typej
080f8760 T _ZN11Item_string7val_intEv
080f8840 T _ZN11Item_string8val_realEv
080f8d10 T _ZN4Item15default_charsetEv
080f8d30 T _ZN15Item_cache_real7val_strEP6String
080f8d70 T _ZN14Item_cache_int7val_strEP6String
080f8db0 T _ZN9Item_uint5printEP6String
080f8e00 T _ZN4Item8set_nameEPKcjP15charset_info_st
080f8f90 T _ZN10Item_cache9get_cacheE11Item_result
080f9160 T _ZN14Item_cache_row5setupEP4Item
080f9220 T _ZN16Item_type_holderC1EP3THDP4Item
080f9310 T _ZN16Item_type_holderC2EP3THDP4Item
080f9400 T _ZN16Item_type_holder10join_typesEP3THDP4Item
080f98a0 T _ZN10Item_field28collect_item_field_processorEPc
080f9930 T _ZN18Item_cache_decimal7val_strEP6String
080f99a0 T _ZN4Item23val_string_from_decimalEP6String
080f9a70 T _ZN10Item_field15fix_outer_fieldEP3THDPP5FieldPP4Item
080fa340 T _ZN4Item15split_sum_func2EP3THDPPS_R4ListIS_ES3_b
080fa570 T _ZN18Item_default_value9transformEM4ItemFPS0_PcES2_
080fa660 T _ZN8Item_ref10fix_fieldsEP3THDPP4Item
080fab30 T _ZN14Item_outer_ref10fix_fieldsEP3THDPP4Item
080fabd0 T _ZN20Item_direct_view_ref10fix_fieldsEP3THDPP4Item
080fac40 T _ZN10Item_field10fix_fieldsEP3THDPP4Item
080fb100 T _ZN10Item_param5resetEv
080fb1b0 T _ZN4Item8get_timeEP13st_mysql_time
080fb250 T _ZN10Item_param8get_timeEP13st_mysql_time
080fb2b0 T _ZN4Item8get_dateEP13st_mysql_timej
080fb450 T _ZN10Item_param8get_dateEP13st_mysql_timej
080fb4b0 T _Z17agg_item_charsetsR11DTCollationPKcPP4Itemjji
080fb880 T _ZN16Item_sp_variable7val_strEP6String
080fb930 T _ZN15Item_hex_stringC2EPKcj
080fbaf0 T _ZN10Item_param17convert_str_valueEP3THD
080fbc10 T _ZNK26Hybrid_type_traits_decimal3addEP11Hybrid_typeP5Field
080fbcd0 T _ZN4Item21val_decimal_from_realEP10my_decimal
080fbd60 T _ZN22Item_static_float_func22safe_charset_converterEP15charset_info_st
080fbe80 T _ZN11Item_string22safe_charset_converterEP15charset_info_st
080fc010 T _Z22field_is_equal_to_itemP5FieldP4Item
080fc210 T _ZN4Item22safe_charset_converterEP15charset_info_st
080fc380 T _ZN10Item_field22safe_charset_converterEP15charset_info_st
080fc3a0 T _ZN15Item_cache_real11val_decimalEP10my_decimal
080fc410 T _ZNK18Hybrid_type_traits11val_decimalEP11Hybrid_typeP10my_decimal
080fc480 T _ZN10Item_float11val_decimalEP10my_decimal
080fc4f0 T _ZN12Item_decimalC1Edii
080fc5c0 T _ZN12Item_decimalC2Edii
080fc690 T _Z18resolve_const_itemP3THDPP4ItemS2_
080fcb90 T _ZN10Item_param10clone_itemEv
080fce10 T _ZN15Item_name_const10fix_fieldsEP3THDPP4Item
080fcf30 T _ZN10Item_float5printEP6String
080fcfd0 T _ZN23Item_static_string_func22safe_charset_converterEP15charset_info_st
080fd1b0 T _ZN14Item_cache_str5storeEP4Item
080fd280 T _ZN15Item_bin_stringC1EPKcj
080fd3c0 T _ZN15Item_hex_stringC1EPKcj
080fd580 T _ZNK26Hybrid_type_traits_decimal7val_intEP11Hybrid_typeb
080fd620 T _ZN18Item_cache_decimal7val_intEv
080fd6b0 T _ZN10Item_param7val_intEv
080fd800 T _ZN12Item_decimal7val_intEv
080fd890 T _ZN8Item_num22safe_charset_converterEP15charset_info_st
080fd990 T _ZN15Item_hex_string22safe_charset_converterEP15charset_info_st
080fda90 T _ZN10Item_paramC1Ej
080fdc60 T _ZN10Item_paramC2Ej
080fde30 T _ZN15Item_name_const5printEP6String
080fdf00 T _ZN12Item_splocal5printEP6String
080fdf90 T _ZN10Item_cache5printEP6String
080fe030 T _ZN18Item_trigger_field5printEP6String
080fe0c0 T _ZN17Item_insert_value5printEP6String
080fe140 T _ZN18Item_default_value5printEP6String
080fe200 T _ZN20Item_ref_null_helper5printEP6String
080fe2d0 T _ZN10Item_param5printEP6String
080fe390 T _ZN11Item_string5printEP6String
080fe480 T _ZN10Item_ident5printEP6String
080fe7f0 T _ZN8Item_ref5printEP6String
080fe8c0 T _ZN10Item_field5printEP6String
080fe9e0 T _ZN4Item20val_decimal_from_intEP10my_decimal
080fea50 T _ZNK26Hybrid_type_traits_decimal3divEP11Hybrid_typey
080feb30 T _ZN15Item_hex_string11val_decimalEP10my_decimal
080feb70 T _ZN10Item_param11val_decimalEP10my_decimal
080fec90 T _ZN12Item_decimalC1Exb
080fed50 T _ZN9Item_uint3negEv
080fedb0 T _ZN12Item_decimalC2Exb
080fee70 T _ZN8Item_int11val_decimalEP10my_decimal
080feed0 W _ZNK18Hybrid_type_traits4typeEv
080feee0 W _ZNK18Hybrid_type_traits8set_zeroEP11Hybrid_type
080fef00 W _ZNK18Hybrid_type_traits3addEP11Hybrid_typeP5Field
080fef30 W _ZNK18Hybrid_type_traits3divEP11Hybrid_typey
080fef80 W _ZNK18Hybrid_type_traits8val_realEP11Hybrid_type
080fef90 W _ZNK26Hybrid_type_traits_decimal4typeEv
080fefa0 W _ZNK26Hybrid_type_traits_decimal11val_decimalEP11Hybrid_typeP10my_decimal
080fefc0 W _ZNK26Hybrid_type_traits_integer4typeEv
080fefd0 W _ZNK26Hybrid_type_traits_integer8set_zeroEP11Hybrid_type
080feff0 W _ZNK26Hybrid_type_traits_integer3addEP11Hybrid_typeP5Field
080ff030 W _ZNK26Hybrid_type_traits_integer3divEP11Hybrid_typey
080ff070 W _ZNK26Hybrid_type_traits_integer7val_intEP11Hybrid_typeb
080ff080 W _ZNK26Hybrid_type_traits_integer8val_realEP11Hybrid_type
080ff090 W _ZN26Settable_routine_parameter22set_required_privilegeEb
080ff0a0 W _ZN4Item17save_org_in_fieldEP5Field
080ff0d0 W _ZN4Item18save_safe_in_fieldEP5Field
080ff100 W _ZNK4Item11result_typeEv
080ff110 W _ZNK4Item16cast_to_int_typeEv
080ff120 W _ZN4Item19get_tmp_table_fieldEv
080ff130 W _ZN4Item15tmp_table_fieldEP8st_table
080ff140 W _ZNK4Item9full_nameEv
080ff160 W _ZN4Item10val_resultEv
080ff170 W _ZN4Item14val_int_resultEv
080ff180 W _ZN4Item10str_resultEP6String
080ff190 W _ZN4Item18val_decimal_resultEP10my_decimal
080ff1a0 W _ZN4Item15val_bool_resultEv
080ff1c0 W _ZNK4Item11used_tablesEv
080ff1d0 W _ZNK4Item15not_null_tablesEv
080ff1e0 W _ZNK4Item16basic_const_itemEv
080ff1f0 W _ZN4Item10clone_itemEv
080ff200 W _ZNK4Item13eq_cmp_resultEv
080ff210 W _ZNK4Item10const_itemEv
080ff230 W _ZNK4Item22const_during_executionEv
080ff260 W _ZN4Item18update_used_tablesEv
080ff270 W _ZN4Item14split_sum_funcEP3THDPPS_R4ListIS_E
080ff280 W _ZN4Item15get_date_resultEP13st_mysql_timej
080ff2b0 W _ZN4Item7is_nullEv
080ff2c0 W _ZN4Item17update_null_valueEv
080ff2d0 W _ZN4Item14top_level_itemEv
080ff2e0 W _ZN4Item16set_result_fieldEP5Field
080ff2f0 W _ZN4Item15is_result_fieldEv
080ff300 W _ZN4Item12is_bool_funcEv
080ff310 W _ZN4Item20save_in_result_fieldEb
080ff320 W _ZN4Item17no_rows_in_resultEv
080ff330 W _ZN4Item12copy_or_sameEP3THD
080ff340 W _ZN4Item20copy_andor_structureEP3THD
080ff350 W _ZN4Item9real_itemEv
080ff360 W _ZN4Item18get_tmp_table_itemEP3THD
080ff380 W _ZN4Item17compare_collationEv
080ff390 W _ZN4Item4walkEMS_FbPcES0_
080ff3e0 W _ZN4Item7compileEMS_FbPPcES1_MS_FPS_S0_ES0_
080ff490 W _ZN4Item13traverse_condEPFvPKS_PvES2_NS_14traverse_orderE
080ff4a0 W _ZN4Item27remove_dependence_processorEPc
080ff4b0 W _ZN4Item12remove_fixedEPc
080ff4c0 W _ZN4Item28collect_item_field_processorEPc
080ff4d0 W _ZN4Item33find_item_in_field_list_processorEPc
080ff4e0 W _ZN4Item24change_context_processorEPc
080ff4f0 W _ZN4Item24reset_query_id_processorEPc
080ff500 W _ZN4Item22is_expensive_processorEPc
080ff510 W _ZN4Item22subst_argument_checkerEPPc
080ff530 W _ZN4Item23equal_fields_propagatorEPc
080ff540 W _ZN4Item16set_no_const_subEPc
080ff550 W _ZN4Item19replace_equal_fieldEPc
080ff560 W _ZN4Item9this_itemEv
080ff570 W _ZNK4Item9this_itemEv
080ff580 W _ZN4Item14this_item_addrEP3THDPPS_
080ff590 W _ZN4Item4colsEv
080ff5a0 W _ZN4Item13element_indexEj
080ff5b0 W _ZN4Item4addrEj
080ff5c0 W _ZN4Item11null_insideEv
080ff5d0 W _ZN4Item11bring_valueEv
080ff5e0 W _ZN4Item21filed_for_view_updateEv
080ff5f0 W _ZN4Item15neg_transformerEP3THD
080ff600 W _ZN4Item24update_value_transformerEPc
080ff610 W _ZN4Item10is_splocalEv
080ff620 W _ZN4Item30get_settable_routine_parameterEv
080ff630 W _ZN4Item18result_as_longlongEv
080ff640 W _ZNK16Item_sp_variable10const_itemEv
080ff650 W _ZN16Item_sp_variable13save_in_fieldEP5Fieldb
080ff690 W _ZN16Item_sp_variable4sendEP8ProtocolP6String
080ff6c0 W _ZN12Item_splocal10is_splocalEv
080ff6d0 W _ZNK12Item_splocal10field_typeEv
080ff6e0 W _ZN12Item_splocal30get_settable_routine_parameterEv
080ff6f0 W _ZNK12Item_splocal4typeEv
080ff700 W _ZNK12Item_splocal11result_typeEv
080ff710 W _ZNK14Item_case_expr4typeEv
080ff730 W _ZNK14Item_case_expr11result_typeEv
080ff750 W _ZNK15Item_name_const11result_typeEv
080ff770 W _ZNK15Item_name_const10const_itemEv
080ff780 W _ZN15Item_name_const13save_in_fieldEP5Fieldb
080ff7a0 W _ZN15Item_name_const4sendEP8ProtocolP6String
080ff7d0 W _ZN10Item_ident24change_context_processorEPc
080ff7e0 W _ZNK19Item_ident_for_show4typeEv
080ff7f0 W _ZN19Item_ident_for_show8val_realEv
080ff810 W _ZN19Item_ident_for_show7val_intEv
080ff830 W _ZN19Item_ident_for_show11val_decimalEP10my_decimal
080ff850 W _ZNK10Item_field4typeEv
080ff860 W _ZNK10Item_field11result_typeEv
080ff880 W _ZNK10Item_field16cast_to_int_typeEv
080ff8a0 W _ZNK10Item_field10field_typeEv
080ff8c0 W _ZN10Item_field19get_tmp_table_fieldEv
080ff8d0 W _ZN10Item_field15tmp_table_fieldEP8st_table
080ff8e0 W _ZN10Item_field7is_nullEv
080ff920 W _ZN10Item_field24reset_query_id_processorEPc
080ff960 W _ZN10Item_field18result_as_longlongEv
080ff980 W _ZN10Item_field21filed_for_view_updateEv
080ff990 W _ZNK9Item_null4typeEv
080ff9a0 W _ZNK9Item_null11result_typeEv
080ff9b0 W _ZNK9Item_null10field_typeEv
080ff9c0 W _ZN9Item_null7cleanupEv
080ff9d0 W _ZNK9Item_null16basic_const_itemEv
080ff9e0 W _ZN9Item_null7is_nullEv
080ff9f0 W _ZNK10Item_param11result_typeEv
080ffa00 W _ZNK10Item_param4typeEv
080ffa10 W _ZNK10Item_param10field_typeEv
080ffa20 W _ZNK10Item_param11used_tablesEv
080ffa50 W _ZN10Item_param7is_nullEv
080ffa70 W _ZNK8Item_int4typeEv
080ffa80 W _ZNK8Item_int11result_typeEv
080ffa90 W _ZNK8Item_int10field_typeEv
080ffaa0 W _ZN8Item_int7val_intEv
080ffab0 W _ZN8Item_int8val_realEv
080ffac0 W _ZNK8Item_int16basic_const_itemEv
080ffad0 W _ZN8Item_int7cleanupEv
080ffae0 W _ZN8Item_int3negEv
080ffb00 W _ZNK8Item_int17decimal_precisionEv
080ffb20 W _ZN9Item_uint8val_realEv
080ffb50 W _ZNK9Item_uint17decimal_precisionEv
080ffb60 W _ZNK12Item_decimal4typeEv
080ffb70 W _ZNK12Item_decimal11result_typeEv
080ffb80 W _ZNK12Item_decimal10field_typeEv
080ffb90 W _ZN12Item_decimal11val_decimalEP10my_decimal
080ffba0 W _ZNK12Item_decimal16basic_const_itemEv
080ffbb0 W _ZN12Item_decimal7cleanupEv
080ffbc0 W _ZNK10Item_float4typeEv
080ffbd0 W _ZNK10Item_float10field_typeEv
080ffbe0 W _ZN10Item_float8val_realEv
080ffbf0 W _ZNK10Item_float16basic_const_itemEv
080ffc00 W _ZN10Item_float7cleanupEv
080ffc10 W _ZN10Item_float3negEv
080ffc20 W _ZNK11Item_string4typeEv
080ffc30 W _ZN11Item_string7val_strEP6String
080ffc40 W _ZNK11Item_string11result_typeEv
080ffc50 W _ZNK11Item_string10field_typeEv
080ffc60 W _ZNK11Item_string16basic_const_itemEv
080ffc70 W _ZN11Item_string7cleanupEv
080ffc80 W _ZNK15Item_hex_string4typeEv
080ffc90 W _ZNK15Item_hex_string16basic_const_itemEv
080ffca0 W _ZN15Item_hex_string7val_strEP6String
080ffcb0 W _ZNK15Item_hex_string11result_typeEv
080ffcc0 W _ZNK15Item_hex_string16cast_to_int_typeEv
080ffcd0 W _ZNK15Item_hex_string10field_typeEv
080ffce0 W _ZN15Item_hex_string7cleanupEv
080ffcf0 W _ZN17Item_result_field19get_tmp_table_fieldEv
080ffd00 W _ZN17Item_result_field15tmp_table_fieldEP8st_table
080ffd10 W _ZNK17Item_result_field11used_tablesEv
080ffd20 W _ZN17Item_result_field16set_result_fieldEP5Field
080ffd30 W _ZN17Item_result_field15is_result_fieldEv
080ffd40 W _ZN17Item_result_field20save_in_result_fieldEb
080ffd70 W _ZNK8Item_ref4typeEv
080ffd80 W _ZNK8Item_ref2eqEPK4Itemb
080ffdd0 W _ZNK8Item_ref11result_typeEv
080ffdf0 W _ZNK8Item_ref10field_typeEv
080ffe10 W _ZN8Item_ref19get_tmp_table_fieldEv
080ffe30 W _ZNK8Item_ref11used_tablesEv
080ffe60 W _ZN8Item_ref18update_used_tablesEv
080ffe90 W _ZNK8Item_ref15not_null_tablesEv
080ffeb0 W _ZN8Item_ref16set_result_fieldEP5Field
080ffec0 W _ZN8Item_ref15is_result_fieldEv
080ffed0 W _ZN8Item_ref20save_in_result_fieldEb
080fff00 W _ZN8Item_ref9real_itemEv
080fff30 W _ZN8Item_ref4walkEM4ItemFbPcES1_
080fff70 W _ZN8Item_ref18result_as_longlongEv
080fff90 W _ZN8Item_ref21filed_for_view_updateEv
080fffb0 W _ZN8Item_ref8ref_typeEv
080fffc0 W _ZN15Item_direct_ref8ref_typeEv
080fffd0 W _ZN20Item_direct_view_ref8ref_typeEv
080fffe0 W _ZN14Item_outer_ref20save_in_result_fieldEb
08100000 W _ZNK14Item_outer_ref11used_tablesEv
08100040 W _ZN14Item_outer_ref8ref_typeEv
08100050 W _ZNK20Item_ref_null_helper11used_tablesEv
08100090 W _ZN17Item_int_with_ref13save_in_fieldEP5Fieldb
081000b0 W _ZN17Item_int_with_ref9real_itemEv
081000c0 W _ZNK16Item_copy_string4typeEv
081000d0 W _ZNK16Item_copy_string11result_typeEv
081000e0 W _ZNK16Item_copy_string10field_typeEv
081000f0 W _ZN16Item_copy_string10make_fieldEP10Send_field
08100110 W _ZNK16Item_copy_string11used_tablesEv
08100120 W _ZNK16Item_copy_string10const_itemEv
08100130 W _ZN16Item_copy_string7is_nullEv
08100150 W _ZNK18Item_default_value4typeEv
08100160 W _ZNK18Item_default_value11used_tablesEv
08100170 W _ZN18Item_default_value4walkEM4ItemFbPcES1_
08100200 W _ZNK17Item_insert_value11used_tablesEv
08100210 W _ZN17Item_insert_value4walkEM4ItemFbPcES1_
081002a0 W _ZNK18Item_trigger_field4typeEv
081002b0 W _ZNK18Item_trigger_field11used_tablesEv
081002c0 W _ZN18Item_trigger_field19get_tmp_table_fieldEv
081002d0 W _ZN18Item_trigger_field12copy_or_sameEP3THD
081002e0 W _ZN18Item_trigger_field18get_tmp_table_itemEP3THD
08100300 W _ZN18Item_trigger_field30get_settable_routine_parameterEv
08100320 W _ZN10Item_cache8allocateEj
08100330 W _ZN10Item_cache5setupEP4Item
08100380 W _ZNK10Item_cache4typeEv
08100390 W _ZNK10Item_cache11used_tablesEv
081003a0 W _ZN10Item_cache10keep_arrayEv
081003b0 W _ZN10Item_cache7cleanupEv
081003c0 W _ZN14Item_cache_int8val_realEv
081003d0 W _ZN14Item_cache_int7val_intEv
081003e0 W _ZNK14Item_cache_int11result_typeEv
081003f0 W _ZN14Item_cache_int18result_as_longlongEv
08100400 W _ZN15Item_cache_real8val_realEv
08100410 W _ZNK15Item_cache_real11result_typeEv
08100420 W _ZNK18Item_cache_decimal11result_typeEv
08100430 W _ZN14Item_cache_str7val_strEP6String
08100440 W _ZNK14Item_cache_str11result_typeEv
08100450 W _ZNK14Item_cache_row11result_typeEv
08100460 W _ZN14Item_cache_row4colsEv
08100470 W _ZN14Item_cache_row13element_indexEj
08100490 W _ZN14Item_cache_row4addrEj
081004b0 W _ZN14Item_cache_row10keep_arrayEv
081004c0 W _ZNK16Item_type_holder10field_typeEv
081004d0 W _ZNK16Item_type_holder4typeEv
081004e0 W _ZN15Item_hex_string8val_realEv
08100520 W _ZThn144_N18Item_trigger_field22set_required_privilegeEb
08100530 W _ZN4ListI4ItemEC2Ev
08100550 W _ZN4ListI4ItemEC2ERKS1_
08100580 W _ZN4ListI4ItemE7prepandEPS1_
081005b0 W _ZN18List_iterator_fastI10Item_fieldEC2ER4ListIS0_E
081005d0 W _ZN18List_iterator_fastI10Item_fieldEppEi
081005f0 W _ZN18List_iterator_fastI10Item_fieldE6rewindEv
08100600 W _ZN4ListI4ItemE8head_refEv
08100620 W _ZN4ListI4ItemE6concatEPS1_
08100650 W _ZN4ListI4ItemE15delete_elementsEv
081006b0 W _ZN13List_iteratorI4ItemEC2Ev
081006e0 W _ZN13List_iteratorI4ItemE4initER4ListIS0_E
08100700 W _ZN13List_iteratorI4ItemEppEi
08100720 W _ZN13List_iteratorI4ItemE7replaceEPS0_
08100740 W _ZN13List_iteratorI4ItemE7replaceER4ListIS0_E
081007b0 W _ZN13List_iteratorI4ItemE6removeEv
08100810 W _ZN13List_iteratorI4ItemE3refEv
08100820 W _ZN18List_iterator_fastI4ItemE7replaceEPS0_
08100830 W _ZN18List_iterator_fastI4ItemE7replaceER4ListIS0_E
08100840 W _ZN18List_iterator_fastI4ItemE6removeEv
08100850 W _ZN18List_iterator_fastI4ItemE5afterEPS0_
08100860 W _ZN18List_iterator_fastI4ItemE3refEv
08100870 W _ZN18List_iterator_fastI4ItemE7sublistER4ListIS0_Ej
08100890 W _ZN18List_iterator_fastI10Item_fieldE7replaceEPS0_
081008a0 W _ZN18List_iterator_fastI10Item_fieldE7replaceER4ListIS0_E
081008b0 W _ZN18List_iterator_fastI10Item_fieldE6removeEv
081008c0 W _ZN18List_iterator_fastI10Item_fieldE5afterEPS0_
081008d0 W _ZN18List_iterator_fastI10Item_fieldE3refEv
081008e0 W _ZN4ListIS_I4ItemEE4headEv
081008f0 W _ZN4ListIS_I4ItemEE3popEv
08100920 W _ZN4ListIS_I4ItemEE7disjoinEPS2_
08100970 W _ZN26Settable_routine_parameterD0Ev
08100990 W _ZN26Settable_routine_parameterD1Ev
081009a0 W _ZN18Hybrid_type_traitsD0Ev
081009c0 W _ZN18Hybrid_type_traitsD1Ev
081009d0 W _ZN26Hybrid_type_traits_integerD1Ev
081009e0 W _ZN10Item_float7val_intEv
08100a50 W _ZNK18Hybrid_type_traits7val_intEP11Hybrid_typeb
08100a90 W _ZNK26Hybrid_type_traits_integer7val_strEP11Hybrid_typeP6Stringh
08100ad0 W _ZN23Item_static_string_func5printEP6String
08100af0 W _ZN22Item_static_float_func5printEP6String
08100b10 W _ZN4Item5printEP6String
08100b40 W _ZN13List_iteratorI4ItemE5afterEPS0_
08100ba0 W _ZN4ListI4ItemE10push_frontEPS0_
08100bf0 W _ZN9Item_null5printEP6String
08100c20 W _ZN4ListIS_I4ItemEE9push_backEPS1_P11st_mem_root
08100c90 W _ZN4ListIS_I4ItemEEC1ERKS2_P11st_mem_root
08100d30 W _ZN14Item_cache_row11val_decimalEP10my_decimal
08100d50 W _ZN14Item_cache_row7val_strEP6String
08100d70 W _ZN14Item_cache_row7val_intEv
08100d90 W _ZN14Item_cache_row8val_realEv
08100db0 W _ZN14Item_cache_row10make_fieldEP10Send_field
08100dc0 W _ZThn144_N18Item_trigger_field9set_valueEP3THDP11sp_rcontextPP4Item
08100dd0 W _ZN16Item_copy_string13save_in_fieldEP5Fieldb
08100df0 W _ZN17Item_insert_value13save_in_fieldEP5Fieldb
08100e00 W _ZThn88_N12Item_splocal9set_valueEP3THDP11sp_rcontextPP4Item
08100e10 W _ZN16Item_copy_string7val_intEv
08100e70 W _ZN16Item_copy_string8val_realEv
08100ec0 W _ZN18List_iterator_fastI4ItemEC1ER4ListIS0_E
08100ee0 W _ZN18List_iterator_fastI4ItemEC2ER4ListIS0_E
08100f00 W _ZN13List_iteratorI4ItemEC1ER4ListIS0_E
08100f20 W _ZN13List_iteratorI4ItemEC2ER4ListIS0_E
08100f40 W _ZN18List_iterator_fastI10Item_fieldEC1ER4ListIS0_E
08100f60 W _ZN18List_iterator_fastI10Item_fieldEC1Ev
08100f90 W _ZN18List_iterator_fastI10Item_fieldEC2Ev
08100fc0 W _ZN18List_iterator_fastI4ItemEC1Ev
08100ff0 W _ZN18List_iterator_fastI4ItemEC2Ev
08101020 W _ZN13List_iteratorI4ItemEC1Ev
08101050 W _ZN4ListIS_I4ItemEEC1Ev
08101070 W _ZN4ListIS_I4ItemEEC2Ev
08101090 W _ZN4ListI4ItemEC1Ev
081010b0 W _ZN4ListIS_I4ItemEEC1ERKS2_
081010e0 W _ZN4ListIS_I4ItemEEC2ERKS2_
08101110 W _ZN4ListI4ItemEC1ERKS1_
08101140 W _ZNK12Item_decimal17decimal_precisionEv
08101150 W _ZN18List_iterator_fastI4ItemE6rewindEv
08101160 W _ZN13List_iteratorI4ItemE6rewindEv
08101170 W _ZN18List_iterator_fastI10Item_fieldE4initER4ListIS0_E
08101190 W _ZN18List_iterator_fastI4ItemE4initER4ListIS0_E
081011b0 W _ZN18List_iterator_fastI10Item_fieldE7sublistER4ListIS0_Ej
081011d0 W _ZN4ListI4ItemE4headEv
081011e0 W _ZN12Item_decimal3negEv
08101220 W _ZN18List_iterator_fastI4ItemEppEi
08101240 W _ZN4ListIS_I4ItemEE8head_refEv
08101260 W _ZN4ListIS_I4ItemEE15delete_elementsEv
08101290 W _ZN4ListIS_I4ItemEE6concatEPS2_
081012c0 W _ZN4ListIS_I4ItemEE7prepandEPS2_
081012f0 W _ZN4ListI4ItemE7disjoinEPS1_
08101340 W _ZN4ListI4ItemE3popEv
08101370 W _ZN14Item_cache_row7cleanupEv
081013c0 W _ZN19Item_ident_for_show7val_strEP6String
081013f0 W _ZN26Hybrid_type_traits_decimalD0Ev
08101410 W _ZN26Hybrid_type_traits_decimalD1Ev
08101420 W _ZN26Hybrid_type_traits_integerD0Ev
08101440 W _ZN4ListI4ItemE9push_backEPS0_P11st_mem_root
081014b0 W _ZN4ListIS_I4ItemEE10push_frontEPS1_
08101500 W _ZN20Item_direct_view_ref18get_tmp_table_itemEP3THD
08101530 W _ZN9Item_uint10clone_itemEv
08101570 W _ZN12Item_decimal10clone_itemEv
081015c0 W _ZN10Item_float10clone_itemEv
08101630 W _ZN8Item_int10clone_itemEv
081016a0 W _ZN11Item_string10clone_itemEv
08101760 W _ZN16Item_sp_variable10make_fieldEP10Send_field
08101800 W _ZN4ListI4ItemE9push_backEPS0_
08101870 W _ZN4ListIS_I4ItemEE9push_backEPS1_
081018e0 W _ZN17Item_int_with_refD1Ev
08101930 W _ZN15Item_name_constD0Ev
08101980 W _ZN15Item_name_constD1Ev
081019d0 W _ZN19Item_ident_for_showD0Ev
08101a20 W _ZN19Item_ident_for_showD1Ev
08101a70 W _ZN10Item_paramD0Ev
08101b40 W _ZN9Item_nullD0Ev
08101b90 W _ZN9Item_nullD1Ev
08101be0 W _ZN16Item_sp_variableD1Ev
08101c30 W _ZN14Item_case_exprD1Ev
08101c80 W _ZN10Item_cacheD0Ev
08101cd0 W _ZN10Item_cacheD1Ev
08101d20 W _ZN14Item_cache_rowD0Ev
08101d70 W _ZN10Item_identD0Ev
08101dc0 W _ZN10Item_identD1Ev
08101e10 W _ZThn144_N18Item_trigger_fieldD0Ev
08101e20 W _ZN18Item_trigger_fieldD0Ev
08101e80 W _ZN17Item_result_fieldD0Ev
08101ed0 W _ZN17Item_result_fieldD1Ev
08101f20 W _ZN11Item_stringD0Ev
08101f70 W _ZN11Item_stringD1Ev
08101fc0 W _ZN17Item_empty_stringD0Ev
08102010 W _ZN8Item_numD0Ev
08102060 W _ZN8Item_numD1Ev
081020b0 W _ZN9Item_uintD1Ev
08102100 W _ZN16Item_copy_stringD0Ev
08102150 W _ZN16Item_copy_stringD1Ev
081021a0 W _ZN16Item_type_holderD0Ev
081021f0 W _ZN16Item_type_holderD1Ev
08102240 W _ZN15Item_hex_stringD0Ev
08102290 W _ZN15Item_hex_stringD1Ev
081022e0 W _ZN15Item_bin_stringD0Ev
08102330 W _ZN16Item_sp_variableD0Ev
08102380 W _ZN4ListIS_I4ItemEEC2ERKS2_P11st_mem_root
08102420 W _ZN4ListI4ItemEC1ERKS1_P11st_mem_root
081024c0 W _ZN4ListI4ItemEC2ERKS1_P11st_mem_root
08102560 W _ZN9Item_null10clone_itemEv
081025e0 W _ZN15Item_bin_stringD1Ev
08102630 W _ZN4ItemD0Ev
08102680 W _ZThn88_N12Item_splocalD0Ev
08102690 W _ZN12Item_splocalD0Ev
081026f0 W _ZThn88_N12Item_splocalD1Ev
08102700 W _ZN12Item_splocalD1Ev
08102760 W _ZN14Item_case_exprD0Ev
081027b0 W _ZN4ItemD1Ev
08102800 W _ZN17Item_empty_stringD1Ev
08102850 W _ZN23Item_static_string_funcD0Ev
081028a0 W _ZN23Item_static_string_funcD1Ev
081028f0 W _ZN17Item_insert_valueD0Ev
08102940 W _ZN10Item_fieldD0Ev
08102990 W _ZN10Item_fieldD1Ev
081029e0 W _ZN8Item_refD1Ev
08102a30 W _ZN8Item_refD0Ev
08102a80 W _ZN20Item_direct_view_refD1Ev
08102ad0 W _ZN18Item_default_valueD0Ev
08102b20 W _ZN18Item_aggregate_refD0Ev
08102b70 W _ZN14Item_outer_refD1Ev
08102bc0 W _ZN18Item_aggregate_refD1Ev
08102c10 W _ZN20Item_ref_null_helperD0Ev
08102c60 W _ZN15Item_direct_refD0Ev
08102cb0 W _ZN20Item_ref_null_helperD1Ev
08102d00 W _ZN15Item_direct_refD1Ev
08102d50 W _ZN20Item_direct_view_refD0Ev
08102da0 W _ZN17Item_int_with_refD0Ev
08102df0 W _ZThn144_N18Item_trigger_fieldD1Ev
08102e00 W _ZN18Item_trigger_fieldD1Ev
08102e60 W _ZN12Item_decimalD0Ev
08102eb0 W _ZN10Item_floatD1Ev
08102f00 W _ZN12Item_decimalD1Ev
08102f50 W _ZN8Item_intD0Ev
08102fa0 W _ZN10Item_floatD0Ev
08102ff0 W _ZN22Item_static_float_funcD1Ev
08103040 W _ZN8Item_intD1Ev
08103090 W _ZN18Item_default_valueD1Ev
081030e0 W _ZN22Item_static_float_funcD0Ev
08103130 W _ZN14Item_outer_refD0Ev
08103180 W _ZN17Item_insert_valueD1Ev
081031d0 W _ZN9Item_uintD0Ev
08103220 W _ZN14Item_cache_intD0Ev
08103270 W _ZN14Item_cache_intD1Ev
081032c0 W _ZN14Item_cache_rowD1Ev
08103310 W _ZN18Item_cache_decimalD1Ev
08103360 W _ZN15Item_cache_realD1Ev
081033b0 W _ZN15Item_cache_realD0Ev
08103400 W _ZN18Item_cache_decimalD0Ev
08103450 W _ZN10Item_paramD1Ev
08103520 W _ZN14Item_cache_strD0Ev
081035b0 W _ZN14Item_cache_strD1Ev
08103640 W _ZN18Item_aggregate_ref5printEP6String
08103670 W _ZNK26Hybrid_type_traits_integer11val_decimalEP11Hybrid_typeP10my_decimal
081036b0 T _ZN8Item_sum22fix_num_length_and_decEv
08103700 T _ZN8Item_sum4walkEM4ItemFbPcES1_
081037b0 T _ZN8Item_sum18update_used_tablesEv
081038a0 T _ZN12Item_sum_sum5clearEv
08103900 T _ZN12Item_sum_sum18fix_length_and_decEv
08103a00 T _ZN31Hybrid_type_traits_fast_decimal8instanceEv
08103a10 T _ZN17Item_sum_distinct8val_realEv
08103a50 T _ZN17Item_sum_distinct11val_decimalEP10my_decimal
08103aa0 T _ZN17Item_sum_distinct7val_intEv
08103af0 T _ZN17Item_sum_distinct7val_strEP6String
08103b40 T _ZN14Item_sum_count5clearEv
08103b60 T _ZN14Item_sum_count3addEv
08103bb0 T _ZN14Item_sum_count7val_intEv
08103bd0 T _ZN12Item_sum_avg5clearEv
08103cf0 T _ZN17Item_sum_variance5clearEv
08103d10 T _ZN17Item_sum_variance3addEv
08103d60 T _ZN17Item_sum_variance8val_realEv
08103dc0 T _ZN17Item_sum_variance12update_fieldEv
08103e80 T _ZN15Item_sum_hybrid17no_rows_in_resultEv
08103ea0 T _ZN12Item_sum_bit7val_intEv
08103ec0 T _ZN12Item_sum_bit5clearEv
08103ee0 T _ZN11Item_sum_or3addEv
08103f20 T _ZN12Item_sum_xor3addEv
08103f60 T _ZN12Item_sum_and3addEv
08103fa0 T _ZN12Item_sum_num11reset_fieldEv
08104020 T _ZN14Item_sum_count11reset_fieldEv
08104070 T _ZN12Item_sum_bit11reset_fieldEv
081040b0 T _ZN12Item_sum_bit12update_fieldEv
08104100 T _ZN14Item_sum_count12update_fieldEv
08104160 T _ZN15Item_sum_hybrid25min_max_update_real_fieldEv
08104260 T _ZN15Item_sum_hybrid24min_max_update_int_fieldEv
081043d0 T _Z18simple_str_key_cmpPvPcS0_
081043e0 T _Z17composite_key_cmpPvPcS0_
08104470 T _ZN23Item_sum_count_distinct11make_uniqueEv
081044b0 T _ZN12Item_udf_sum5clearEv
081044f0 T _ZN16Item_sum_udf_str18fix_length_and_decEv
08104530 T _ZN22Item_func_group_concat11make_uniqueEv
08104560 T _ZN14Item_avg_field7val_intEv
081045a0 T _ZN18Item_sum_udf_float11val_decimalEP10my_decimal
081045b0 T _ZN17Item_sum_variance11val_decimalEP10my_decimal
081045c0 T _ZN12Item_sum_sum11val_decimalEP10my_decimal
081045f0 T _ZN12Item_sum_num11val_decimalEP10my_decimal
08104600 T _ZN18Item_sum_udf_float7val_strEP6String
08104610 T _ZN12Item_sum_num7val_strEP6String
08104620 T _ZN16Item_sum_udf_str11val_decimalEP10my_decimal
08104680 T _Z31group_concat_key_cmp_with_orderPvPcS0_
08104740 T _Z34group_concat_key_cmp_with_distinctPvPcS0_
081047e0 T _Z44group_concat_key_cmp_with_distinct_and_orderPvPcS0_
08104840 T _ZN16Item_sum_udf_str7val_strEP6String
08104880 T _ZN16Item_sum_udf_int11val_decimalEP10my_decimal
08104890 T _ZN12Item_sum_int11val_decimalEP10my_decimal
081048a0 T _ZN16Item_sum_udf_int7val_strEP6String
081048b0 T _ZN12Item_sum_int7val_strEP6String
081048c0 T _ZN12Item_udf_sum3addEv
08104940 T _ZN16Item_sum_udf_int7val_intEv
081049c0 T _ZN18Item_sum_udf_float8val_realEv
08104a50 T _ZN20Item_sum_udf_decimal11val_decimalEP10my_decimal
08104a80 T _ZN20Item_sum_udf_decimal7val_intEv
08104a90 T _ZN20Item_sum_udf_decimal8val_realEv
08104aa0 T _ZN19Item_variance_field8val_realEv
08104b40 T _ZN14Item_avg_field8val_realEv
08104ba0 T _ZN20Item_sum_udf_decimal7val_strEP6String
08104bb0 T _ZN14Item_avg_field7val_strEP6String
08104be0 T _ZN12Item_sum_avg7val_strEP6String
08104c10 T _ZN12Item_sum_sum7val_strEP6String
08104c40 T _ZN23Item_sum_count_distinct7val_intEv
08104d20 T _ZN17Item_sum_distinct23calculate_val_and_countEv
08104dc0 T _ZN21Item_sum_avg_distinct23calculate_val_and_countEv
08104e40 T _ZN17Item_sum_distinct3addEv
08104f30 T _ZN23Item_sum_count_distinct5clearEv
08104fb0 T _ZN17Item_sum_distinct5clearEv
08105020 T _ZN14Item_std_field8val_realEv
08105060 T _ZN12Item_sum_std8val_realEv
081050a0 T _ZN15Item_sum_hybrid8val_realEv
08105180 T _ZN12Item_sum_sum8val_realEv
081051e0 T _ZN12Item_sum_avg8val_realEv
08105240 T _ZN15Item_sum_hybrid28min_max_update_decimal_fieldEv
08105370 T _ZN17Item_sum_variance11reset_fieldEv
08105410 T _ZN15Item_sum_hybrid7val_strEP6String
08105530 T _ZN17Item_sum_distinct20unique_walk_functionEPv
081055a0 T _ZN17Item_sum_distinct18fix_length_and_decEv
08105680 T _ZN21Item_sum_avg_distinct18fix_length_and_decEv
081056d0 T _ZN8Item_sum10make_fieldEP10Send_field
08105770 T _ZN8Item_sumC2EP3THDPS_
08105840 T _ZN22Item_func_group_concatC1EP3THDPS_
08105960 T _ZN15Item_sum_hybridC1EP3THDPS_
08105ac0 T _ZN15Item_sum_hybridC2EP3THDPS_
08105c20 T _ZN8Item_sum17register_sum_funcEP3THDPP4Item
08105d90 T _ZN8Item_sum14check_sum_funcEP3THDPP4Item
08105f30 T _ZN8Item_sum19init_sum_func_checkEP3THD
08105fb0 T _ZN12Item_sum_num10fix_fieldsEP3THDPP4Item
081060c0 T _ZN12Item_sum_avg11reset_fieldEv
081061d0 T _ZN22Item_func_group_concat7val_strEP6String
08106280 T _ZN12Item_sum_sum11reset_fieldEv
08106330 T _ZN22Item_func_group_concat5clearEv
08106380 T _ZN12Item_sum_min3addEv
08106560 T _ZN22Item_func_group_concatC2EP3THDPS_
08106680 T _ZN15Item_sum_hybrid10fix_fieldsEP3THDPP4Item
08106860 T _ZN15Item_sum_hybrid5clearEv
081068f0 T _ZN22Item_func_group_concat10fix_fieldsEP3THDPP4Item
08106af0 T _ZN12Item_sum_max3addEv
08106ce0 T _ZN12Item_sum_max12copy_or_sameEP3THD
08106d30 T _ZN12Item_sum_min12copy_or_sameEP3THD
08106d80 T _ZN22Item_func_group_concat12copy_or_sameEP3THD
08106dd0 T _ZN16Item_sum_udf_int12copy_or_sameEP3THD
08106e50 T _ZN8Item_sum18get_tmp_table_itemEP3THD
08106f30 T _ZN8Item_sumC1EP3THDPS_
08107000 T _ZN22Item_func_group_concat5setupEP3THD
081073b0 T _ZN15Item_sum_hybrid24min_max_update_str_fieldEv
081074b0 T _ZN15Item_sum_hybrid12update_fieldEv
08107500 T _ZN17Item_sum_variance16create_tmp_fieldEbP8st_tablej
08107600 T _ZN8Item_sum16mark_as_sum_funcEv
08107640 T _ZN17Item_sum_distinctC1EP4Item
081076f0 T _ZN17Item_sum_variance18fix_length_and_decEv
081077f0 T _ZN12Item_sum_avg18fix_length_and_decEv
08107900 T _ZN12Item_sum_sum7val_intEv
081079e0 T _ZN17Item_sum_distinct5setupEP3THD
08107b50 T _ZN23Item_sum_count_distinct5setupEP3THD
08107f60 T _ZN12Item_sum_avg16create_tmp_fieldEbP8st_tablej
081080d0 T _ZN8Item_sum16create_tmp_fieldEbP8st_tablej
08108350 T _ZN15Item_sum_hybrid16create_tmp_fieldEbP8st_tablej
08108570 T _ZN12Item_sum_and12copy_or_sameEP3THD
08108600 T _ZN17Item_sum_varianceC1EP3THDPS_
08108690 T _ZN17Item_sum_variance12copy_or_sameEP3THD
081086e0 T _ZN17Item_sum_varianceC2EP3THDPS_
08108770 T _ZN12Item_sum_std12copy_or_sameEP3THD
081087c0 T _ZN17Item_sum_distinctC1EP3THDPS_
08108870 T _ZN12Item_sum_sumC2EP3THDPS_
08108960 T _ZN12Item_sum_avg12copy_or_sameEP3THD
081089e0 T _ZN17Item_sum_distinctC2EP3THDPS_
08108a90 T _ZN23Item_sum_count_distinct12copy_or_sameEP3THD
08108b60 T _ZN12Item_sum_sumC1EP3THDPS_
08108c50 T _ZN12Item_sum_sum12copy_or_sameEP3THD
08108ca0 T _ZN14Item_sum_count12copy_or_sameEP3THD
08108d20 T _ZN19Item_variance_fieldC1EP17Item_sum_variance
08108dd0 T _ZN11Item_sum_or12copy_or_sameEP3THD
08108e60 T _ZN8Item_sumC2ER4ListI4ItemE
08108f00 T _ZN19Item_variance_fieldC2EP17Item_sum_variance
08108fb0 T _ZN14Item_std_fieldC1EP12Item_sum_std
08108fe0 T _ZN14Item_std_fieldC2EP12Item_sum_std
08109010 T _ZN22Item_func_group_concatC2EP23Name_resolution_contextbP4ListI4ItemEP11st_sql_listP6String
08109190 T _ZN17Item_sum_distinctC2EP4Item
08109240 T _ZN14Item_avg_fieldC2E11Item_resultP12Item_sum_avg
081092c0 T _ZN14Item_avg_fieldC1E11Item_resultP12Item_sum_avg
08109340 T _ZN8Item_sumC1ER4ListI4ItemE
081093e0 T _ZN20Item_sum_udf_decimal12copy_or_sameEP3THD
08109460 T _ZN18Item_sum_udf_float12copy_or_sameEP3THD
081094e0 T _ZN16Item_sum_udf_str12copy_or_sameEP3THD
08109560 T _ZN12Item_sum_xor12copy_or_sameEP3THD
081095f0 T _ZN22Item_func_group_concatC1EP23Name_resolution_contextbP4ListI4ItemEP11st_sql_listP6String
08109770 T _ZN23Item_sum_count_distinct3addEv
081098a0 T _ZN12Item_udf_sum7cleanupEv
081098d0 T _ZN15Item_sum_hybrid7cleanupEv
08109900 T _ZN14Item_sum_count7cleanupEv
08109930 T _ZN17Item_sum_distinct7cleanupEv
08109980 T _ZN23Item_sum_count_distinct7cleanupEv
08109a90 T _Z13dump_leaf_keyPcjP22Item_func_group_concat
08109c40 T _ZN22Item_func_group_concat3addEv
08109da0 T _ZN12Item_sum_sum3addEv
08109ec0 T _ZN12Item_sum_avg3addEv
08109f10 T _ZN12Item_sum_avg12update_fieldEv
0810a0f0 T _ZN15Item_sum_hybrid7val_intEv
0810a1e0 T _ZN15Item_sum_hybrid11reset_fieldEv
0810a490 T _ZN8Item_sum5printEP6String
0810a560 T _ZN22Item_func_group_concat5printEP6String
0810a770 T _ZN12Item_udf_sum5printEP6String
0810a890 T _ZN22Item_func_group_concat7cleanupEv
0810aa50 T _ZN14Item_std_field11val_decimalEP10my_decimal
0810ab70 T _ZN12Item_sum_sum12update_fieldEv
0810ad10 T _ZN14Item_avg_field11val_decimalEP10my_decimal
0810ae60 T _ZN15Item_sum_hybrid11val_decimalEP10my_decimal
0810afb0 T _ZN12Item_sum_avg11val_decimalEP10my_decimal
0810b0b0 T _ZN23Item_sum_count_distinctD2Ev
0810b110 T _ZN17Item_sum_distinctD2Ev
0810b180 T _ZN17Item_sum_distinctD0Ev
0810b1f0 T _ZN17Item_sum_distinctD1Ev
0810b260 T _ZN23Item_sum_count_distinctD0Ev
0810b2c0 T _ZN23Item_sum_count_distinctD1Ev
0810b320 W _ZNK8Item_sum4typeEv
0810b330 W _ZNK8Item_sum15keep_field_typeEv
0810b340 W _ZN8Item_sum18fix_length_and_decEv
0810b350 W _ZNK8Item_sum11used_tablesEv
0810b360 W _ZN8Item_sum7is_nullEv
0810b380 W _ZNK8Item_sum10const_itemEv
0810b390 W _ZN8Item_sum17no_rows_in_resultEv
0810b3b0 W _ZN8Item_sum5setupEP3THD
0810b3c0 W _ZN8Item_sum11make_uniqueEv
0810b3d0 W _ZN12Item_sum_int8val_realEv
0810b3f0 W _ZNK12Item_sum_int11result_typeEv
0810b400 W _ZN12Item_sum_int18fix_length_and_decEv
0810b420 W _ZNK12Item_sum_sum8sum_funcEv
0810b430 W _ZNK12Item_sum_sum11result_typeEv
0810b440 W _ZN12Item_sum_sum17no_rows_in_resultEv
0810b450 W _ZNK12Item_sum_sum9func_nameEv
0810b460 W _ZNK17Item_sum_distinct8sum_funcEv
0810b470 W _ZN17Item_sum_distinct11reset_fieldEv
0810b480 W _ZN17Item_sum_distinct12update_fieldEv
0810b490 W _ZN17Item_sum_distinct17no_rows_in_resultEv
0810b4a0 W _ZNK17Item_sum_distinct11result_typeEv
0810b4c0 W _ZNK21Item_sum_avg_distinct8sum_funcEv
0810b4d0 W _ZNK21Item_sum_avg_distinct9func_nameEv
0810b4e0 W _ZNK14Item_sum_count8sum_funcEv
0810b4f0 W _ZN14Item_sum_count17no_rows_in_resultEv
0810b510 W _ZNK14Item_sum_count9func_nameEv
0810b520 W _ZNK23Item_sum_count_distinct8sum_funcEv
0810b530 W _ZN23Item_sum_count_distinct11reset_fieldEv
0810b540 W _ZN23Item_sum_count_distinct12update_fieldEv
0810b550 W _ZNK23Item_sum_count_distinct9func_nameEv
0810b560 W _ZN23Item_sum_count_distinct17no_rows_in_resultEv
0810b570 W _ZNK14Item_avg_field4typeEv
0810b580 W _ZN14Item_avg_field7is_nullEv
0810b5b0 W _ZNK14Item_avg_field10field_typeEv
0810b5d0 W _ZN14Item_avg_field18fix_length_and_decEv
0810b5e0 W _ZNK14Item_avg_field11result_typeEv
0810b5f0 W _ZNK12Item_sum_avg8sum_funcEv
0810b600 W _ZN12Item_sum_avg17no_rows_in_resultEv
0810b610 W _ZNK12Item_sum_avg9func_nameEv
0810b620 W _ZNK19Item_variance_field4typeEv
0810b630 W _ZN19Item_variance_field7is_nullEv
0810b660 W _ZNK19Item_variance_field10field_typeEv
0810b680 W _ZN19Item_variance_field18fix_length_and_decEv
0810b690 W _ZNK19Item_variance_field11result_typeEv
0810b6a0 W _ZNK17Item_sum_variance8sum_funcEv
0810b6b0 W _ZN17Item_sum_variance17no_rows_in_resultEv
0810b6c0 W _ZNK17Item_sum_variance9func_nameEv
0810b6f0 W _ZNK17Item_sum_variance11result_typeEv
0810b700 W _ZNK14Item_std_field4typeEv
0810b710 W _ZNK14Item_std_field11result_typeEv
0810b720 W _ZNK14Item_std_field10field_typeEv
0810b730 W _ZNK12Item_sum_std8sum_funcEv
0810b740 W _ZNK12Item_sum_std9func_nameEv
0810b750 W _ZNK12Item_sum_std11result_typeEv
0810b760 W _ZNK12Item_sum_std10field_typeEv
0810b770 W _ZNK15Item_sum_hybrid15keep_field_typeEv
0810b780 W _ZNK15Item_sum_hybrid11result_typeEv
0810b790 W _ZNK15Item_sum_hybrid10field_typeEv
0810b7a0 W _ZNK12Item_sum_min8sum_funcEv
0810b7b0 W _ZNK12Item_sum_min9func_nameEv
0810b7c0 W _ZNK12Item_sum_max8sum_funcEv
0810b7d0 W _ZNK12Item_sum_max9func_nameEv
0810b7e0 W _ZNK12Item_sum_bit8sum_funcEv
0810b7f0 W _ZN12Item_sum_bit18fix_length_and_decEv
0810b810 W _ZNK11Item_sum_or9func_nameEv
0810b820 W _ZNK12Item_sum_and9func_nameEv
0810b830 W _ZNK12Item_sum_xor9func_nameEv
0810b840 W _ZNK12Item_udf_sum9func_nameEv
0810b860 W _ZNK12Item_udf_sum8sum_funcEv
0810b870 W _ZNK12Item_udf_sum17have_field_updateEv
0810b880 W _ZN12Item_udf_sum11reset_fieldEv
0810b890 W _ZN12Item_udf_sum12update_fieldEv
0810b8a0 W _ZNK16Item_sum_udf_int11result_typeEv
0810b8b0 W _ZN16Item_sum_udf_int18fix_length_and_decEv
0810b8d0 W _ZNK16Item_sum_udf_str11result_typeEv
0810b8e0 W _ZNK20Item_sum_udf_decimal11result_typeEv
0810b8f0 W _ZNK22Item_func_group_concat8sum_funcEv
0810b900 W _ZNK22Item_func_group_concat9func_nameEv
0810b910 W _ZNK22Item_func_group_concat11result_typeEv
0810b920 W _ZNK22Item_func_group_concat10field_typeEv
0810b950 W _ZN22Item_func_group_concat11reset_fieldEv
0810b960 W _ZN22Item_func_group_concat12update_fieldEv
0810b970 W _ZN22Item_func_group_concat17no_rows_in_resultEv
0810b980 W _ZN22Item_func_group_concat24change_context_processorEPc
0810b9a0 W _ZN20Item_sum_udf_decimal18fix_length_and_decEv
0810b9b0 W _ZN18Item_sum_udf_float18fix_length_and_decEv
0810b9c0 W _ZNK31Hybrid_type_traits_fast_decimal4typeEv
0810b9d0 W _ZN8Item_sum7cleanupEv
0810b9f0 W _ZN19Item_variance_field7val_intEv
0810ba30 W _ZN12Item_sum_avg7val_intEv
0810ba70 W _ZN12Item_sum_num7val_intEv
0810bab0 W _ZN19Item_variance_field11val_decimalEP10my_decimal
0810bac0 W _ZN19Item_variance_field7val_strEP6String
0810bad0 W _ZN22Item_func_group_concat11val_decimalEP10my_decimal
0810bae0 W _ZN22Item_func_group_concat8val_realEv
0810bb50 W _ZN31Hybrid_type_traits_fast_decimalD1Ev
0810bb60 W _ZNK31Hybrid_type_traits_fast_decimal18fix_length_and_decEP4ItemS1_
0810bba0 W _ZN16Item_sum_udf_int8val_realEv
0810bbc0 W _ZN18Item_sum_udf_float7val_intEv
0810bc00 W _ZN12Item_udf_sum10fix_fieldsEP3THDPP4Item
0810bc80 W _ZN22Item_func_group_concat7val_intEv
0810bcd0 W _ZN16Item_sum_udf_str7val_intEv
0810bd30 W _ZN16Item_sum_udf_str8val_realEv
0810bd80 W _ZN8Item_sum11result_itemEP5Field
0810bdb0 W _ZN21Item_sum_avg_distinct12copy_or_sameEP3THD
0810bdf0 W _ZN17Item_sum_variance11result_itemEP5Field
0810be20 W _ZN12Item_sum_std11result_itemEP5Field
0810be50 W _ZN12Item_sum_avg11result_itemEP5Field
0810be90 W _ZN31Hybrid_type_traits_fast_decimalD0Ev
0810beb0 W _ZN17Item_sum_variance7cleanupEv
0810bee0 W _ZN12Item_sum_avg7cleanupEv
0810bf10 W _ZN12Item_sum_bit7cleanupEv
0810bf50 W _ZN14Item_std_fieldD0Ev
0810bfa0 W _ZN19Item_variance_fieldD1Ev
0810bff0 W _ZN15Item_sum_hybridD0Ev
0810c0c0 W _ZN8Item_sumD0Ev
0810c110 W _ZN8Item_sumD1Ev
0810c160 W _ZN14Item_std_fieldD1Ev
0810c1b0 W _ZN14Item_avg_fieldD0Ev
0810c200 W _ZN14Item_avg_fieldD1Ev
0810c250 W _ZN19Item_variance_fieldD0Ev
0810c2a0 W _ZN22Item_func_group_concatD0Ev
0810c330 W _ZN15Item_sum_hybridD1Ev
0810c400 W _ZN12Item_udf_sumD0Ev
0810c460 W _ZN12Item_sum_xorD0Ev
0810c4b0 W _ZN22Item_func_group_concatD1Ev
0810c540 W _ZN16Item_sum_udf_intD0Ev
0810c5a0 W _ZN12Item_sum_numD0Ev
0810c5f0 W _ZN16Item_sum_udf_strD0Ev
0810c650 W _ZNK31Hybrid_type_traits_fast_decimal3divEP11Hybrid_typey
0810c6c0 W _ZN12Item_sum_minD0Ev
0810c790 W _ZN12Item_udf_sumD1Ev
0810c7f0 W _ZN12Item_sum_numD1Ev
0810c840 W _ZN12Item_sum_intD1Ev
0810c890 W _ZN12Item_sum_andD0Ev
0810c8e0 W _ZN12Item_sum_sumD0Ev
0810c930 W _ZN17Item_sum_varianceD1Ev
0810c980 W _ZN11Item_sum_orD0Ev
0810c9d0 W _ZN12Item_sum_bitD0Ev
0810ca20 W _ZN12Item_sum_intD0Ev
0810ca70 W _ZN12Item_sum_xorD1Ev
0810cac0 W _ZN21Item_sum_avg_distinctD0Ev
0810cae0 W _ZN21Item_sum_avg_distinctD1Ev
0810cb00 W _ZN14Item_sum_countD1Ev
0810cb50 W _ZN12Item_sum_stdD0Ev
0810cba0 W _ZN12Item_sum_avgD1Ev
0810cbf0 W _ZN12Item_sum_sumD1Ev
0810cc40 W _ZN12Item_sum_bitD1Ev
0810cc90 W _ZN14Item_sum_countD0Ev
0810cce0 W _ZN12Item_sum_avgD0Ev
0810cd30 W _ZN12Item_sum_andD1Ev
0810cd80 W _ZN11Item_sum_orD1Ev
0810cdd0 W _ZN12Item_sum_minD1Ev
0810cea0 W _ZN18Item_sum_udf_floatD1Ev
0810cf00 W _ZN12Item_sum_maxD0Ev
0810cfd0 W _ZN17Item_sum_varianceD0Ev
0810d020 W _ZN12Item_sum_maxD1Ev
0810d0f0 W _ZN12Item_sum_stdD1Ev
0810d140 W _ZN20Item_sum_udf_decimalD0Ev
0810d1a0 W _ZN18Item_sum_udf_floatD0Ev
0810d200 W _ZN20Item_sum_udf_decimalD1Ev
0810d260 W _ZN16Item_sum_udf_strD1Ev
0810d2c0 W _ZN16Item_sum_udf_intD1Ev
0810d320 T _ZN11Cached_itemD2Ev
0810d330 T _ZN16Cached_item_real3cmpEv
0810d380 T _ZN15Cached_item_int3cmpEv
0810d3f0 T _ZN17Cached_item_field3cmpEv
0810d4d0 T _ZN19Cached_item_decimalC1EP4Item
0810d520 T _ZN15Cached_item_strC2EP3THDP4Item
0810d5a0 T _ZN11Cached_itemD1Ev
0810d5b0 T _ZN11Cached_itemD0Ev
0810d5c0 T _ZN15Cached_item_str3cmpEv
0810d670 T _ZN19Cached_item_decimal3cmpEv
0810d710 T _ZN19Cached_item_decimalC2EP4Item
0810d760 T _ZN15Cached_item_strD2Ev
0810d800 T _ZN15Cached_item_strD0Ev
0810d8a0 T _ZN15Cached_item_strD1Ev
0810d940 T _ZN15Cached_item_strC1EP3THDP4Item
0810d9c0 T _Z15new_Cached_itemP3THDP4Item
0810db40 W _ZN4ListI11Cached_itemEC2Ev
0810db60 W _ZN4ListI11Cached_itemEC2ERKS1_
0810db90 W _ZN4ListI11Cached_itemE4headEv
0810dba0 W _ZN4ListI11Cached_itemE8head_refEv
0810dbc0 W _ZN4ListI11Cached_itemE3popEv
0810dbf0 W _ZN4ListI11Cached_itemE6concatEPS1_
0810dc20 W _ZN4ListI11Cached_itemE7disjoinEPS1_
0810dc70 W _ZN4ListI11Cached_itemE7prepandEPS1_
0810dca0 W _ZN4ListI11Cached_itemE15delete_elementsEv
0810dd00 W _ZN13List_iteratorI11Cached_itemEC2ER4ListIS0_E
0810dd20 W _ZN13List_iteratorI11Cached_itemEC2Ev
0810dd50 W _ZN13List_iteratorI11Cached_itemE4initER4ListIS0_E
0810dd70 W _ZN13List_iteratorI11Cached_itemEppEi
0810dd90 W _ZN13List_iteratorI11Cached_itemE7replaceEPS0_
0810ddb0 W _ZN13List_iteratorI11Cached_itemE7replaceER4ListIS0_E
0810de20 W _ZN13List_iteratorI11Cached_itemE6rewindEv
0810de30 W _ZN13List_iteratorI11Cached_itemE6removeEv
0810de90 W _ZN13List_iteratorI11Cached_itemE3refEv
0810dea0 W _ZN13List_iteratorI11Cached_itemE5afterEPS0_
0810df00 W _ZN4ListI11Cached_itemE10push_frontEPS0_
0810df50 W _ZN4ListI11Cached_itemE9push_backEPS0_
0810dfc0 W _ZN4ListI11Cached_itemE9push_backEPS0_P11st_mem_root
0810e030 W _ZN4ListI11Cached_itemEC2ERKS1_P11st_mem_root
0810e0d0 W _ZN16Cached_item_realD0Ev
0810e0f0 W _ZN16Cached_item_realD1Ev
0810e110 W _ZN15Cached_item_intD0Ev
0810e130 W _ZN15Cached_item_intD1Ev
0810e150 W _ZN17Cached_item_fieldD0Ev
0810e170 W _ZN17Cached_item_fieldD1Ev
0810e190 W _ZN19Cached_item_decimalD0Ev
0810e1b0 W _ZN19Cached_item_decimalD1Ev
0810e1d0 W _ZN13List_iteratorI11Cached_itemEC1ER4ListIS0_E
0810e1f0 W _ZN4ListI11Cached_itemEC1Ev
0810e210 W _ZN4ListI11Cached_itemEC1ERKS1_
0810e240 W _ZN13List_iteratorI11Cached_itemEC1Ev
0810e270 W _ZN4ListI11Cached_itemEC1ERKS1_P11st_mem_root
0810e310 T _Z20check_reserved_wordsP13st_lex_string
0810e3a0 T _Z15eval_const_condP4Item
0810e3c0 T _ZN9Item_func4walkEM4ItemFbPcES1_
0810e470 T _ZN9Item_func13traverse_condEPFvPK4ItemPvES3_NS0_14traverse_orderE
0810e540 T _ZN9Item_func18update_used_tablesEv
0810e5f0 T _ZNK9Item_func11used_tablesEv
0810e600 T _ZNK9Item_func15not_null_tablesEv
0810e610 T _ZNK9Item_func2eqEPK4Itemb
0810e740 T _ZN9Item_func22is_expensive_processorEPc
0810e760 T _ZN19Item_func_numhybrid22fix_num_length_and_decEv
0810e770 T _ZN9Item_func17count_only_lengthEv
0810e7c0 T _ZN9Item_func17count_real_lengthEv
0810e870 T _ZN13Item_int_func8val_realEv
0810e8c0 T _ZN14Item_func_num122fix_num_length_and_decEv
0810e8e0 T _ZN19Item_func_numhybrid18fix_length_and_decEv
0810e910 T _ZN14Item_func_plus7real_opEv
0810e970 T _ZN14Item_func_plus6int_opEv
0810e9e0 T _ZN15Item_func_minus7real_opEv
0810ea40 T _ZN15Item_func_minus6int_opEv
0810eab0 T _ZN13Item_func_mul7real_opEv
0810eb10 T _ZN13Item_func_mul6int_opEv
0810ebb0 T _ZN17Item_func_int_div18fix_length_and_decEv
0810ebe0 T _ZN13Item_func_mod16result_precisionEv
0810ec30 T _ZN13Item_func_mod18fix_length_and_decEv
0810ec60 T _ZN13Item_func_neg7real_opEv
0810ec90 T _ZN13Item_func_neg6int_opEv
0810ecc0 T _ZN13Item_func_neg22fix_num_length_and_decEv
0810ece0 T _ZN13Item_func_neg18fix_length_and_decEv
0810ed50 T _ZN13Item_func_abs7real_opEv
0810ed80 T _ZN13Item_func_abs6int_opEv
0810ede0 T _ZN13Item_func_abs18fix_length_and_decEv
0810ee10 T _ZN20Item_func_shift_left7val_intEv
0810eea0 T _ZN21Item_func_shift_right7val_intEv
0810ef30 T _ZN17Item_func_bit_neg7val_intEv
0810ef80 T _ZN17Item_func_ceiling7real_opEv
0810efe0 T _ZN15Item_func_floor7real_opEv
0810f040 T _ZN14Item_func_rand18update_used_tablesEv
0810f070 T _ZN14Item_func_sign7val_intEv
0810f0d0 T _ZN15Item_func_units8val_realEv
0810f110 T _ZN22Item_func_coercibility7val_intEv
0810f130 T _ZN11udf_handler13get_argumentsEv
0810f250 T _ZN19Item_func_udf_float8val_realEv
0810f2d0 T _ZN17Item_func_udf_int7val_intEv
0810f350 T _ZN21Item_func_udf_decimal18fix_length_and_decEv
0810f370 T _ZN17Item_func_udf_str18fix_length_and_decEv
0810f3b0 T _ZN11udf_handlerD1Ev
0810f3c0 T _Z11ull_get_keyPK15User_level_lockPjc
0810f3e0 T _ZN26Item_user_var_as_out_param8val_realEv
0810f3f0 T _ZN26Item_user_var_as_out_param7val_intEv
0810f400 T _ZN26Item_user_var_as_out_param7val_strEP6String
0810f410 T _ZN26Item_user_var_as_out_param11val_decimalEP10my_decimal
0810f420 T _ZNK15Item_func_match2eqEPK4Itemb
0810f4c0 T _ZN17Item_func_bit_xor7val_intEv
0810f530 T _ZN12Item_func_sp10make_fieldEP10Send_field
0810f550 T _ZNK12Item_func_sp10field_typeEv
0810f570 T _ZNK12Item_func_sp11result_typeEv
0810f590 T _ZN12Item_func_sp15tmp_table_fieldEP8st_table
0810f5a0 T _ZN12Item_func_sp18update_used_tablesEv
0810f5e0 T _ZN12Item_func_sp7cleanupEv
0810f630 T _ZN22Item_func_set_user_var10make_fieldEP10Send_field
0810f690 T _ZN12Item_func_sp15sp_check_accessEP3THD
0810f6e0 T _ZN24Item_func_last_insert_id7val_intEv
0810f760 T _ZN12Item_func_sp12execute_implEP3THD
0810f810 T _ZN15Item_func_match9fix_indexEv
0810faf0 T _ZN12Item_func_sp17init_result_fieldEP3THD
0810fc50 T _ZN9Item_func13set_argumentsER4ListI4ItemE
0810fce0 T _ZN18Item_func_unsigned5printEP6String
0810fd40 T _ZN16Item_func_signed5printEP6String
0810fda0 T _ZN21Item_func_char_length7val_intEv
0810fdf0 T _ZN24Item_func_get_system_var10fix_fieldsEP3THDPP4Item
08110000 T _ZNK22Item_func_get_user_var2eqEPK4Itemb
08110080 T _ZN19Item_func_udf_float7val_strEP6String
081100e0 T _ZN14Item_real_func7val_strEP6String
08110140 T _ZN17Item_func_udf_int7val_strEP6String
081101d0 T _ZN13Item_int_func7val_strEP6String
08110260 T _ZN14user_var_entry7val_strEPcP6Stringj
08110390 T _ZN22Item_func_get_user_var7val_strEP6String
081103d0 T _ZN14user_var_entry8val_realEPc
08110450 T _ZN22Item_func_get_user_var8val_realEv
08110480 T _Z22item_user_lock_releaseP15User_level_lock
081104f0 T _Z19item_user_lock_freev
08110530 T _Z19item_user_lock_initv
08110590 T _ZN9Item_func10fix_fieldsEP3THDPP4Item
08110780 T _ZN12Item_func_sp10fix_fieldsEP3THDPP4Item
08110850 T _ZN15Item_func_match10fix_fieldsEP3THDPP4Item
08110a20 T _ZN24Item_func_last_insert_id10fix_fieldsEP3THDPP4Item
08110ae0 T _ZN23Item_func_connection_id10fix_fieldsEP3THDPP4Item
08110b40 T _ZN11udf_handler10fix_fieldsEP3THDP17Item_result_fieldjPP4Item
08111130 T _ZN19Item_func_bit_count7val_intEv
08111190 T _ZN17Item_func_min_max13cmp_datetimesEPy
081112e0 T _ZN17Item_func_min_max7val_intEv
08111430 T _ZN17Item_func_min_max8val_realEv
08111550 T _ZN14Item_func_rand8val_realEv
08111570 T _ZN13Item_func_pow8val_realEv
081115e0 T _Z15my_double_rounddxbb
08111800 T _ZN15Item_func_round7real_opEv
08111890 T _ZN14Item_func_acos8val_realEv
08111920 T _ZN14Item_func_sqrt8val_realEv
08111990 T _ZN13Item_func_exp8val_realEv
081119d0 T _ZN9Item_func18get_tmp_table_itemEP3THD
08111a50 T _ZN9Item_func14split_sum_funcEP3THDPP4ItemR4ListIS2_E
08111ab0 T _ZN9Item_funcC2EP3THDPS_
08111b90 T _ZN15Item_func_ascii7val_intEv
08111bf0 T _ZN16Item_func_length7val_intEv
08111c30 T _ZN15Item_func_field7val_intEv
08111ea0 T _ZN13Item_func_neg10decimal_opEP10my_decimal
08111f30 T _ZN21Item_decimal_typecast7val_strEP6String
08111fb0 T _ZN22Item_func_is_used_lock7val_intEv
08112040 T _ZN22Item_func_is_free_lock7val_intEv
081120e0 T _ZN15Item_func_match8val_realEv
081121f0 T _ZN21Item_func_find_in_set7val_intEv
081123a0 T _ZN16Item_func_locate7val_intEv
08112540 T _ZN19Item_func_numhybrid8val_realEv
08112660 T _ZN17Item_func_int_val13find_num_typeEv
081126f0 T _ZN17Item_func_int_val22fix_num_length_and_decEv
08112740 T _ZN17Item_func_integer18fix_length_and_decEv
08112780 T _ZN14Item_func_num113find_num_typeEv
081127e0 T _ZN11Item_num_op13find_num_typeEv
08112890 T _ZN9Item_func22fix_num_length_and_decEv
08112910 T _ZN15Item_func_round18fix_length_and_decEv
08112b50 T _ZN13Item_func_div16result_precisionEv
08112c20 T _ZN13Item_func_mul16result_precisionEv
08112d20 T _ZN21Item_func_additive_op16result_precisionEv
08112e50 T _ZN22Item_func_set_user_var18fix_length_and_decEv
08112ea0 T _ZN11udf_handlerD2Ev
08112eb0 T _ZN17Item_func_min_max7val_strEP6String
08113110 T _ZN13Item_func_ord7val_intEv
081131d0 T _ZN12Item_func_sp18fix_length_and_decEv
08113240 T _ZN15Item_func_round6int_opEv
08113420 T _ZN21Item_decimal_typecast8val_realEv
08113470 T _ZN14Item_func_rand10fix_fieldsEP3THDPP4Item
081135b0 T _ZN17Item_func_min_max11val_decimalEP10my_decimal
08113710 T _ZN9Item_funcC1EP3THDPS_
081137f0 T _ZN23Item_func_connection_id18fix_length_and_decEv
08113800 T _ZN9Item_func15tmp_table_fieldEP8st_table
08113ab0 T _ZN22Item_func_set_user_var5checkEb
08113c10 T _ZN13Item_func_abs10decimal_opEP10my_decimal
08113ca0 T _ZN9Item_funcC1ER4ListI4ItemE
08113cf0 T _ZN9Item_funcC2ER4ListI4ItemE
08113d40 T _ZN15Item_func_floor10decimal_opEP10my_decimal
08113de0 T _ZN14user_var_entry7val_intEPc
08113f00 T _ZN22Item_func_get_user_var7val_intEv
08113f30 T _ZN17Item_func_ceiling10decimal_opEP10my_decimal
08113fd0 T _ZN24Item_func_get_system_varC1EP7sys_var13enum_var_typeP13st_lex_stringPKcj
08114070 T _ZN24Item_func_get_system_varC2EP7sys_var13enum_var_typeP13st_lex_stringPKcj
08114110 T _ZN9Item_func20count_decimal_lengthEv
08114200 T _ZN13Item_func_tan8val_realEv
08114270 T _ZN13Item_func_sin8val_realEv
081142e0 T _ZN13Item_func_cos8val_realEv
08114350 T _ZN14Item_func_atan8val_realEv
08114420 T _ZN14Item_func_asin8val_realEv
081144b0 T _ZN15Item_func_match11init_searchEb
08114810 T _ZN11udf_handler7cleanupEv
081148c0 T _ZN13Item_udf_func7cleanupEv
081148e0 T _ZN9Item_func9transformEM4ItemFPS0_PcES2_
081149e0 T _ZN16Item_func_signed16val_int_from_strEPi
08114bb0 T _ZN16Item_func_signed7val_intEv
08114c70 T _ZN9Item_func21signal_divide_by_nullEv
08114cc0 T _ZN15Item_func_log108val_realEv
08114d30 T _ZN14Item_func_log28val_realEv
08114da0 T _ZN13Item_func_log8val_realEv
08114e60 T _ZN12Item_func_ln8val_realEv
08114ed0 T _ZN13Item_func_mod7real_opEv
08114f60 T _ZN13Item_func_mod6int_opEv
08115020 T _ZN17Item_func_int_div7val_intEv
081150e0 T _ZN13Item_func_div7real_opEv
08115160 T _ZN9Item_func7compileEM4ItemFbPPcES2_MS0_FPS0_S1_ES1_
081152c0 T _ZNK22Item_func_get_user_var11result_typeEv
08115320 T _ZNK22Item_func_get_user_var10const_itemEv
08115380 T _ZN22Item_func_set_user_var11update_hashEPvj11Item_resultP15charset_info_st10Derivationb
08115430 T _ZN22Item_func_set_user_var6updateEv
081155c0 T _ZN22Item_func_get_user_var9set_valueEP3THDP11sp_rcontextPP4Item
081156c0 T _ZN22Item_func_set_user_var4sendEP8ProtocolP6String
08115730 T _ZN22Item_func_set_user_var10str_resultEP6String
08115780 T _ZN22Item_func_set_user_var14val_int_resultEv
081157c0 T _ZN22Item_func_set_user_var10val_resultEv
08115800 T _ZN22Item_func_set_user_var7val_strEP6String
08115850 T _ZN22Item_func_set_user_var7val_intEv
08115890 T _ZN22Item_func_set_user_var8val_realEv
081159f0 T _ZN26Item_user_var_as_out_param10fix_fieldsEP3THDPP4Item
08115a90 T _ZN22Item_func_set_user_var10fix_fieldsEP3THDPP4Item
08115b90 T _ZN15Item_func_sleep7val_intEv
08115d70 T _ZN20Item_func_found_rows7val_intEv
08115da0 T _ZN12Item_func_sp7executeEv
08115e70 T _ZN12Item_func_spC1EP23Name_resolution_contextP7sp_nameR4ListI4ItemE
08115ef0 T _ZN12Item_func_spC2EP23Name_resolution_contextP7sp_nameR4ListI4ItemE
08115f70 T _ZN12Item_func_spC1EP23Name_resolution_contextP7sp_name
08116000 T _ZN12Item_func_spC2EP23Name_resolution_contextP7sp_name
08116090 T _ZN19Item_func_row_count7val_intEv
081160c0 T _ZN26Item_user_var_as_out_param9set_valueEPKcjP15charset_info_st
08116120 T _ZN26Item_user_var_as_out_param14set_null_valueEP15charset_info_st
08116180 T _ZN22Item_func_release_lock7val_intEv
08116260 T _ZN20Item_master_pos_wait7val_intEv
08116330 T _ZN17Item_func_min_max18fix_length_and_decEv
08116580 T _ZN13Item_func_div18fix_length_and_decEv
08116660 T _ZN15Item_func_minus18fix_length_and_decEv
081166a0 T _ZN21Item_decimal_typecast11val_decimalEP10my_decimal
08116810 T _ZN11udf_handler7val_strEP6StringS1_
08116910 T _ZN17Item_func_udf_str7val_strEP6String
08116940 T _Z14get_system_varP3THD13enum_var_type13st_lex_stringS2_
08116a60 T _ZN19Item_func_numhybrid7val_strEP6String
08116bf0 T _ZN15Item_func_round10decimal_opEP10my_decimal
08116d10 T _ZN21Item_func_find_in_set18fix_length_and_decEv
08116e30 T _ZN15Item_func_field18fix_length_and_decEv
08116ef0 T _ZN16Item_func_locate18fix_length_and_decEv
08116f50 T _ZN9Item_func11val_decimalEP10my_decimal
08116fc0 T _Z19get_var_with_binlogP3THD16enum_sql_commandR13st_lex_stringPP14user_var_entry
081173a0 T _ZN22Item_func_get_user_var18fix_length_and_decEv
081174d0 T _ZN18Item_func_get_lock7val_intEv
081178e0 T _ZN13Item_func_div10decimal_opEP10my_decimal
081179f0 T _ZN13Item_func_mul10decimal_opEP10my_decimal
08117af0 T _ZN15Item_func_minus10decimal_opEP10my_decimal
08117bf0 T _ZN14Item_func_plus10decimal_opEP10my_decimal
08117cf0 T _ZN14Item_real_func11val_decimalEP10my_decimal
08117d80 T _ZN11udf_handler11val_decimalEPcP10my_decimal
08117e80 T _ZN21Item_func_udf_decimal7val_strEP6String
08117f50 T _ZN21Item_func_udf_decimal11val_decimalEP10my_decimal
08117f80 T _ZN21Item_func_udf_decimal8val_realEv
08117fe0 T _ZN13Item_func_mod10decimal_opEP10my_decimal
081180f0 T _ZN19Item_func_inet_aton7val_intEv
08118250 T _ZN19Item_func_benchmark7val_intEv
08118370 T _ZN14user_var_entry11val_decimalEPcP10my_decimal
081184a0 T _ZN22Item_func_get_user_var11val_decimalEP10my_decimal
081184d0 T _ZN22Item_func_set_user_var13save_in_fieldEP5Fieldbb
081187c0 T _ZN22Item_func_set_user_var18val_decimal_resultEP10my_decimal
08118810 T _ZN22Item_func_set_user_var11val_decimalEP10my_decimal
08118850 T _ZN19Item_func_numhybrid11val_decimalEP10my_decimal
081189c0 T _ZN26Item_user_var_as_out_param5printEP6String
08118a30 T _ZN22Item_func_get_user_var5printEP6String
08118ac0 T _ZN22Item_func_set_user_var13print_as_stmtEP6String
08118b80 T _ZN22Item_func_set_user_var5printEP6String
08118c40 T _ZNK12Item_func_sp9func_nameEv
08118d80 T _ZN19Item_func_benchmark5printEP6String
08118ea0 T _ZN13Item_udf_func5printEP6String
08118fc0 T _ZN16Item_func_locate5printEP6String
081190e0 T _ZN21Item_decimal_typecast5printEP6String
08119270 T _ZN9Item_func8print_opEP6String
081193f0 T _ZN9Item_func10print_argsEP6Stringj
08119480 T _ZN15Item_func_match5printEP6String
08119550 T _ZN9Item_func5printEP6String
08119600 T _ZN21Item_func_udf_decimal7val_intEv
081196d0 T _ZN15Item_func_floor6int_opEv
08119800 T _ZN17Item_func_ceiling6int_opEv
08119930 T _ZN21Item_decimal_typecast7val_intEv
081199f0 T _ZN18Item_func_unsigned7val_intEv
08119b50 T _ZN19Item_func_numhybrid7val_intEv
08119cf0 W _ZNK9Item_func4typeEv
08119d00 W _ZNK9Item_func8functypeEv
08119d10 W _ZNK9Item_func15select_optimizeEv
08119d20 W _ZNK9Item_func13have_rev_funcEv
08119d30 W _ZNK9Item_func8key_itemEv
08119d40 W _ZNK9Item_func10const_itemEv
08119d50 W _ZN9Item_func7is_nullEv
08119d80 W _ZN9Item_func12is_expensiveEv
08119d90 W _ZNK14Item_real_func11result_typeEv
08119da0 W _ZN14Item_real_func18fix_length_and_decEv
08119dc0 W _ZNK19Item_func_numhybrid11result_typeEv
08119dd0 W _ZN19Item_func_numhybrid7is_nullEv
08119e00 W _ZN14Item_func_num16str_opEP6String
08119e10 W _ZN11Item_num_op6str_opEP6String
08119e20 W _ZNK13Item_int_func11result_typeEv
08119e30 W _ZN13Item_int_func18fix_length_and_decEv
08119e40 W _ZNK23Item_func_connection_id9func_nameEv
08119e50 W _ZN23Item_func_connection_id7val_intEv
08119e60 W _ZNK16Item_func_signed9func_nameEv
08119e70 W _ZN16Item_func_signed18fix_length_and_decEv
08119e90 W _ZNK16Item_func_signed17decimal_precisionEv
08119eb0 W _ZNK18Item_func_unsigned9func_nameEv
08119ec0 W _ZN18Item_func_unsigned18fix_length_and_decEv
08119ee0 W _ZNK21Item_decimal_typecast11result_typeEv
08119ef0 W _ZNK21Item_decimal_typecast10field_typeEv
08119f00 W _ZN21Item_decimal_typecast18fix_length_and_decEv
08119f10 W _ZNK21Item_decimal_typecast9func_nameEv
08119f20 W _ZNK14Item_func_plus9func_nameEv
08119f30 W _ZNK15Item_func_minus9func_nameEv
08119f40 W _ZNK13Item_func_mul9func_nameEv
08119f50 W _ZN13Item_func_div6int_opEv
08119f60 W _ZNK13Item_func_div9func_nameEv
08119f70 W _ZNK17Item_func_int_div9func_nameEv
08119f80 W _ZNK13Item_func_mod9func_nameEv
08119f90 W _ZNK13Item_func_neg9func_nameEv
08119fa0 W _ZNK13Item_func_neg17decimal_precisionEv
08119fc0 W _ZNK13Item_func_abs9func_nameEv
08119fd0 W _ZNK13Item_func_exp9func_nameEv
08119fe0 W _ZNK12Item_func_ln9func_nameEv
08119ff0 W _ZNK13Item_func_log9func_nameEv
0811a000 W _ZNK14Item_func_log29func_nameEv
0811a010 W _ZNK15Item_func_log109func_nameEv
0811a020 W _ZNK14Item_func_sqrt9func_nameEv
0811a030 W _ZNK13Item_func_pow9func_nameEv
0811a040 W _ZNK14Item_func_acos9func_nameEv
0811a050 W _ZNK14Item_func_asin9func_nameEv
0811a060 W _ZNK14Item_func_atan9func_nameEv
0811a070 W _ZNK13Item_func_cos9func_nameEv
0811a080 W _ZNK13Item_func_sin9func_nameEv
0811a090 W _ZNK13Item_func_tan9func_nameEv
0811a0a0 W _ZNK17Item_func_ceiling9func_nameEv
0811a0b0 W _ZNK15Item_func_floor9func_nameEv
0811a0c0 W _ZNK15Item_func_round9func_nameEv
0811a0e0 W _ZNK14Item_func_rand9func_nameEv
0811a0f0 W _ZNK14Item_func_rand10const_itemEv
0811a100 W _ZNK14Item_func_sign9func_nameEv
0811a110 W _ZNK15Item_func_units9func_nameEv
0811a120 W _ZNK17Item_func_min_max11result_typeEv
0811a130 W _ZN17Item_func_min_max18result_as_longlongEv
0811a140 W _ZNK16Item_func_length9func_nameEv
0811a150 W _ZN16Item_func_length18fix_length_and_decEv
0811a160 W _ZNK21Item_func_char_length9func_nameEv
0811a170 W _ZN21Item_func_char_length18fix_length_and_decEv
0811a180 W _ZNK22Item_func_coercibility9func_nameEv
0811a190 W _ZN22Item_func_coercibility18fix_length_and_decEv
0811a1b0 W _ZNK22Item_func_coercibility15not_null_tablesEv
0811a1c0 W _ZNK16Item_func_locate9func_nameEv
0811a1d0 W _ZNK15Item_func_field9func_nameEv
0811a1e0 W _ZNK15Item_func_ascii9func_nameEv
0811a1f0 W _ZN15Item_func_ascii18fix_length_and_decEv
0811a200 W _ZNK13Item_func_ord9func_nameEv
0811a210 W _ZNK21Item_func_find_in_set9func_nameEv
0811a220 W _ZN13Item_func_bit18fix_length_and_decEv
0811a230 W _ZNK19Item_func_bit_count9func_nameEv
0811a240 W _ZN19Item_func_bit_count18fix_length_and_decEv
0811a250 W _ZNK20Item_func_shift_left9func_nameEv
0811a260 W _ZNK21Item_func_shift_right9func_nameEv
0811a270 W _ZNK17Item_func_bit_neg9func_nameEv
0811a280 W _ZNK24Item_func_last_insert_id9func_nameEv
0811a290 W _ZN24Item_func_last_insert_id18fix_length_and_decEv
0811a2b0 W _ZNK19Item_func_benchmark9func_nameEv
0811a2c0 W _ZN19Item_func_benchmark18fix_length_and_decEv
0811a2e0 W _ZNK15Item_func_sleep10const_itemEv
0811a2f0 W _ZNK15Item_func_sleep9func_nameEv
0811a300 W _ZNK13Item_udf_func9func_nameEv
0811a320 W _ZNK13Item_udf_func8functypeEv
0811a330 W _ZNK13Item_udf_func11result_typeEv
0811a350 W _ZNK13Item_udf_func15not_null_tablesEv
0811a360 W _ZN13Item_udf_func12is_expensiveEv
0811a370 W _ZN19Item_func_udf_float18fix_length_and_decEv
0811a390 W _ZNK17Item_func_udf_int11result_typeEv
0811a3a0 W _ZN17Item_func_udf_int18fix_length_and_decEv
0811a3c0 W _ZNK21Item_func_udf_decimal11result_typeEv
0811a3d0 W _ZNK17Item_func_udf_str11result_typeEv
0811a3e0 W _ZNK18Item_func_get_lock9func_nameEv
0811a3f0 W _ZN18Item_func_get_lock18fix_length_and_decEv
0811a410 W _ZNK22Item_func_release_lock9func_nameEv
0811a420 W _ZN22Item_func_release_lock18fix_length_and_decEv
0811a440 W _ZNK20Item_master_pos_wait9func_nameEv
0811a450 W _ZN20Item_master_pos_wait18fix_length_and_decEv
0811a470 W _ZNK22Item_func_set_user_var8functypeEv
0811a480 W _ZNK22Item_func_set_user_var11result_typeEv
0811a490 W _ZNK22Item_func_set_user_var9func_nameEv
0811a4a0 W _ZNK22Item_func_get_user_var8functypeEv
0811a4b0 W _ZNK22Item_func_get_user_var10field_typeEv
0811a4c0 W _ZNK22Item_func_get_user_var9func_nameEv
0811a4d0 W _ZNK22Item_func_get_user_var11used_tablesEv
0811a500 W _ZN22Item_func_get_user_var30get_settable_routine_parameterEv
0811a510 W _ZNK26Item_user_var_as_out_param4typeEv
0811a520 W _ZN24Item_func_get_system_var8val_realEv
0811a530 W _ZN24Item_func_get_system_var7val_intEv
0811a540 W _ZN24Item_func_get_system_var7val_strEP6String
0811a550 W _ZN24Item_func_get_system_var18fix_length_and_decEv
0811a560 W _ZNK24Item_func_get_system_var9func_nameEv
0811a570 W _ZNK19Item_func_inet_aton9func_nameEv
0811a580 W _ZN19Item_func_inet_aton18fix_length_and_decEv
0811a5a0 W _ZNK15Item_func_match8functypeEv
0811a5b0 W _ZNK15Item_func_match9func_nameEv
0811a5c0 W _ZN15Item_func_match18update_used_tablesEv
0811a5d0 W _ZNK15Item_func_match15not_null_tablesEv
0811a5e0 W _ZN15Item_func_match7val_intEv
0811a610 W _ZNK17Item_func_bit_xor9func_nameEv
0811a620 W _ZNK22Item_func_is_free_lock9func_nameEv
0811a630 W _ZN22Item_func_is_free_lock18fix_length_and_decEv
0811a650 W _ZNK22Item_func_is_used_lock9func_nameEv
0811a660 W _ZN22Item_func_is_used_lock18fix_length_and_decEv
0811a680 W _ZNK19Item_func_row_count9func_nameEv
0811a690 W _ZN19Item_func_row_count18fix_length_and_decEv
0811a6a0 W _ZN12Item_func_sp24change_context_processorEPc
0811a6b0 W _ZNK12Item_func_sp8functypeEv
0811a6c0 W _ZN12Item_func_sp12is_expensiveEv
0811a6d0 W _ZNK20Item_func_found_rows9func_nameEv
0811a6e0 W _ZN20Item_func_found_rows18fix_length_and_decEv
0811a6f0 W _ZN12set_var_baseD1Ev
0811a700 W _ZN12set_var_base11light_checkEP3THD
0811a710 W _ZN12set_var_base19no_support_one_shotEv
0811a720 W _ZN15Item_func_sleep18update_used_tablesEv
0811a750 W _ZN17Item_func_udf_int8val_realEv
0811a770 W _ZN15Item_func_match7cleanupEv
0811a7c0 W _ZN19Item_func_udf_float7val_intEv
0811a800 W _ZN14Item_real_func7val_intEv
0811a840 W _ZN17Item_func_udf_str11val_decimalEP10my_decimal
0811a8a0 W _ZN13Item_udf_func10fix_fieldsEP3THDPP4Item
0811a900 W _ZN17Item_func_udf_str7val_intEv
0811a960 W _ZN17Item_func_udf_str8val_realEv
0811a9b0 W _ZN15Item_func_units18fix_length_and_decEv
0811a9d0 W _ZN13Item_dec_func18fix_length_and_decEv
0811a9f0 W _ZN12set_var_baseD0Ev
0811aa00 W _ZN26Item_user_var_as_out_paramD1Ev
0811aa50 W _ZThn120_N22Item_func_get_user_var9set_valueEP3THDP11sp_rcontextPP4Item
0811aa60 W _ZN12Item_func_sp11val_decimalEP10my_decimal
0811aab0 W _ZN12Item_func_sp8val_realEv
0811aaf0 W _ZN12Item_func_sp7val_intEv
0811ab30 W _ZN12Item_func_sp7val_strEP6String
0811abc0 W _ZN19Item_func_udf_float11val_decimalEP10my_decimal
0811ac50 W _ZN22Item_func_set_user_var17save_org_in_fieldEP5Field
0811ac80 W _ZN22Item_func_set_user_var13save_in_fieldEP5Fieldb
0811acb0 W _ZN12Item_func_lnD0Ev
0811ad00 W _ZN9Item_funcD0Ev
0811ad50 W _ZN14Item_func_atanD1Ev
0811ada0 W _ZN26Item_user_var_as_out_paramD0Ev
0811adf0 W _ZN21Item_decimal_typecastD0Ev
0811ae40 W _ZN9Item_funcD1Ev
0811ae90 W _ZN13Item_func_logD0Ev
0811aee0 W _ZN21Item_decimal_typecastD1Ev
0811af30 W _ZN13Item_func_tanD1Ev
0811af80 W _ZN12Item_func_spD0Ev
0811afd0 W _ZN13Item_func_logD1Ev
0811b020 W _ZThn120_N22Item_func_get_user_varD0Ev
0811b030 W _ZN22Item_func_get_user_varD0Ev
0811b090 W _ZN14Item_func_sqrtD1Ev
0811b0e0 W _ZN14Item_real_funcD1Ev
0811b130 W _ZN13Item_func_powD0Ev
0811b180 W _ZN13Item_func_sinD1Ev
0811b1d0 W _ZN14Item_func_acosD0Ev
0811b220 W _ZN13Item_func_expD1Ev
0811b270 W _ZN14Item_func_log2D0Ev
0811b2c0 W _ZN14Item_func_atanD0Ev
0811b310 W _ZN13Item_func_expD0Ev
0811b360 W _ZN15Item_func_log10D0Ev
0811b3b0 W _ZN13Item_func_cosD0Ev
0811b400 W _ZN13Item_func_tanD0Ev
0811b450 W _ZN15Item_func_log10D1Ev
0811b4a0 W _ZN14Item_func_log2D1Ev
0811b4f0 W _ZN14Item_func_asinD1Ev
0811b540 W _ZN13Item_func_powD1Ev
0811b590 W _ZN14Item_func_asinD0Ev
0811b5e0 W _ZN14Item_func_acosD1Ev
0811b630 W _ZN13Item_func_cosD1Ev
0811b680 W _ZN13Item_func_sinD0Ev
0811b6d0 W _ZN22Item_func_set_user_varD0Ev
0811b760 W _ZN17Item_func_udf_strD1Ev
0811b7b0 W _ZN24Item_func_get_system_varD0Ev
0811b800 W _ZN17Item_func_bit_negD0Ev
0811b850 W _ZN22Item_func_set_user_varD1Ev
0811b8e0 W _ZN13Item_udf_funcD0Ev
0811b930 W _ZThn120_N22Item_func_get_user_varD1Ev
0811b940 W _ZN22Item_func_get_user_varD1Ev
0811b9a0 W _ZN13Item_udf_funcD1Ev
0811b9f0 W _ZN12Item_func_spD1Ev
0811ba40 W _ZN19Item_func_numhybridD0Ev
0811ba90 W _ZN19Item_func_numhybridD1Ev
0811bae0 W _ZN24Item_func_get_system_varD1Ev
0811bb30 W _ZN15Item_func_unitsD0Ev
0811bb80 W _ZN14Item_real_funcD0Ev
0811bbd0 W _ZN18Item_func_unsignedD1Ev
0811bc20 W _ZN13Item_int_funcD1Ev
0811bc70 W _ZN17Item_func_min_maxD1Ev
0811bd00 W _ZN17Item_func_min_maxD0Ev
0811bd90 W _ZN11Item_num_opD0Ev
0811bde0 W _ZN13Item_int_funcD0Ev
0811be30 W _ZN16Item_func_lengthD0Ev
0811bec0 W _ZN16Item_func_signedD0Ev
0811bf10 W _ZN16Item_func_signedD1Ev
0811bf60 W _ZN22Item_func_is_used_lockD1Ev
0811bff0 W _ZN23Item_func_connection_idD0Ev
0811c040 W _ZN13Item_func_bit5printEP6String
0811c050 W _ZN17Item_func_int_div5printEP6String
0811c060 W _ZN11Item_num_op5printEP6String
0811c070 W _ZN17Item_func_bit_neg5printEP6String
0811c080 W _ZN21Item_func_char_lengthD1Ev
0811c110 W _ZN16Item_func_lengthD1Ev
0811c1a0 W _ZN20Item_master_pos_waitD1Ev
0811c230 W _ZN23Item_func_connection_idD1Ev
0811c280 W _ZN20Item_func_found_rowsD1Ev
0811c2d0 W _ZN15Item_func_asciiD1Ev
0811c360 W _ZN19Item_func_benchmarkD1Ev
0811c3b0 W _ZN17Item_func_integerD1Ev
0811c400 W _ZN19Item_func_row_countD1Ev
0811c450 W _ZN16Item_func_locateD1Ev
0811c510 W _ZN22Item_func_release_lockD1Ev
0811c5a0 W _ZN17Item_func_int_divD1Ev
0811c5f0 W _ZN13Item_func_bitD1Ev
0811c640 W _ZN21Item_func_find_in_setD1Ev
0811c700 W _ZN19Item_func_inet_atonD1Ev
0811c750 W _ZN14Item_func_signD1Ev
0811c7a0 W _ZN19Item_func_row_countD0Ev
0811c7f0 W _ZN22Item_func_coercibilityD1Ev
0811c840 W _ZN18Item_func_get_lockD1Ev
0811c8d0 W _ZN17Item_func_int_divD0Ev
0811c920 W _ZN13Item_func_bitD0Ev
0811c970 W _ZN13Item_func_ordD1Ev
0811ca00 W _ZN15Item_func_sleepD1Ev
0811ca50 W _ZN14Item_func_signD0Ev
0811caa0 W _ZN20Item_func_found_rowsD0Ev
0811caf0 W _ZN15Item_func_fieldD1Ev
0811cbb0 W _ZN24Item_func_last_insert_idD1Ev
0811cc00 W _ZN17Item_func_integerD0Ev
0811cc50 W _ZN17Item_func_bit_xorD0Ev
0811cca0 W _ZN19Item_func_bit_countD1Ev
0811ccf0 W _ZN22Item_func_is_free_lockD1Ev
0811cd80 W _ZN21Item_func_char_lengthD0Ev
0811ce10 W _ZN18Item_func_get_lockD0Ev
0811cea0 W _ZN22Item_func_coercibilityD0Ev
0811cef0 W _ZN15Item_func_sleepD0Ev
0811cf40 W _ZN13Item_func_ordD0Ev
0811cfd0 W _ZN24Item_func_last_insert_idD0Ev
0811d020 W _ZN15Item_func_fieldD0Ev
0811d0e0 W _ZN22Item_func_is_free_lockD0Ev
0811d170 W _ZN19Item_func_bit_countD0Ev
0811d1c0 W _ZN22Item_func_release_lockD0Ev
0811d250 W _ZN16Item_func_locateD0Ev
0811d310 W _ZN19Item_func_inet_atonD0Ev
0811d360 W _ZN21Item_func_find_in_setD0Ev
0811d420 W _ZN19Item_func_benchmarkD0Ev
0811d470 W _ZN15Item_func_asciiD0Ev
0811d500 W _ZN22Item_func_is_used_lockD0Ev
0811d590 W _ZN20Item_master_pos_waitD0Ev
0811d620 W _ZN18Item_func_unsignedD0Ev
0811d670 W _ZN20Item_func_shift_leftD1Ev
0811d6c0 W _ZN21Item_func_shift_rightD0Ev
0811d710 W _ZN21Item_func_shift_rightD1Ev
0811d760 W _ZN20Item_func_shift_leftD0Ev
0811d7b0 W _ZN17Item_func_bit_xorD1Ev
0811d800 W _ZN19Item_func_udf_floatD0Ev
0811d850 W _ZN17Item_func_bit_negD1Ev
0811d8a0 W _ZN19Item_func_udf_floatD1Ev
0811d8f0 W _ZN17Item_func_udf_intD0Ev
0811d940 W _ZN13Item_func_mulD0Ev
0811d990 W _ZN11Item_num_opD1Ev
0811d9e0 W _ZN15Item_func_unitsD1Ev
0811da30 W _ZN13Item_func_negD0Ev
0811da80 W _ZN14Item_func_randD1Ev
0811dad0 W _ZN17Item_func_udf_strD0Ev
0811db20 W _ZN21Item_func_udf_decimalD1Ev
0811db70 W _ZN14Item_func_num1D0Ev
0811dbc0 W _ZN14Item_func_num1D1Ev
0811dc10 W _ZN13Item_func_mulD1Ev
0811dc60 W _ZN17Item_func_udf_intD1Ev
0811dcb0 W _ZN21Item_func_udf_decimalD0Ev
0811dd00 W _ZN15Item_func_floorD0Ev
0811dd50 W _ZN15Item_func_roundD0Ev
0811dda0 W _ZN15Item_func_floorD1Ev
0811ddf0 W _ZN15Item_func_minusD0Ev
0811de40 W _ZN15Item_func_matchD0Ev
0811df10 W _ZN13Item_func_negD1Ev
0811df60 W _ZN14Item_func_plusD0Ev
0811dfb0 W _ZN21Item_func_additive_opD0Ev
0811e000 W _ZN17Item_func_ceilingD0Ev
0811e050 W _ZN13Item_func_absD0Ev
0811e0a0 W _ZN13Item_func_modD1Ev
0811e0f0 W _ZN13Item_func_absD1Ev
0811e140 W _ZN17Item_func_ceilingD1Ev
0811e190 W _ZN13Item_dec_funcD1Ev
0811e1e0 W _ZN17Item_func_int_valD0Ev
0811e230 W _ZN21Item_func_additive_opD1Ev
0811e280 W _ZN13Item_func_divD1Ev
0811e2d0 W _ZN14Item_func_plusD1Ev
0811e320 W _ZN15Item_func_roundD1Ev
0811e370 W _ZN13Item_func_divD0Ev
0811e3c0 W _ZN15Item_func_matchD1Ev
0811e490 W _ZN13Item_dec_funcD0Ev
0811e4e0 W _ZN14Item_func_randD0Ev
0811e530 W _ZN17Item_func_int_valD1Ev
0811e580 W _ZN14Item_func_sqrtD0Ev
0811e5d0 W _ZN15Item_func_minusD1Ev
0811e620 W _ZN13Item_func_modD0Ev
0811e670 W _ZN12Item_func_lnD1Ev
0811e8c0 T _ZN13Item_func_not7val_intEv
0811e900 T _ZN17Item_func_not_all25empty_underlying_subqueryEv
0811e940 T _ZN17Item_func_not_all7val_intEv
0811e9a0 T _ZN17Item_func_nop_all7val_intEv
0811ea10 T _ZN14Arg_comparator16compare_datetimeEv
0811eb20 T _ZN14Arg_comparator12compare_realEv
0811eba0 T _ZN14Arg_comparator14compare_e_realEv
0811ec20 T _ZN14Arg_comparator18compare_real_fixedEv
0811ecd0 T _ZN14Arg_comparator18compare_int_signedEv
0811ed50 T _ZN14Arg_comparator20compare_int_unsignedEv
0811edd0 T _ZN14Arg_comparator27compare_int_signed_unsignedEv
0811ee70 T _ZN14Arg_comparator27compare_int_unsigned_signedEv
0811ef00 T _ZN14Arg_comparator13compare_e_intEv
0811ef80 T _ZN14Arg_comparator29compare_e_int_diff_signednessEv
0811f010 T _ZN15Item_func_truth18fix_length_and_decEv
0811f030 T _ZN15Item_func_truth8val_boolEv
0811f080 T _ZN15Item_func_truth7val_intEv
0811f0a0 T _ZN17Item_in_optimizer20keep_top_level_cacheEv
0811f0c0 T _ZN17Item_in_optimizer7is_nullEv
0811f130 T _ZNK17Item_func_opt_neg2eqEPK4Itemb
0811f210 T _ZNK16Item_func_ifnull10field_typeEv
0811f220 T _ZN16Item_func_ifnull7real_opEv
0811f280 T _ZN16Item_func_ifnull6int_opEv
0811f2f0 T _ZN16Item_func_ifnull10decimal_opEP10my_decimal
0811f360 T _ZN12Item_func_if8val_realEv
0811f3b0 T _ZN12Item_func_if7val_intEv
0811f400 T _ZN12Item_func_if11val_decimalEP10my_decimal
0811f450 T _ZN16Item_func_nullif7is_nullEv
0811f4b0 T _ZN18Item_func_coalesce6str_opEP6String
0811f510 T _ZN18Item_func_coalesce6int_opEv
0811f590 T _ZN18Item_func_coalesce7real_opEv
0811f5f0 T _ZN18Item_func_coalesce10decimal_opEP10my_decimal
0811f6c0 T _ZN9in_vector4findEP4Item
0811f7a0 T _ZN9in_string9get_valueEP4Item
0811f7c0 T _ZN6in_row3setEjP4Item
0811f7f0 T _ZN11in_longlong3setEjP4Item
0811f830 T _ZN11in_longlong9get_valueEP4Item
0811f870 T _ZN9in_double3setEjP4Item
0811f8a0 T _ZN9in_double9get_valueEP4Item
0811f8e0 T _ZN10in_decimal9get_valueEP4Item
0811f910 T _ZN12cmp_item_rowD1Ev
0811f970 T _ZN12cmp_item_row7compareEP8cmp_item
0811f9d0 T _ZN17cmp_item_datetime7compareEP8cmp_item
0811fa30 T _ZN12Item_func_in12nulls_in_rowEv
0811fa80 T _ZN12Item_func_in7val_intEv
0811fbd0 T _ZN16Item_func_bit_or7val_intEv
0811fc40 T _ZN17Item_func_bit_and7val_intEv
0811fcb0 T _ZNK9Item_cond11used_tablesEv
0811fcc0 T _ZN16Item_func_isnull7val_intEv
0811fd00 T _ZN21Item_is_not_null_test7val_intEv
0811fd80 T _ZN21Item_is_not_null_test18update_used_tablesEv
0811fe00 T _ZN19Item_func_isnotnull7val_intEv
0811fe30 T _ZN14Item_func_like24turboBM_compute_suffixesEPi
08120010 T _ZN14Item_func_like34turboBM_compute_good_suffix_shiftsEPi
08120190 T _ZN14Item_func_like36turboBM_compute_bad_character_shiftsEv
08120230 T _ZNK14Item_func_like15turboBM_matchesEPKci
081204c0 T _ZN13Item_func_not15neg_transformerEP3THD
081204d0 T _ZN24Item_bool_rowready_func215neg_transformerEP3THD
081204f0 T _ZN24Item_bool_rowready_func212negated_itemEv
08120500 T _ZN10Item_equal7membersEv
08120510 T _ZN14Item_func_like7cleanupEv
08120530 T _ZN17Item_in_optimizer7cleanupEv
08120560 T _ZN12Item_func_in10fix_fieldsEP3THDPP4Item
08120650 T _ZN12Item_func_if10fix_fieldsEP3THDPP4Item
081206d0 T _ZN17Item_func_between10fix_fieldsEP3THDPP4Item
08120790 T _ZN17Item_func_not_all5printEP6String
081207c0 T _ZN8cmp_item14get_comparatorE11Item_resultP15charset_info_st
081208e0 T _ZN10Item_equal18fix_length_and_decEv
08120920 T _ZN6in_rowC1EjP4Item
081209d0 T _ZN18Item_func_interval18fix_length_and_decEv
08120c90 T _ZN12cmp_item_int9make_sameEv
08120cc0 T _ZN16Item_func_strcmp7val_intEv
08120d60 T _ZN14Arg_comparator16compare_e_stringEv
08120de0 T _ZN14Arg_comparator14compare_stringEv
08120ef0 T _ZN15Item_func_regex7cleanupEv
08120f30 T _ZN14Arg_comparator23compare_e_binary_stringEv
08120fa0 T _ZN12cmp_item_row3cmpEP4Item
081210a0 T _ZN12cmp_item_row23store_value_by_templateEP8cmp_itemP4Item
081211e0 T _ZN14Item_func_case10fix_fieldsEP3THDPP4Item
08121240 T _ZN9Item_condC2EP3THDPS_
081212b0 T _ZN16Item_func_ifnull15tmp_table_fieldEP8st_table
081212c0 T _ZN17Item_in_optimizer8fix_leftEP3THDPP4Item
08121480 T _ZN17Item_in_optimizer10fix_fieldsEP3THDPP4Item
081216f0 T _ZNK14Item_func_like15select_optimizeEv
081217d0 T _ZN14Arg_comparator21compare_binary_stringEv
08121890 T _ZN14Item_func_like7val_intEv
081219a0 T _ZN6in_rowD2Ev
08121a00 T _ZN12cmp_item_rowD0Ev
08121a60 T _ZN12cmp_item_rowD2Ev
08121ac0 T _ZN10Item_equal4walkEM4ItemFbPcES1_
08121b40 T _ZN14Arg_comparator17compare_e_decimalEv
08121c00 T _ZN9in_stringC2EjPFiPKvS1_S1_EP15charset_info_st
08121c70 T _ZN10Item_equal7val_intEv
08121d20 T _ZN10Item_equal18update_used_tablesEv
08121de0 T _ZN10Item_equal10fix_fieldsEP3THDPP4Item
08121ea0 T _ZN10Item_equal8containsEP5Field
08121f00 T _ZN9Item_cond18update_used_tablesEv
08121fa0 T _ZN13Item_cond_xor7val_intEv
08122010 T _ZN9Item_cond13traverse_condEPFvPK4ItemPvES3_NS0_14traverse_orderE
081220f0 T _ZN9Item_cond7compileEM4ItemFbPPcES2_MS0_FPS0_S1_ES1_
081221d0 T _ZN9Item_cond14split_sum_funcEP3THDPP4ItemR4ListIS2_E
08122230 T _ZN9Item_cond10fix_fieldsEP3THDPP4Item
081224b0 T _ZN9Item_cond4walkEM4ItemFbPcES1_
08122530 T _ZN12Item_cond_or7val_intEv
081225a0 T _ZN13Item_cond_and7val_intEv
08122610 T _ZN12Item_func_if7val_strEP6String
08122670 T _ZN16Item_func_ifnull6str_opEP6String
081226f0 T _ZN14Item_func_like10fix_fieldsEP3THDPP4Item
08122a40 T _ZN10in_decimal3setEjP4Item
08122ac0 T _ZN17Item_in_optimizer7val_intEv
08122c50 T _ZN6in_rowD0Ev
08122cb0 T _ZN6in_rowD1Ev
08122d10 T _ZN6in_rowC2EjP4Item
08122dc0 T _ZN10Item_equal4sortEPFiP10Item_fieldS1_PvES2_
08122e60 T _Z12cmp_longlongPvPN11in_longlong15packed_longlongES2_
08122f50 T _ZN14Arg_comparator20compare_e_real_fixedEv
08122ff0 T _ZN16cmp_item_decimal11store_valueEP4Item
08123040 T _ZN16cmp_item_decimal3cmpEP4Item
081230c0 T _ZN16cmp_item_decimal7compareEP8cmp_item
081230e0 T _ZN14Arg_comparator15compare_decimalEv
08123180 T _ZN18Item_func_interval7val_intEv
08123470 T _ZN9Item_condC1EP3THDPS_
081234e0 T _ZN20cmp_item_sort_string9make_sameEv
08123530 T _ZN16cmp_item_decimal9make_sameEv
08123570 T _ZN12cmp_item_row9make_sameEv
081235b0 T _ZN13cmp_item_real9make_sameEv
08123730 T _ZN9Item_cond13neg_argumentsEP3THD
081237d0 T _ZN17Item_func_not_all15neg_transformerEP3THD
08123880 T _ZN13Item_cond_and15neg_transformerEP3THD
08123910 T _Z14get_time_valueP3THDPPP4ItemS3_S2_Pb
08123a60 T _ZN17Item_func_nop_all15neg_transformerEP3THD
08123b10 T _ZN10Item_equalC2EPS_
08123c10 T _ZN12Item_cond_or15neg_transformerEP3THD
08123cc0 T _ZN16Item_func_isnull15neg_transformerEP3THD
08123d30 T _ZNK10Ne_creator6createEP4ItemS1_
08123e50 T _ZNK10Lt_creator6createEP4ItemS1_
08123f70 T _ZN12Item_func_gt12negated_itemEv
08124090 T _ZN12Item_func_le12negated_itemEv
081241b0 T _ZN12Item_func_ne12negated_itemEv
081242d0 T _ZNK10Ge_creator6createEP4ItemS1_
081243f0 T _ZN10Item_equalC2EP4ItemP10Item_field
081244b0 T _ZN19Item_func_isnotnull15neg_transformerEP3THD
08124520 T _ZN17cmp_item_datetime9make_sameEv
08124580 T _ZN10Item_equal9transformEM4ItemFPS0_PcES2_
08124670 T _ZN9Item_cond9transformEM4ItemFPS0_PcES2_
08124760 T _ZN12cmp_item_row11store_valueEP4Item
081248d0 T _ZN6in_row9get_valueEP4Item
08124910 T _ZN14Arg_comparator21set_datetime_cmp_funcEPP4ItemS2_
08124990 T _ZN10in_decimalC1Ej
08124a00 T _ZN10in_decimalC2Ej
08124a70 T _ZN9in_doubleC1Ej
08124ad0 T _ZN9in_doubleC2Ej
08124b30 T _ZN11in_longlongC1Ej
08124b90 T _ZN11in_longlongC2Ej
08124bf0 T _ZN9in_stringC1EjPFiPKvS1_S1_EP15charset_info_st
08124c60 T _ZN9Item_cond20copy_andor_argumentsEP3THDPS_
08124cf0 T _Z15and_expressionsP4ItemS0_PS0_
08124f10 T _ZN10Item_equal3addEP10Item_field
08124f70 T _ZNK12Item_func_if17decimal_precisionEv
08125020 T _ZNK16Item_func_ifnull17decimal_precisionEv
081250c0 T _ZNK14Item_func_case17decimal_precisionEv
081251e0 T _ZN10Item_equalC1EPS_
081252e0 T _ZN14Item_func_case9find_itemEP6String
081255c0 T _ZN14Item_func_case7val_strEP6String
08125610 T _Z18get_datetime_valueP3THDPPP4ItemS3_S2_Pb
08125820 T _ZN17cmp_item_datetime3cmpEP4Item
08125870 T _ZN17cmp_item_datetime11store_valueEP4Item
081258d0 T _ZN11in_datetime9get_valueEP4Item
08125940 T _ZN11in_datetime3setEjP4Item
081259a0 T _ZN14Arg_comparator20can_compare_as_datesEP4ItemS1_Py
08125b70 T _ZN14Arg_comparator12set_cmp_funcEP15Item_bool_func2PP4ItemS4_11Item_result
08125da0 T _ZN10Item_equal3addEP4Item
08125f60 T _ZN10Item_equal12update_constEv
08125ff0 T _ZN10Item_equal5mergeEPS_
08126070 T _ZN14Arg_comparator16set_compare_funcEP15Item_bool_func211Item_result
08126690 T _ZN10Item_equalC1EP10Item_fieldS1_
08126780 T _ZN10Item_equalC2EP10Item_fieldS1_
08126870 T _ZN14Arg_comparator11compare_rowEv
08126960 T _ZN12Item_func_ne7val_intEv
081269b0 T _ZN15Item_func_equal7val_intEv
081269e0 T _ZN12Item_func_eq7val_intEv
08126a20 T _ZN14Arg_comparator13compare_e_rowEv
08126ac0 T _ZN16Item_func_nullif7val_intEv
08126b30 T _ZN16Item_func_nullif8val_realEv
08126b90 T _ZN17Item_func_between7val_intEv
08127120 T _ZN12Item_func_lt7val_intEv
08127170 T _ZN12Item_func_le7val_intEv
081271c0 T _ZN12Item_func_gt7val_intEv
08127200 T _ZN12Item_func_ge7val_intEv
08127240 T _ZN16Item_func_nullif11val_decimalEP10my_decimal
081272b0 T _ZN16Item_func_nullif7val_strEP6String
08127320 T _ZN10Item_equalC1EP4ItemP10Item_field
081273e0 T _ZN9in_stringD1Ev
081274a0 T _ZN9in_stringD2Ev
08127560 T _ZN14Item_func_case7val_intEv
08127600 T _ZN14Item_func_case11val_decimalEP10my_decimal
081276a0 T _ZN15Item_func_regex7val_intEv
08127960 T _ZN14Item_func_case8val_realEv
08127a00 T _ZN15Item_func_regex10fix_fieldsEP3THDPP4Item
08127d70 T _ZN12Item_func_in18fix_length_and_decEv
081284f0 T _ZN12Item_func_if18fix_length_and_decEv
08128700 T _ZN16Item_func_ifnull18fix_length_and_decEv
08128850 T _ZN17Item_func_between18fix_length_and_decEv
08128a90 T _ZN15Item_bool_func218fix_length_and_decEv
08128d70 T _ZN16Item_func_nullif18fix_length_and_decEv
08128e10 T _ZN15Item_func_equal18fix_length_and_decEv
08128e30 T _ZN18Item_func_coalesce18fix_length_and_decEv
08128f00 T _ZN14Item_func_case18fix_length_and_decEv
08129110 T _ZN9in_stringD0Ev
081291d0 T _ZN9in_string3setEjP4Item
081292b0 T _ZN12Item_func_lt12negated_itemEv
081293d0 T _ZNK10Le_creator6createEP4ItemS1_
081294f0 T _ZN13Item_func_not5printEP6String
08129590 T _ZN19Item_func_isnotnull5printEP6String
08129610 T _ZN9Item_cond5printEP6String
08129770 T _ZN12Item_func_in5printEP6String
08129850 T _ZN10Item_equal5printEP6String
081299f0 T _ZN14Item_func_case5printEP6String
08129be0 T _ZN17Item_func_between5printEP6String
08129d20 T _ZN15Item_func_truth5printEP6String
08129e60 T _ZN12Item_func_ge12negated_itemEv
08129f80 T _ZN12Item_func_eq12negated_itemEv
0812a0a0 T _ZNK10Gt_creator6createEP4ItemS1_
0812a1c0 T _ZNK10Eq_creator6createEP4ItemS1_
0812a2e0 W _ZNK16Item_func_bit_or9func_nameEv
0812a2f0 W _ZNK17Item_func_bit_and9func_nameEv
0812a300 W _ZN14Item_bool_func12is_bool_funcEv
0812a310 W _ZN14Item_bool_func18fix_length_and_decEv
0812a330 W _ZNK14Item_bool_func17decimal_precisionEv
0812a340 W _ZNK17Item_in_optimizer9func_nameEv
0812a350 W _ZNK10Eq_creator6symbolEb
0812a370 W _ZNK10Eq_creator7eqne_opEv
0812a380 W _ZNK10Eq_creator4l_opEv
0812a390 W _ZNK10Ne_creator6symbolEb
0812a3b0 W _ZNK10Ne_creator7eqne_opEv
0812a3c0 W _ZNK10Ne_creator4l_opEv
0812a3d0 W _ZNK10Gt_creator6symbolEb
0812a3f0 W _ZNK10Gt_creator7eqne_opEv
0812a400 W _ZNK10Gt_creator4l_opEv
0812a410 W _ZNK10Lt_creator6symbolEb
0812a430 W _ZNK10Lt_creator7eqne_opEv
0812a440 W _ZNK10Lt_creator4l_opEv
0812a450 W _ZNK10Ge_creator6symbolEb
0812a470 W _ZNK10Ge_creator7eqne_opEv
0812a480 W _ZNK10Ge_creator4l_opEv
0812a490 W _ZNK10Le_creator6symbolEb
0812a4b0 W _ZNK10Le_creator7eqne_opEv
0812a4c0 W _ZNK10Le_creator4l_opEv
0812a4d0 W _ZNK15Item_bool_func215select_optimizeEv
0812a4e0 W _ZNK15Item_bool_func212rev_functypeEv
0812a4f0 W _ZNK15Item_bool_func213have_rev_funcEv
0812a510 W _ZN15Item_bool_func27is_nullEv
0812a560 W _ZN15Item_bool_func212is_bool_funcEv
0812a570 W _ZN15Item_bool_func217compare_collationEv
0812a580 W _ZNK15Item_bool_func217decimal_precisionEv
0812a590 W _ZN15Item_bool_func214top_level_itemEv
0812a5a0 W _ZN24Item_bool_rowready_func222subst_argument_checkerEPPc
0812a5b0 W _ZNK13Item_func_not8functypeEv
0812a5c0 W _ZNK13Item_func_not9func_nameEv
0812a5d0 W _ZN17Item_func_not_all14top_level_itemEv
0812a5e0 W _ZNK17Item_func_not_all8functypeEv
0812a5f0 W _ZNK17Item_func_not_all9func_nameEv
0812a600 W _ZNK17Item_func_nop_all9func_nameEv
0812a610 W _ZNK12Item_func_eq8functypeEv
0812a620 W _ZNK12Item_func_eq12rev_functypeEv
0812a630 W _ZNK12Item_func_eq13eq_cmp_resultEv
0812a640 W _ZNK12Item_func_eq9func_nameEv
0812a650 W _ZNK15Item_func_equal15not_null_tablesEv
0812a660 W _ZNK15Item_func_equal8functypeEv
0812a670 W _ZNK15Item_func_equal12rev_functypeEv
0812a680 W _ZNK15Item_func_equal13eq_cmp_resultEv
0812a690 W _ZNK15Item_func_equal9func_nameEv
0812a6a0 W _ZN15Item_func_equal15neg_transformerEP3THD
0812a6b0 W _ZNK12Item_func_ge8functypeEv
0812a6c0 W _ZNK12Item_func_ge12rev_functypeEv
0812a6d0 W _ZNK12Item_func_ge13eq_cmp_resultEv
0812a6e0 W _ZNK12Item_func_ge9func_nameEv
0812a6f0 W _ZNK12Item_func_gt8functypeEv
0812a700 W _ZNK12Item_func_gt12rev_functypeEv
0812a710 W _ZNK12Item_func_gt13eq_cmp_resultEv
0812a720 W _ZNK12Item_func_gt9func_nameEv
0812a730 W _ZNK12Item_func_le8functypeEv
0812a740 W _ZNK12Item_func_le12rev_functypeEv
0812a750 W _ZNK12Item_func_le13eq_cmp_resultEv
0812a760 W _ZNK12Item_func_le9func_nameEv
0812a770 W _ZNK12Item_func_lt8functypeEv
0812a780 W _ZNK12Item_func_lt12rev_functypeEv
0812a790 W _ZNK12Item_func_lt13eq_cmp_resultEv
0812a7a0 W _ZNK12Item_func_lt9func_nameEv
0812a7b0 W _ZNK12Item_func_ne8functypeEv
0812a7c0 W _ZNK12Item_func_ne13eq_cmp_resultEv
0812a7d0 W _ZNK12Item_func_ne15select_optimizeEv
0812a7e0 W _ZNK12Item_func_ne9func_nameEv
0812a7f0 W _ZN17Item_func_opt_neg14top_level_itemEv
0812a800 W _ZN17Item_func_opt_neg15neg_transformerEP3THD
0812a810 W _ZN17Item_func_opt_neg22subst_argument_checkerEPPc
0812a820 W _ZNK17Item_func_between15select_optimizeEv
0812a830 W _ZNK17Item_func_between8functypeEv
0812a840 W _ZNK17Item_func_between9func_nameEv
0812a850 W _ZN17Item_func_between12is_bool_funcEv
0812a860 W _ZN17Item_func_between17compare_collationEv
0812a870 W _ZNK17Item_func_between17decimal_precisionEv
0812a880 W _ZNK16Item_func_strcmp15select_optimizeEv
0812a890 W _ZNK16Item_func_strcmp9func_nameEv
0812a8a0 W _ZNK18Item_func_interval9func_nameEv
0812a8b0 W _ZNK18Item_func_interval17decimal_precisionEv
0812a8c0 W _ZN18Item_func_coalesce13find_num_typeEv
0812a8d0 W _ZNK18Item_func_coalesce11result_typeEv
0812a8e0 W _ZNK18Item_func_coalesce9func_nameEv
0812a8f0 W _ZNK18Item_func_coalesce15not_null_tablesEv
0812a900 W _ZNK16Item_func_ifnull9func_nameEv
0812a910 W _ZNK12Item_func_if11result_typeEv
0812a920 W _ZNK12Item_func_if9func_nameEv
0812a930 W _ZNK16Item_func_nullif11result_typeEv
0812a940 W _ZNK16Item_func_nullif17decimal_precisionEv
0812a960 W _ZNK16Item_func_nullif9func_nameEv
0812a970 W _ZNK16Item_func_nullif15not_null_tablesEv
0812a980 W _ZNK14Item_func_case15not_null_tablesEv
0812a990 W _ZNK14Item_func_case11result_typeEv
0812a9a0 W _ZNK14Item_func_case9func_nameEv
0812a9b0 W _ZN14Item_func_case17compare_collationEv
0812a9c0 W _ZN9in_vectorD1Ev
0812a9d0 W _ZN9in_vector11create_itemEv
0812a9e0 W _ZN9in_vector13value_to_itemEjP4Item
0812a9f0 W _ZN11in_longlong13value_to_itemEjP4Item
0812aa30 W _ZN9in_double13value_to_itemEjP4Item
0812aa50 W _ZN8cmp_item23store_value_by_templateEPS_P4Item
0812aa70 W _ZN20cmp_item_sort_string11store_valueEP4Item
0812aaa0 W _ZN12cmp_item_int11store_valueEP4Item
0812aac0 W _ZN12cmp_item_int3cmpEP4Item
0812ab00 W _ZN12cmp_item_int7compareEP8cmp_item
0812ab60 W _ZN13cmp_item_real11store_valueEP4Item
0812ab80 W _ZN13cmp_item_real3cmpEP4Item
0812abb0 W _ZN13cmp_item_real7compareEP8cmp_item
0812abf0 W _ZN30cmp_item_sort_string_in_static11store_valueEP4Item
0812ac20 W _ZN30cmp_item_sort_string_in_static3cmpEP4Item
0812ac30 W _ZNK12Item_func_in17decimal_precisionEv
0812ac40 W _ZNK12Item_func_in15select_optimizeEv
0812ac50 W _ZNK12Item_func_in8functypeEv
0812ac60 W _ZNK12Item_func_in9func_nameEv
0812ac70 W _ZN12Item_func_in12is_bool_funcEv
0812ac80 W _ZN12Item_func_in17compare_collationEv
0812ac90 W _ZNK16Item_func_isnull8functypeEv
0812aca0 W _ZN16Item_func_isnull18fix_length_and_decEv
0812acd0 W _ZNK16Item_func_isnull9func_nameEv
0812ace0 W _ZN16Item_func_isnull18update_used_tablesEv
0812ad70 W _ZNK16Item_func_isnull15not_null_tablesEv
0812ad80 W _ZNK16Item_func_isnull15select_optimizeEv
0812ad90 W _ZN16Item_func_isnull17compare_collationEv
0812ada0 W _ZNK21Item_is_not_null_test8functypeEv
0812adb0 W _ZNK21Item_is_not_null_test9func_nameEv
0812adc0 W _ZNK21Item_is_not_null_test11used_tablesEv
0812ade0 W _ZNK19Item_func_isnotnull8functypeEv
0812adf0 W _ZN19Item_func_isnotnull18fix_length_and_decEv
0812ae10 W _ZNK19Item_func_isnotnull9func_nameEv
0812ae20 W _ZNK19Item_func_isnotnull15select_optimizeEv
0812ae30 W _ZNK19Item_func_isnotnull15not_null_tablesEv
0812ae50 W _ZN19Item_func_isnotnull17compare_collationEv
0812ae60 W _ZN19Item_func_isnotnull14top_level_itemEv
0812ae70 W _ZNK14Item_func_like8functypeEv
0812ae80 W _ZNK14Item_func_like13eq_cmp_resultEv
0812ae90 W _ZNK14Item_func_like9func_nameEv
0812aea0 W _ZNK15Item_func_regex9func_nameEv
0812aeb0 W _ZN15Item_func_regex17compare_collationEv
0812aec0 W _ZNK9Item_cond4typeEv
0812aed0 W _ZN9Item_cond14top_level_itemEv
0812aee0 W _ZN9Item_cond22subst_argument_checkerEPPc
0812aef0 W _ZNK10Item_equal8functypeEv
0812af00 W _ZNK10Item_equal9func_nameEv
0812af10 W _ZNK10Item_equal15select_optimizeEv
0812af20 W _ZNK13Item_cond_and8functypeEv
0812af30 W _ZNK13Item_cond_and9func_nameEv
0812af40 W _ZNK13Item_cond_and15not_null_tablesEv
0812af70 W _ZNK12Item_cond_or8functypeEv
0812af80 W _ZNK12Item_cond_or9func_nameEv
0812af90 W _ZNK12Item_cond_or15not_null_tablesEv
0812afb0 W _ZNK13Item_cond_xor8functypeEv
0812afc0 W _ZNK13Item_cond_xor4typeEv
0812afd0 W _ZNK13Item_cond_xor9func_nameEv
0812afe0 W _ZN13Item_cond_xor14top_level_itemEv
0812aff0 W _ZN10Item_equal17compare_collationEv
0812b010 W _ZN12Item_func_in7cleanupEv
0812b060 W _ZN16Item_func_nullif5printEP6String
0812b070 W _ZN16Item_func_strcmp5printEP6String
0812b080 W _ZN12Comp_creatorD0Ev
0812b0a0 W _ZN12Comp_creatorD1Ev
0812b0b0 W _ZN10Ne_creatorD1Ev
0812b0c0 W _ZN10in_decimal13value_to_itemEjP4Item
0812b0f0 W _ZN30cmp_item_sort_string_in_static7compareEP8cmp_item
0812b120 W _ZN20cmp_item_sort_string7compareEP8cmp_item
0812b150 W _ZN15Item_func_regex5printEP6String
0812b160 W _ZN15Item_bool_func25printEP6String
0812b170 W _ZN11in_datetimeD1Ev
0812b180 W _ZN15cmp_item_stringD1Ev
0812b190 W _ZN11in_longlongD1Ev
0812b1a0 W _ZN9in_doubleD0Ev
0812b1b0 W _ZN9in_doubleD1Ev
0812b1c0 W _ZN10in_decimalD0Ev
0812b1d0 W _ZN10in_decimalD1Ev
0812b1e0 W _ZN11in_longlongD0Ev
0812b1f0 W _ZN12cmp_item_intD0Ev
0812b200 W _ZN12cmp_item_intD1Ev
0812b210 W _ZN13cmp_item_realD0Ev
0812b220 W _ZN13cmp_item_realD1Ev
0812b230 W _ZN16cmp_item_decimalD0Ev
0812b240 W _ZN16cmp_item_decimalD1Ev
0812b250 W _ZN17cmp_item_datetimeD0Ev
0812b260 W _ZN17cmp_item_datetimeD1Ev
0812b270 W _ZN15cmp_item_stringD0Ev
0812b280 W _ZN8cmp_itemD0Ev
0812b290 W _ZN8cmp_itemD1Ev
0812b2a0 W _ZN9in_vectorD0Ev
0812b2b0 W _ZN11in_datetimeD0Ev
0812b2c0 W _ZN30cmp_item_sort_string_in_static9make_sameEv
0812b310 W _ZN9in_string11create_itemEv
0812b390 W _ZN10in_decimal11create_itemEv
0812b3d0 W _ZN11in_longlong11create_itemEv
0812b420 W _ZN9in_double11create_itemEv
0812b470 W _ZN10Eq_creatorD0Ev
0812b490 W _ZN10Eq_creatorD1Ev
0812b4a0 W _ZN10Le_creatorD0Ev
0812b4c0 W _ZN10Le_creatorD1Ev
0812b4d0 W _ZN10Ge_creatorD0Ev
0812b4f0 W _ZN10Ge_creatorD1Ev
0812b500 W _ZN10Lt_creatorD0Ev
0812b520 W _ZN10Lt_creatorD1Ev
0812b530 W _ZN10Gt_creatorD0Ev
0812b550 W _ZN10Gt_creatorD1Ev
0812b560 W _ZN10Ne_creatorD0Ev
0812b580 W _ZN12Item_cond_or20copy_andor_structureEP3THD
0812b5e0 W _ZN13Item_cond_and20copy_andor_structureEP3THD
0812b660 W _ZN13Item_cond_andD0Ev
0812b6b0 W _ZN16Item_func_ifnullD0Ev
0812b700 W _ZN9in_string13value_to_itemEjP4Item
0812b780 W _ZN20cmp_item_sort_stringD0Ev
0812b7e0 W _ZN20cmp_item_sort_stringD1Ev
0812b840 W _ZN20cmp_item_sort_string3cmpEP4Item
0812b8d0 W _ZN30cmp_item_sort_string_in_staticD0Ev
0812b930 W _ZN30cmp_item_sort_string_in_staticD1Ev
0812b990 W _ZN12Item_func_ifD0Ev
0812b9e0 W _ZN12Item_func_ifD1Ev
0812ba30 W _ZN14Item_func_caseD0Ev
0812bac0 W _ZN17Item_func_bit_andD0Ev
0812bb10 W _ZN16Item_func_ifnullD1Ev
0812bb60 W _ZN14Item_func_caseD1Ev
0812bbf0 W _ZN17Item_func_opt_negD1Ev
0812bc40 W _ZN12Item_func_neD1Ev
0812bd10 W _ZN18Item_func_intervalD1Ev
0812bd60 W _ZN15Item_bool_func2D0Ev
0812be30 W _ZN14Item_bool_funcD1Ev
0812be80 W _ZN18Item_func_intervalD0Ev
0812bed0 W _ZN17Item_func_bit_andD1Ev
0812bf20 W _ZN12Item_func_inD1Ev
0812bf70 W _ZN14Item_bool_funcD0Ev
0812bfc0 W _ZN12Item_func_gtD1Ev
0812c090 W _ZN16Item_func_strcmpD0Ev
0812c160 W _ZN16Item_func_strcmpD1Ev
0812c230 W _ZN16Item_func_nullifD0Ev
0812c300 W _ZN16Item_func_nullifD1Ev
0812c3d0 W _ZN14Item_func_likeD0Ev
0812c4a0 W _ZN14Item_func_likeD1Ev
0812c570 W _ZN24Item_bool_rowready_func2D0Ev
0812c640 W _ZN24Item_bool_rowready_func2D1Ev
0812c710 W _ZN17Item_func_opt_negD0Ev
0812c760 W _ZN15Item_bool_func2D1Ev
0812c830 W _ZN13Item_cond_xorD0Ev
0812c880 W _ZN17Item_func_betweenD0Ev
0812c980 W _ZN16Item_func_bit_orD0Ev
0812c9d0 W _ZN17Item_func_betweenD1Ev
0812cad0 W _ZN12Item_func_leD0Ev
0812cba0 W _ZN12Item_func_inD0Ev
0812cbf0 W _ZN18Item_func_coalesceD0Ev
0812cc40 W _ZN15Item_func_regexD1Ev
0812ccd0 W _ZN9Item_condD1Ev
0812cd20 W _ZN10Item_equalD1Ev
0812cd70 W _ZN16Item_func_isnullD0Ev
0812cdc0 W _ZN10Item_equalD0Ev
0812ce10 W _ZN12Item_cond_orD0Ev
0812ce60 W _ZN12Item_func_leD1Ev
0812cf30 W _ZN9Item_condD0Ev
0812cf80 W _ZN16Item_func_isnullD1Ev
0812cfd0 W _ZN17Item_in_optimizerD0Ev
0812d020 W _ZN17Item_in_optimizerD1Ev
0812d070 W _ZN16Item_func_bit_orD1Ev
0812d0c0 W _ZN21Item_is_not_null_testD1Ev
0812d110 W _ZN19Item_func_isnotnullD1Ev
0812d160 W _ZN12Item_func_ltD0Ev
0812d230 W _ZN15Item_func_truthD0Ev
0812d280 W _ZN19Item_func_isnotnullD0Ev
0812d2d0 W _ZN13Item_func_notD1Ev
0812d320 W _ZN15Item_func_regexD0Ev
0812d3b0 W _ZN15Item_func_truthD1Ev
0812d400 W _ZN13Item_func_notD0Ev
0812d450 W _ZN17Item_func_nop_allD1Ev
0812d4a0 W _ZN12Item_func_ltD1Ev
0812d570 W _ZN21Item_is_not_null_testD0Ev
0812d5c0 W _ZN17Item_func_not_allD0Ev
0812d610 W _ZN17Item_func_nop_allD0Ev
0812d660 W _ZN18Item_func_coalesceD1Ev
0812d6b0 W _ZN17Item_func_not_allD1Ev
0812d700 W _ZN13Item_cond_xorD1Ev
0812d750 W _ZN13Item_cond_andD1Ev
0812d7a0 W _ZN15Item_func_equalD0Ev
0812d870 W _ZN12Item_cond_orD1Ev
0812d8c0 W _ZN12Item_func_eqD0Ev
0812d990 W _ZN12Item_func_geD0Ev
0812da60 W _ZN12Item_func_eqD1Ev
0812db30 W _ZN12Item_func_neD0Ev
0812dc00 W _ZN12Item_func_gtD0Ev
0812dcd0 W _ZN15Item_func_equalD1Ev
0812dda0 W _ZN12Item_func_geD1Ev
0812de70 T _ZN21Item_func_aes_decrypt18fix_length_and_decEv
0812de90 T _ZN13Item_str_func21left_right_max_lengthEv
0812df80 T _ZN13Item_func_elt8val_realEv
0812dff0 T _ZN13Item_func_elt7val_intEv
0812e060 T _ZN23Item_func_set_collation7val_strEP6String
0812e0b0 T _ZNK23Item_func_set_collation2eqEPK4Itemb
0812e1c0 T _ZN18Item_func_make_set18update_used_tablesEv
0812e230 T _ZN13Item_str_func10fix_fieldsEP3THDPP4Item
0812e350 T _ZN16Item_func_binary5printEP6String
0812e3b0 T _ZN20Item_func_export_set18fix_length_and_decEv
0812e450 T _ZN19Item_func_collation7val_strEP6String
0812e4b0 T _ZN17Item_func_charset7val_strEP6String
0812e510 T _ZN18Item_func_make_set14split_sum_funcEP3THDPP4ItemR4ListIS2_E
0812e580 T _ZN22Item_func_old_password5allocEP3THDPKc
0812e5c0 T _ZN21Item_func_aes_encrypt18fix_length_and_decEv
0812e5f0 T _ZN15Item_func_crc327val_intEv
0812e650 T _ZN29Item_func_uncompressed_length7val_intEv
0812e6c0 T _ZN14Item_func_conv7val_strEP6String
0812e880 T _ZN19Item_func_inet_ntoa7val_strEP6String
0812e9b0 T _ZN13Item_func_elt7val_strEP6String
0812ea20 T _ZN16Item_func_encode7val_strEP6String
0812eac0 T _ZN17Item_func_reverse7val_strEP6String
0812ec00 T _ZN16Item_func_repeat18fix_length_and_decEv
0812ece0 T _ZN17Item_func_soundex18fix_length_and_decEv
0812ed40 T _ZN16Item_func_substr18fix_length_and_decEv
0812ee30 T _ZN15Item_func_right18fix_length_and_decEv
0812ee60 T _ZN14Item_func_left18fix_length_and_decEv
0812ee90 T _ZN17Item_func_reverse18fix_length_and_decEv
0812eed0 T _ZN16Item_func_encode18fix_length_and_decEv
0812ef10 T _ZN16Item_func_formatC2EP4Itemi
0812efa0 T _ZN22Item_func_conv_charset18fix_length_and_decEv
0812efe0 T _ZN13Item_func_sha18fix_length_and_decEv
0812f040 T _ZN13Item_func_md518fix_length_and_decEv
0812f0a0 T _ZN16Item_func_format7val_strEP6String
0812f340 T _ZN16Item_func_decode7val_strEP6String
0812f3e0 T _ZN18Item_func_password5allocEP3THDPKc
0812f420 T _ZN16Item_func_formatC1EP4Itemi
0812f4b0 T _ZN14Item_func_left7val_strEP6String
0812f5e0 T _ZN18Item_func_password7val_strEP6String
0812f6b0 T _ZN13Item_str_func24check_well_formed_resultEP6String
0812f790 T _ZN22Item_func_conv_charset7val_strEP6String
0812f830 T _ZN14Item_func_uuid7val_strEP6String
0812faf0 T _ZN20Item_func_uncompress7val_strEP6String
0812fcb0 T _ZN18Item_func_compress7val_strEP6String
0812fdf0 T _ZN16Item_func_insert7val_strEP6String
08130050 T _ZN17Item_func_replace7val_strEP6String
081303b0 T _ZN16Item_func_repeat7val_strEP6String
08130610 T _ZN18Item_func_make_set9transformEM4ItemFPS0_PcES2_
081306d0 T _ZN18Item_func_database7val_strEP6String
08130730 T _ZN15Item_func_quote7val_strEP6String
081308a0 T _ZN14Item_load_file7val_strEP6String
08130b10 T _ZN21Item_func_des_decrypt7val_strEP6String
08130e00 T _ZN21Item_func_des_encrypt7val_strEP6String
08131170 T _ZN16Item_func_concat7val_strEP6String
081314e0 T _ZN21Item_func_aes_decrypt7val_strEP6String
081315e0 T _ZN13Item_func_sha7val_strEP6String
08131750 T _ZN13Item_func_md57val_strEP6String
081318a0 T _ZN15Item_func_unhex7val_strEP6String
08131a50 T _ZN13Item_func_hex7val_strEP6String
08131be0 T _ZN14Item_func_lpad7val_strEP6String
08131f20 T _ZN14Item_func_rpad7val_strEP6String
081322a0 T _ZN18Item_func_make_set7val_strEP6String
08132450 T _ZN17Item_func_soundex7val_strEP6String
08132700 T _ZN14Item_func_user4initEPKcS1_
081327b0 T _ZN22Item_func_current_user10fix_fieldsEP3THDPP4Item
08132810 T _ZN14Item_func_user10fix_fieldsEP3THDPP4Item
08132880 T _ZN13Item_str_conv7val_strEP6String
08132970 T _ZN22Item_func_substr_index7val_strEP6String
08132de0 T _ZN16Item_func_substr7val_strEP6String
08133080 T _ZN15Item_func_right7val_strEP6String
08133220 T _ZN21Item_func_aes_encrypt7val_strEP6String
08133330 T _ZN14Item_func_lpad18fix_length_and_decEv
08133430 T _ZN14Item_func_trim18fix_length_and_decEv
081334e0 T _ZN22Item_func_substr_index18fix_length_and_decEv
08133540 T _ZN16Item_func_insert18fix_length_and_decEv
081335d0 T _ZN17Item_func_replace18fix_length_and_decEv
081336c0 T _ZN19Item_func_concat_ws18fix_length_and_decEv
08133780 T _ZN16Item_func_concat18fix_length_and_decEv
08133870 T _ZN18Item_func_make_set18fix_length_and_decEv
08133970 T _ZN13Item_func_elt18fix_length_and_decEv
08133a20 T _ZN14Item_func_rpad18fix_length_and_decEv
08133b20 T _ZN13Item_str_func8val_realEv
08133bc0 T _ZN23Item_func_set_collation5printEP6String
08133c90 T _ZN14Item_func_trim5printEP6String
08133df0 T _ZN18Item_func_make_set5printEP6String
08133ed0 T _ZN16Item_func_format5printEP6String
08134000 T _ZN16Item_func_encode5printEP6String
081341a0 T _ZN22Item_func_conv_charset5printEP6String
08134250 T _ZN14Item_func_char7val_strEP6String
08134460 T _ZN15Item_func_rtrim7val_strEP6String
08134830 T _ZN13Item_str_func7val_intEv
081348e0 T _ZN19Item_func_concat_ws7val_strEP6String
08134d10 T _ZN13Item_str_func11val_decimalEP10my_decimal
08134db0 T _ZN18Item_func_sysconst22safe_charset_converterEP15charset_info_st
08134f60 T _ZN23Item_func_set_collation18fix_length_and_decEv
081350e0 T _ZN17Item_func_encrypt7val_strEP6String
08135320 T _ZN15Item_func_ltrim7val_strEP6String
081355a0 T _ZN14Item_func_trim7val_strEP6String
08135950 T _ZN22Item_func_old_password7val_strEP6String
08135a20 T _ZN20Item_func_export_set7val_strEP6String
08135cf0 W _ZNK13Item_str_func11result_typeEv
08135d00 W _ZNK13Item_func_md59func_nameEv
08135d10 W _ZNK13Item_func_sha9func_nameEv
08135d20 W _ZNK21Item_func_aes_encrypt9func_nameEv
08135d30 W _ZNK21Item_func_aes_decrypt9func_nameEv
08135d40 W _ZNK16Item_func_concat9func_nameEv
08135d50 W _ZNK19Item_func_concat_ws9func_nameEv
08135d60 W _ZNK19Item_func_concat_ws15not_null_tablesEv
08135d70 W _ZNK17Item_func_reverse9func_nameEv
08135d80 W _ZNK17Item_func_replace9func_nameEv
08135d90 W _ZNK16Item_func_insert9func_nameEv
08135da0 W _ZNK14Item_func_left9func_nameEv
08135db0 W _ZNK15Item_func_right9func_nameEv
08135dc0 W _ZNK16Item_func_substr9func_nameEv
08135dd0 W _ZNK22Item_func_substr_index9func_nameEv
08135de0 W _ZNK14Item_func_trim9func_nameEv
08135df0 W _ZNK14Item_func_trim9mode_nameEv
08135e00 W _ZNK15Item_func_ltrim9func_nameEv
08135e10 W _ZNK15Item_func_ltrim9mode_nameEv
08135e20 W _ZNK15Item_func_rtrim9func_nameEv
08135e30 W _ZNK15Item_func_rtrim9mode_nameEv
08135e40 W _ZN18Item_func_password18fix_length_and_decEv
08135e50 W _ZNK18Item_func_password9func_nameEv
08135e60 W _ZN22Item_func_old_password18fix_length_and_decEv
08135e70 W _ZNK22Item_func_old_password9func_nameEv
08135e80 W _ZN21Item_func_des_encrypt18fix_length_and_decEv
08135ea0 W _ZNK21Item_func_des_encrypt9func_nameEv
08135eb0 W _ZN21Item_func_des_decrypt18fix_length_and_decEv
08135ed0 W _ZNK21Item_func_des_decrypt9func_nameEv
08135ee0 W _ZN17Item_func_encrypt18fix_length_and_decEv
08135f00 W _ZNK17Item_func_encrypt9func_nameEv
08135f10 W _ZNK16Item_func_encode9func_nameEv
08135f20 W _ZNK16Item_func_decode9func_nameEv
08135f30 W _ZN18Item_func_database18fix_length_and_decEv
08135f50 W _ZNK18Item_func_database9func_nameEv
08135f60 W _ZNK18Item_func_database25fully_qualified_func_nameEv
08135f70 W _ZN14Item_func_user7val_strEP6String
08135f90 W _ZN14Item_func_user18fix_length_and_decEv
08135fb0 W _ZNK14Item_func_user9func_nameEv
08135fc0 W _ZNK14Item_func_user25fully_qualified_func_nameEv
08135fd0 W _ZNK22Item_func_current_user9func_nameEv
08135fe0 W _ZNK22Item_func_current_user25fully_qualified_func_nameEv
08135ff0 W _ZNK17Item_func_soundex9func_nameEv
08136000 W _ZNK13Item_func_elt9func_nameEv
08136010 W _ZNK18Item_func_make_set9func_nameEv
08136020 W _ZNK16Item_func_format9func_nameEv
08136030 W _ZN14Item_func_char18fix_length_and_decEv
08136050 W _ZNK14Item_func_char9func_nameEv
08136060 W _ZNK16Item_func_repeat9func_nameEv
08136070 W _ZNK14Item_func_rpad9func_nameEv
08136080 W _ZNK14Item_func_lpad9func_nameEv
08136090 W _ZNK14Item_func_conv9func_nameEv
081360a0 W _ZNK13Item_func_hex9func_nameEv
081360b0 W _ZNK15Item_func_unhex9func_nameEv
081360c0 W _ZNK16Item_func_binary9func_nameEv
081360d0 W _ZNK14Item_load_file9func_nameEv
081360e0 W _ZN14Item_load_file18fix_length_and_decEv
08136120 W _ZNK20Item_func_export_set9func_nameEv
08136130 W _ZNK19Item_func_inet_ntoa9func_nameEv
08136140 W _ZN19Item_func_inet_ntoa18fix_length_and_decEv
08136160 W _ZNK15Item_func_quote9func_nameEv
08136170 W _ZN15Item_func_quote18fix_length_and_decEv
081361c0 W _ZNK22Item_func_conv_charset9func_nameEv
081361d0 W _ZNK23Item_func_set_collation9func_nameEv
081361e0 W _ZNK23Item_func_set_collation8functypeEv
081361f0 W _ZN23Item_func_set_collation21filed_for_view_updateEv
08136210 W _ZNK17Item_func_charset9func_nameEv
08136220 W _ZNK17Item_func_charset15not_null_tablesEv
08136230 W _ZNK19Item_func_collation9func_nameEv
08136240 W _ZNK19Item_func_collation15not_null_tablesEv
08136250 W _ZNK15Item_func_crc329func_nameEv
08136260 W _ZN15Item_func_crc3218fix_length_and_decEv
08136270 W _ZNK29Item_func_uncompressed_length9func_nameEv
08136280 W _ZN29Item_func_uncompressed_length18fix_length_and_decEv
08136290 W _ZN18Item_func_compress18fix_length_and_decEv
081362c0 W _ZNK18Item_func_compress9func_nameEv
081362d0 W _ZN20Item_func_uncompress18fix_length_and_decEv
081362f0 W _ZNK20Item_func_uncompress9func_nameEv
08136300 W _ZNK14Item_func_uuid9func_nameEv
08136310 W _ZN18Item_func_make_set4walkEM4ItemFbPcES1_
08136380 W _ZN18Item_func_make_set10fix_fieldsEP3THDPP4Item
08136410 W _ZN14Item_func_user13save_in_fieldEP5Fieldb
08136430 W _ZN16Item_func_format18fix_length_and_decEv
081364b0 W _ZN16Item_func_binary7val_strEP6String
081364f0 W _ZN14Item_func_uuid18fix_length_and_decEv
08136530 W _ZN19Item_func_collation18fix_length_and_decEv
08136570 W _ZN17Item_func_charset18fix_length_and_decEv
081365b0 W _ZN16Item_func_binary18fix_length_and_decEv
081365e0 W _ZN15Item_func_unhex18fix_length_and_decEv
08136620 W _ZN13Item_func_hex18fix_length_and_decEv
08136670 W _ZN14Item_func_conv18fix_length_and_decEv
081366b0 W _ZN13Item_str_funcD1Ev
08136700 W _ZN13Item_func_hexD1Ev
08136790 W _ZN29Item_func_uncompressed_lengthD1Ev
08136820 W _ZN15Item_func_crc32D1Ev
081368b0 W _ZN15Item_func_ltrimD0Ev
08136970 W _ZN18Item_func_databaseD0Ev
081369c0 W _ZN14Item_func_userD0Ev
08136a10 W _ZN18Item_func_databaseD1Ev
08136a60 W _ZN22Item_func_current_userD1Ev
08136ab0 W _ZN14Item_func_userD1Ev
08136b00 W _ZN16Item_func_decodeD0Ev
08136b90 W _ZN15Item_func_rtrimD0Ev
08136c50 W _ZN15Item_func_rtrimD1Ev
08136d10 W _ZN29Item_func_uncompressed_lengthD0Ev
08136da0 W _ZN13Item_str_funcD0Ev
08136df0 W _ZN15Item_func_crc32D0Ev
08136e80 W _ZN13Item_str_convD1Ev
08136f10 W _ZN14Item_func_trimD0Ev
08136fd0 W _ZN14Item_func_trimD1Ev
08137090 W _ZN15Item_func_ltrimD1Ev
08137150 W _ZN13Item_str_convD0Ev
081371e0 W _ZN14Item_func_uuidD0Ev
08137230 W _ZN22Item_func_current_userD0Ev
08137280 W _ZN18Item_func_sysconstD0Ev
081372d0 W _ZN16Item_func_encodeD1Ev
08137360 W _ZN14Item_func_uuidD1Ev
081373b0 W _ZN16Item_func_encodeD0Ev
08137440 W _ZN18Item_func_sysconstD1Ev
08137490 W _ZN16Item_func_decodeD1Ev
08137520 W _ZN15Item_func_unhexD0Ev
081375b0 W _ZN19Item_func_inet_ntoaD0Ev
08137600 W _ZN14Item_load_fileD0Ev
08137690 W _ZN18Item_func_compressD0Ev
08137720 W _ZN16Item_func_binaryD0Ev
08137770 W _ZN15Item_func_quoteD0Ev
08137800 W _ZN20Item_func_export_setD0Ev
08137850 W _ZN20Item_func_uncompressD0Ev
081378e0 W _ZN15Item_func_unhexD1Ev
08137970 W _ZN19Item_func_inet_ntoaD1Ev
081379c0 W _ZN14Item_load_fileD1Ev
08137a50 W _ZN18Item_func_compressD1Ev
08137ae0 W _ZN16Item_func_binaryD1Ev
08137b30 W _ZN15Item_func_quoteD1Ev
08137bc0 W _ZN20Item_func_export_setD1Ev
08137c10 W _ZN20Item_func_uncompressD1Ev
08137ca0 W _ZN13Item_func_md5D0Ev
08137d30 W _ZN22Item_func_old_passwordD0Ev
08137d80 W _ZN17Item_func_reverseD0Ev
08137e10 W _ZN14Item_func_rpadD0Ev
08137ed0 W _ZN16Item_func_concatD0Ev
08137f60 W _ZN13Item_func_eltD0Ev
08137fb0 W _ZN15Item_func_rightD0Ev
08138040 W _ZN23Item_func_set_collationD0Ev
08138090 W _ZN21Item_func_aes_encryptD0Ev
081380e0 W _ZN17Item_func_soundexD0Ev
08138170 W _ZN16Item_func_insertD0Ev
08138200 W _ZN14Item_func_convD0Ev
08138250 W _ZN21Item_func_des_decryptD0Ev
081382e0 W _ZN14Item_func_charD0Ev
08138330 W _ZN22Item_func_substr_indexD0Ev
081383c0 W _ZN19Item_func_collationD0Ev
08138410 W _ZN13Item_func_shaD0Ev
08138460 W _ZN17Item_func_encryptD0Ev
081384f0 W _ZN17Item_func_replaceD0Ev
081385b0 W _ZN14Item_func_lpadD0Ev
08138670 W _ZN21Item_func_des_encryptD0Ev
08138700 W _ZN18Item_func_make_setD0Ev
08138790 W _ZN16Item_func_substrD0Ev
08138820 W _ZN17Item_func_charsetD0Ev
08138870 W _ZN21Item_func_aes_decryptD0Ev
081388c0 W _ZN16Item_func_formatD0Ev
08138950 W _ZN14Item_func_leftD0Ev
081389e0 W _ZN22Item_func_conv_charsetD0Ev
08138a30 W _ZN19Item_func_concat_wsD0Ev
08138ac0 W _ZN16Item_func_repeatD0Ev
08138b50 W _ZN18Item_func_passwordD0Ev
08138ba0 W _ZN13Item_func_hexD0Ev
08138c30 W _ZN13Item_func_md5D1Ev
08138cc0 W _ZN22Item_func_old_passwordD1Ev
08138d10 W _ZN17Item_func_reverseD1Ev
08138da0 W _ZN14Item_func_rpadD1Ev
08138e60 W _ZN16Item_func_concatD1Ev
08138ef0 W _ZN13Item_func_eltD1Ev
08138f40 W _ZN15Item_func_rightD1Ev
08138fd0 W _ZN23Item_func_set_collationD1Ev
08139020 W _ZN21Item_func_aes_encryptD1Ev
08139070 W _ZN17Item_func_soundexD1Ev
08139100 W _ZN16Item_func_insertD1Ev
08139190 W _ZN14Item_func_convD1Ev
081391e0 W _ZN21Item_func_des_decryptD1Ev
08139270 W _ZN14Item_func_charD1Ev
081392c0 W _ZN22Item_func_substr_indexD1Ev
08139350 W _ZN19Item_func_collationD1Ev
081393a0 W _ZN13Item_func_shaD1Ev
081393f0 W _ZN17Item_func_encryptD1Ev
08139480 W _ZN17Item_func_replaceD1Ev
08139540 W _ZN14Item_func_lpadD1Ev
08139600 W _ZN21Item_func_des_encryptD1Ev
08139690 W _ZN18Item_func_make_setD1Ev
08139720 W _ZN16Item_func_substrD1Ev
081397b0 W _ZN17Item_func_charsetD1Ev
08139800 W _ZN21Item_func_aes_decryptD1Ev
08139850 W _ZN16Item_func_formatD1Ev
081398e0 W _ZN14Item_func_leftD1Ev
08139970 W _ZN22Item_func_conv_charsetD1Ev
081399c0 W _ZN19Item_func_concat_wsD1Ev
08139a50 W _ZN16Item_func_repeatD1Ev
08139ae0 W _ZN18Item_func_passwordD1Ev
08139b30 T _ZN14Item_func_hour7val_intEv
08139b70 T _Z9week_modej
08139b90 T _ZN9Item_date7val_intEv
08139be0 T _ZN17Item_func_curdate8get_dateEP13st_mysql_timej
08139c10 T _ZN13Item_func_now8get_dateEP13st_mysql_timej
08139c40 T _ZN13Item_func_now13save_in_fieldEP5Fieldb
08139c80 T _ZN23Item_func_sysdate_local8get_dateEP13st_mysql_timej
08139cc0 T _ZNK21Item_func_date_format2eqEPK4Itemb
08139d70 T _ZN21Item_func_date_format13format_lengthEPK6String
08139df0 T _ZN23Item_func_from_unixtime8get_dateEP13st_mysql_timej
08139e70 T _ZNK12Item_extract2eqEPK4Itemb
08139f10 T _ZNK18Item_char_typecast2eqEPK4Itemb
08139fb0 T _ZN18Item_time_typecast7val_intEv
0813a000 T _ZN18Item_date_typecast7val_intEv
0813a060 T _ZN18Item_func_add_time18fix_length_and_decEv
0813a0c0 T _ZN20Item_func_convert_tz7cleanupEv
0813a0e0 T _ZNK22Item_date_add_interval2eqEPK4Itemb
0813a150 T _Z14calc_time_diffP13st_mysql_timeS0_iPxPl
0813a300 T _ZN24Item_func_timestamp_diff7val_intEv
0813a690 T _ZN18Item_func_makedate7val_intEv
0813a780 T _ZN19Item_func_from_days8get_dateEP13st_mysql_timej
0813a800 T _ZN9Item_date7val_strEP6String
0813a890 T _ZN20Item_func_convert_tz7val_intEv
0813a8d0 T _ZN23Item_func_from_unixtime7val_intEv
0813a910 T _ZN23Item_func_sysdate_local8val_realEv
0813a970 T _ZN23Item_func_sysdate_local7val_intEv
0813a9a0 T _ZN18Item_char_typecast18fix_length_and_decEv
0813aac0 T _ZN14Item_func_week7val_intEv
0813ad50 T _ZN21Item_func_period_diff7val_intEv
0813add0 T _ZN20Item_func_period_add7val_intEv
0813ae60 T _ZN20Item_func_convert_tz18fix_length_and_decEv
0813aea0 T _ZN23Item_func_sysdate_local18fix_length_and_decEv
0813aed0 T _ZN13Item_func_now18fix_length_and_decEv
0813af50 T _ZN17Item_func_curtime18fix_length_and_decEv
0813afc0 T _ZN17Item_func_curdate18fix_length_and_decEv
0813b040 T _ZN23Item_func_sysdate_local13save_in_fieldEP5Fieldb
0813b0a0 T _ZN21Item_func_str_to_date15tmp_table_fieldEP8st_table
0813b280 T _ZN23Item_func_from_unixtime18fix_length_and_decEv
0813b2e0 T _ZN21Item_func_date_format18fix_length_and_decEv
0813b3d0 T _ZN23Item_func_sysdate_local17store_now_in_TIMEEP13st_mysql_time
0813b430 T _ZN17Item_func_now_utc17store_now_in_TIMEEP13st_mysql_time
0813b480 T _ZN19Item_func_now_local17store_now_in_TIMEEP13st_mysql_time
0813b4d0 T _ZN21Item_func_curtime_utc17store_now_in_TIMEEP13st_mysql_time
0813b520 T _ZN23Item_func_curtime_local17store_now_in_TIMEEP13st_mysql_time
0813b570 T _ZN21Item_func_curdate_utc17store_now_in_TIMEEP13st_mysql_time
0813b790 T _ZN21Item_func_sec_to_time7val_intEv
0813b820 T _ZN21Item_func_microsecond7val_intEv
0813b860 T _ZN18Item_time_typecast8get_timeEP13st_mysql_time
0813b8c0 T _ZN21Item_func_time_to_sec7val_intEv
0813b920 T _ZN16Item_func_second7val_intEv
0813b960 T _ZN16Item_func_minute7val_intEv
0813b9a0 T _ZN23Item_func_curdate_local17store_now_in_TIMEEP13st_mysql_time
0813b9f0 T _ZN22Item_date_add_interval8get_dateEP13st_mysql_timej
0813c390 T _ZN22Item_date_add_interval7val_intEv
0813cff0 T _ZN21Item_func_str_to_date8get_dateEP13st_mysql_timej
0813d1a0 T _ZN17Item_func_dayname7val_strEP6String
0813d260 T _ZN17Item_func_curtime7val_strEP6String
0813d510 T _ZN21Item_func_str_to_date7val_strEP6String
0813d580 T _ZN18Item_time_typecast7val_strEP6String
0813d5e0 T _ZN22Item_date_add_interval7val_strEP6String
0813d710 T _ZN18Item_func_timediff7val_strEP6String
0813d850 T _ZN18Item_func_maketime7val_strEP6String
0813db60 T _ZN18Item_func_makedate7val_strEP6String
0813dc80 T _ZN18Item_char_typecast7val_strEP6String
0813df20 T _ZN12Item_extract18fix_length_and_decEv
0813e020 T _ZN22Item_date_add_interval18fix_length_and_decEv
0813e0e0 T _ZN20Item_func_convert_tz7val_strEP6String
0813e170 T _ZN23Item_func_from_unixtime7val_strEP6String
0813e200 T _ZN21Item_func_sec_to_time7val_strEP6String
0813e2a0 T _ZN17Item_func_curdate7val_strEP6String
0813e300 T _ZN17Item_func_to_days7val_intEv
0813e360 T _ZN18Item_date_typecast7val_strEP6String
0813e3f0 T _ZN18Item_date_typecast8get_dateEP13st_mysql_timej
0813e450 T _ZN22Item_datetime_typecast7val_intEv
0813e4b0 T _ZN22Item_datetime_typecast7val_strEP6String
0813e520 T _ZN18Item_func_last_day8get_dateEP13st_mysql_timej
0813e5b0 T _ZN18Item_func_add_time7val_strEP6String
0813e960 T _ZN17Item_func_quarter7val_intEv
0813e9b0 T _ZN15Item_func_month7val_intEv
0813e9f0 T _ZN20Item_func_dayofmonth7val_intEv
0813ea30 T _ZN19Item_func_dayofyear7val_intEv
0813ead0 T _ZN12Item_extract7val_intEv
0813eee0 T _ZN20Item_func_convert_tz8get_dateEP13st_mysql_timej
0813f060 T _ZN24Item_func_unix_timestamp7val_intEv
0813f190 T _ZN14Item_func_year7val_intEv
0813f1d0 T _ZN17Item_func_weekday7val_intEv
0813f270 T _ZN18Item_func_yearweek7val_intEv
0813f2f0 T _ZN20Item_func_convert_tz10fix_fieldsEP3THDPP4Item
0813f340 T _ZN21Item_func_str_to_date18fix_length_and_decEv
0813f510 T _ZN23Item_func_sysdate_local7val_strEP6String
0813f5b0 T _ZN13Item_func_now7val_strEP6String
0813f620 T _ZN19Item_func_monthname7val_strEP6String
0813f6e0 T _ZN20Item_func_get_format7val_strEP6String
0813f800 T _Z14make_date_timeP19st_date_time_formatP13st_mysql_time25enum_mysql_timestamp_typeP6String
08140060 T _ZN21Item_func_date_format7val_strEP6String
081401e0 T _ZN24Item_func_timestamp_diff5printEP6String
08140420 T _ZN18Item_func_add_time5printEP6String
08140550 T _ZN18Item_char_typecast5printEP6String
08140740 T _ZN13Item_typecast5printEP6String
081407f0 T _ZN12Item_extract5printEP6String
081408b0 T _ZN22Item_date_add_interval5printEP6String
081409f0 T _ZN20Item_func_get_format5printEP6String
08140b40 W _ZNK20Item_func_period_add9func_nameEv
08140b50 W _ZN20Item_func_period_add18fix_length_and_decEv
08140b60 W _ZNK21Item_func_period_diff9func_nameEv
08140b70 W _ZN21Item_func_period_diff18fix_length_and_decEv
08140b90 W _ZNK17Item_func_to_days9func_nameEv
08140ba0 W _ZN17Item_func_to_days18fix_length_and_decEv
08140bc0 W _ZNK20Item_func_dayofmonth9func_nameEv
08140bd0 W _ZN20Item_func_dayofmonth18fix_length_and_decEv
08140bf0 W _ZNK15Item_func_month9func_nameEv
08140c00 W _ZNK15Item_func_month11result_typeEv
08140c10 W _ZNK19Item_func_monthname9func_nameEv
08140c20 W _ZNK19Item_func_monthname11result_typeEv
08140c30 W _ZNK19Item_func_dayofyear9func_nameEv
08140c40 W _ZN19Item_func_dayofyear18fix_length_and_decEv
08140c60 W _ZNK14Item_func_hour9func_nameEv
08140c70 W _ZN14Item_func_hour18fix_length_and_decEv
08140c90 W _ZNK16Item_func_minute9func_nameEv
08140ca0 W _ZN16Item_func_minute18fix_length_and_decEv
08140cc0 W _ZNK17Item_func_quarter9func_nameEv
08140cd0 W _ZN17Item_func_quarter18fix_length_and_decEv
08140cf0 W _ZNK16Item_func_second9func_nameEv
08140d00 W _ZN16Item_func_second18fix_length_and_decEv
08140d20 W _ZNK14Item_func_week9func_nameEv
08140d30 W _ZN14Item_func_week18fix_length_and_decEv
08140d50 W _ZNK18Item_func_yearweek9func_nameEv
08140d60 W _ZN18Item_func_yearweek18fix_length_and_decEv
08140d80 W _ZNK14Item_func_year9func_nameEv
08140d90 W _ZN14Item_func_year18fix_length_and_decEv
08140db0 W _ZN17Item_func_weekday8val_realEv
08140dd0 W _ZNK17Item_func_weekday9func_nameEv
08140df0 W _ZNK17Item_func_weekday11result_typeEv
08140e00 W _ZNK17Item_func_dayname9func_nameEv
08140e10 W _ZNK17Item_func_dayname11result_typeEv
08140e20 W _ZNK24Item_func_unix_timestamp9func_nameEv
08140e30 W _ZN24Item_func_unix_timestamp18fix_length_and_decEv
08140e50 W _ZNK21Item_func_time_to_sec9func_nameEv
08140e60 W _ZN21Item_func_time_to_sec18fix_length_and_decEv
08140e80 W _ZNK9Item_date11result_typeEv
08140e90 W _ZNK9Item_date10field_typeEv
08140ea0 W _ZNK9Item_date9func_nameEv
08140eb0 W _ZN9Item_date18result_as_longlongEv
08140ec0 W _ZNK14Item_date_func10field_typeEv
08140ed0 W _ZN14Item_date_func18result_as_longlongEv
08140ee0 W _ZN14Item_date_func8val_realEv
08140f00 W _ZNK17Item_str_timefunc10field_typeEv
08140f10 W _ZN17Item_str_timefunc18fix_length_and_decEv
08140f30 W _ZN17Item_func_curtime8val_realEv
08140f40 W _ZN17Item_func_curtime7val_intEv
08140f50 W _ZN17Item_func_curtime18result_as_longlongEv
08140f60 W _ZNK23Item_func_curtime_local9func_nameEv
08140f70 W _ZNK21Item_func_curtime_utc9func_nameEv
08140f80 W _ZN17Item_func_curdate7val_intEv
08140f90 W _ZNK23Item_func_curdate_local9func_nameEv
08140fa0 W _ZNK21Item_func_curdate_utc9func_nameEv
08140fb0 W _ZNK13Item_func_now11result_typeEv
08140fc0 W _ZN13Item_func_now7val_intEv
08140fd0 W _ZNK19Item_func_now_local9func_nameEv
08140fe0 W _ZNK19Item_func_now_local8functypeEv
08140ff0 W _ZNK17Item_func_now_utc9func_nameEv
08141000 W _ZNK23Item_func_sysdate_local10const_itemEv
08141010 W _ZNK23Item_func_sysdate_local9func_nameEv
08141020 W _ZNK19Item_func_from_days9func_nameEv
08141030 W _ZNK21Item_func_date_format9func_nameEv
08141050 W _ZNK23Item_func_from_unixtime9func_nameEv
08141060 W _ZNK20Item_func_convert_tz9func_nameEv
08141070 W _ZNK21Item_func_sec_to_time9func_nameEv
08141080 W _ZN21Item_func_sec_to_time18result_as_longlongEv
08141090 W _ZNK22Item_date_add_interval9func_nameEv
081410a0 W _ZNK22Item_date_add_interval10field_typeEv
081410b0 W _ZNK12Item_extract8functypeEv
081410c0 W _ZNK12Item_extract9func_nameEv
081410d0 W _ZN13Item_typecast7val_strEP6String
08141110 W _ZN24Item_typecast_maybe_null18fix_length_and_decEv
08141150 W _ZNK18Item_char_typecast8functypeEv
08141160 W _ZNK18Item_char_typecast9func_nameEv
08141170 W _ZNK18Item_char_typecast9cast_typeEv
08141180 W _ZNK18Item_date_typecast9func_nameEv
08141190 W _ZNK18Item_date_typecast9cast_typeEv
081411a0 W _ZNK18Item_date_typecast10field_typeEv
081411b0 W _ZN18Item_date_typecast18fix_length_and_decEv
081411e0 W _ZN18Item_date_typecast18result_as_longlongEv
081411f0 W _ZN18Item_date_typecast8val_realEv
08141210 W _ZNK18Item_time_typecast9func_nameEv
08141220 W _ZNK18Item_time_typecast9cast_typeEv
08141230 W _ZNK18Item_time_typecast10field_typeEv
08141240 W _ZN18Item_time_typecast18result_as_longlongEv
08141250 W _ZNK22Item_datetime_typecast9func_nameEv
08141260 W _ZNK22Item_datetime_typecast9cast_typeEv
08141270 W _ZNK22Item_datetime_typecast10field_typeEv
08141280 W _ZN22Item_datetime_typecast18result_as_longlongEv
08141290 W _ZNK18Item_func_makedate9func_nameEv
081412a0 W _ZNK18Item_func_makedate10field_typeEv
081412b0 W _ZN18Item_func_makedate18fix_length_and_decEv
081412d0 W _ZNK18Item_func_add_time10field_typeEv
081412e0 W _ZNK18Item_func_add_time9func_nameEv
081412f0 W _ZNK18Item_func_timediff9func_nameEv
08141300 W _ZNK18Item_func_maketime9func_nameEv
08141310 W _ZNK21Item_func_microsecond9func_nameEv
08141320 W _ZN21Item_func_microsecond18fix_length_and_decEv
08141330 W _ZNK24Item_func_timestamp_diff9func_nameEv
08141340 W _ZN24Item_func_timestamp_diff18fix_length_and_decEv
08141350 W _ZNK20Item_func_get_format9func_nameEv
08141360 W _ZN20Item_func_get_format18fix_length_and_decEv
08141380 W _ZNK21Item_func_str_to_date9func_nameEv
08141390 W _ZNK21Item_func_str_to_date10field_typeEv
081413a0 W _ZNK18Item_func_last_day9func_nameEv
081413b0 W _ZN23Item_func_sysdate_local18update_used_tablesEv
081413e0 W _ZN17Item_func_weekday7val_strEP6String
08141430 W _ZN15Item_func_month7val_strEP6String
08141480 W _ZN18Item_func_makedate11val_decimalEP10my_decimal
08141490 W _ZN22Item_datetime_typecast11val_decimalEP10my_decimal
081414a0 W _ZN18Item_date_typecast11val_decimalEP10my_decimal
081414b0 W _ZN14Item_date_func11val_decimalEP10my_decimal
081414c0 W _ZN9Item_date11val_decimalEP10my_decimal
081414d0 W _ZN18Item_func_makedate13save_in_fieldEP5Fieldb
081414e0 W _ZN22Item_datetime_typecast13save_in_fieldEP5Fieldb
081414f0 W _ZN18Item_date_typecast13save_in_fieldEP5Fieldb
08141500 W _ZN14Item_date_func13save_in_fieldEP5Fieldb
08141510 W _ZN9Item_date13save_in_fieldEP5Fieldb
08141520 W _ZN18Item_func_add_time8val_realEv
08141530 W _ZN22Item_datetime_typecast8val_realEv
08141540 W _ZN18Item_time_typecast8val_realEv
08141550 W _ZN17Item_str_timefunc8val_realEv
08141560 W _ZN9Item_date8val_realEv
08141570 W _ZN18Item_func_add_time11val_decimalEP10my_decimal
081415b0 W _ZN18Item_time_typecast11val_decimalEP10my_decimal
081415c0 W _ZN17Item_str_timefunc11val_decimalEP10my_decimal
081415d0 W _ZN18Item_func_add_time13save_in_fieldEP5Fieldb
08141620 W _ZN18Item_time_typecast13save_in_fieldEP5Fieldb
08141630 W _ZN17Item_str_timefunc13save_in_fieldEP5Fieldb
08141640 W _ZN15Item_func_month18fix_length_and_decEv
08141680 W _ZN17Item_func_weekday18fix_length_and_decEv
081416c0 W _ZN19Item_func_monthname18fix_length_and_decEv
08141700 W _ZN13Item_typecast18fix_length_and_decEv
08141730 W _ZN9Item_date18fix_length_and_decEv
08141760 W _ZN17Item_func_dayname18fix_length_and_decEv
081417a0 W _ZN18Item_func_timediff18fix_length_and_decEv
081417c0 W _ZN21Item_func_sec_to_time18fix_length_and_decEv
08141800 W _ZN17Item_str_timefunc15tmp_table_fieldEP8st_table
08141880 W _ZN14Item_date_func15tmp_table_fieldEP8st_table
08141900 W _ZN22Item_datetime_typecast18fix_length_and_decEv
08141940 W _ZN18Item_func_makedate15tmp_table_fieldEP8st_table
081419c0 W _ZN9Item_date15tmp_table_fieldEP8st_table
08141a40 W _ZN18Item_date_typecast15tmp_table_fieldEP8st_table
08141ac0 W _ZN22Item_datetime_typecast15tmp_table_fieldEP8st_table
08141b40 W _ZN18Item_func_add_time15tmp_table_fieldEP8st_table
08141cb0 W _ZN18Item_time_typecast15tmp_table_fieldEP8st_table
08141d30 W _ZN17Item_func_curtime15tmp_table_fieldEP8st_table
08141db0 W _ZN21Item_func_sec_to_time8val_realEv
08141dd0 W _ZN21Item_func_curdate_utcD1Ev
08141e20 W _ZN17Item_func_daynameD0Ev
08141e70 W _ZN15Item_func_month8val_realEv
08141e90 W _ZN23Item_func_curtime_localD0Ev
08141ee0 W _ZN19Item_func_monthnameD0Ev
08141f30 W _ZN19Item_func_from_daysD1Ev
08141f80 W _ZN18Item_func_last_dayD0Ev
08141fd0 W _ZN19Item_func_from_daysD0Ev
08142020 W _ZN18Item_func_last_dayD1Ev
08142070 W _ZN17Item_func_curdateD1Ev
081420c0 W _ZN17Item_func_curdateD0Ev
08142110 W _ZN21Item_func_curdate_utcD0Ev
08142160 W _ZN23Item_func_curdate_localD0Ev
081421b0 W _ZN9Item_dateD0Ev
08142200 W _ZN9Item_dateD1Ev
08142250 W _ZN23Item_func_curdate_localD1Ev
081422a0 W _ZN17Item_func_weekdayD1Ev
081422f0 W _ZN19Item_func_monthnameD1Ev
08142340 W _ZN24Item_func_timestamp_diffD0Ev
08142390 W _ZN17Item_func_weekdayD0Ev
081423e0 W _ZN15Item_func_monthD0Ev
08142430 W _ZN18Item_func_makedateD0Ev
08142480 W _ZN21Item_func_date_formatD0Ev
08142510 W _ZN17Item_func_daynameD1Ev
08142560 W _ZN15Item_func_monthD1Ev
081425b0 W _ZN21Item_func_date_formatD1Ev
08142640 W _ZN17Item_str_timefuncD1Ev
08142690 W _ZN21Item_func_str_to_dateD1Ev
081426e0 W _ZN21Item_func_curtime_utcD1Ev
08142730 W _ZN18Item_func_add_timeD1Ev
08142780 W _ZN14Item_date_funcD0Ev
081427d0 W _ZN18Item_func_add_timeD0Ev
08142820 W _ZN13Item_typecastD1Ev
08142870 W _ZN20Item_func_get_formatD1Ev
081428c0 W _ZN23Item_func_sysdate_localD0Ev
08142910 W _ZN23Item_func_curtime_localD1Ev
08142960 W _ZN22Item_date_add_intervalD0Ev
081429f0 W _ZN20Item_func_convert_tzD0Ev
08142a40 W _ZN13Item_func_nowD0Ev
08142a90 W _ZN13Item_func_nowD1Ev
08142ae0 W _ZN23Item_func_from_unixtimeD1Ev
08142b30 W _ZN22Item_date_add_intervalD1Ev
08142bc0 W _ZN20Item_func_convert_tzD1Ev
08142c10 W _ZN23Item_func_from_unixtimeD0Ev
08142c60 W _ZN18Item_func_makedateD1Ev
08142cb0 W _ZN19Item_func_now_localD0Ev
08142d00 W _ZN23Item_func_sysdate_localD1Ev
08142d50 W _ZN20Item_func_get_formatD0Ev
08142da0 W _ZN19Item_func_now_localD1Ev
08142df0 W _ZN17Item_func_now_utcD1Ev
08142e40 W _ZN17Item_func_now_utcD0Ev
08142e90 W _ZN13Item_typecastD0Ev
08142ee0 W _ZN21Item_func_str_to_dateD0Ev
08142f30 W _ZN14Item_date_funcD1Ev
08142f80 W _ZN24Item_typecast_maybe_nullD0Ev
08142fd0 W _ZN17Item_str_timefuncD0Ev
08143020 W _ZN24Item_typecast_maybe_nullD1Ev
08143070 W _ZN18Item_date_typecastD0Ev
081430c0 W _ZN18Item_char_typecastD0Ev
08143150 W _ZN18Item_char_typecastD1Ev
081431e0 W _ZN22Item_datetime_typecastD0Ev
08143230 W _ZN18Item_date_typecastD1Ev
08143280 W _ZN22Item_datetime_typecastD1Ev
081432d0 W _ZN18Item_time_typecastD1Ev
08143320 W _ZN18Item_time_typecastD0Ev
08143370 W _ZN21Item_func_curtime_utcD0Ev
081433c0 W _ZN18Item_func_maketimeD0Ev
08143410 W _ZN21Item_func_sec_to_timeD0Ev
08143460 W _ZN17Item_func_curtimeD0Ev
081434b0 W _ZN18Item_func_timediffD0Ev
08143500 W _ZN21Item_func_sec_to_timeD1Ev
08143550 W _ZN18Item_func_maketimeD1Ev
081435a0 W _ZN18Item_func_timediffD1Ev
081435f0 W _ZN20Item_func_period_addD1Ev
08143640 W _ZN21Item_func_period_diffD0Ev
08143690 W _ZN21Item_func_period_diffD1Ev
081436e0 W _ZN24Item_func_timestamp_diffD1Ev
08143730 W _ZN16Item_func_secondD1Ev
08143780 W _ZN20Item_func_period_addD0Ev
081437d0 W _ZN20Item_func_dayofmonthD1Ev
08143820 W _ZN24Item_func_unix_timestampD1Ev
081438b0 W _ZN17Item_func_to_daysD1Ev
08143900 W _ZN18Item_func_yearweekD1Ev
08143950 W _ZN14Item_func_hourD1Ev
081439a0 W _ZN12Item_extractD1Ev
08143a30 W _ZN17Item_func_to_daysD0Ev
08143a80 W _ZN14Item_func_weekD1Ev
08143ad0 W _ZN17Item_func_quarterD1Ev
08143b20 W _ZN21Item_func_time_to_secD1Ev
08143b70 W _ZN19Item_func_dayofyearD1Ev
08143bc0 W _ZN14Item_func_yearD1Ev
08143c10 W _ZN16Item_func_minuteD1Ev
08143c60 W _ZN21Item_func_microsecondD1Ev
08143cb0 W _ZN19Item_func_dayofyearD0Ev
08143d00 W _ZN14Item_func_weekD0Ev
08143d50 W _ZN17Item_func_quarterD0Ev
08143da0 W _ZN21Item_func_time_to_secD0Ev
08143df0 W _ZN20Item_func_dayofmonthD0Ev
08143e40 W _ZN14Item_func_yearD0Ev
08143e90 W _ZN16Item_func_minuteD0Ev
08143ee0 W _ZN21Item_func_microsecondD0Ev
08143f30 W _ZN14Item_func_hourD0Ev
08143f80 W _ZN18Item_func_yearweekD0Ev
08143fd0 W _ZN16Item_func_secondD0Ev
08144020 W _ZN12Item_extractD0Ev
081440b0 W _ZN24Item_func_unix_timestampD0Ev
08144140 W _ZN17Item_func_curtimeD1Ev
08144190 T _Z16sql_element_freePv
081441a0 T _Z9sql_allocj
081441d0 T _Z24sql_strmake_with_convertPKcjP15charset_info_stjS2_Pj
08144290 T _Z10sql_memdupPKvj
081442d0 T _Z11sql_strmakePKcj
08144320 T _Z10sql_strdupPKc
08144370 T _Z10sql_callocj
081443b0 T _Z14init_sql_allocP11st_mem_rootjj
081443e0 T sql_alloc_error_handler
08144420 T _Z22create_func_name_constP4ItemS0_
08144460 T _Z19create_func_versionv
08144530 T _Z14create_func_piv
08144590 T _Z15create_func_octP4Item
08144690 T _Z20create_func_maketimeP4ItemS0_S0_
08144730 T _Z15create_func_binP4Item
08144830 T _Z22create_func_found_rowsv
08144890 T _Z25create_func_connection_idv
081448f0 T _Z16create_func_lpadP4ItemS0_S0_
081449d0 T _Z16create_func_rpadP4ItemS0_S0_
08144ab0 T _Z16create_func_uuidv
08144b10 T _Z18create_func_locateP4ItemS0_
08144c00 T _Z15create_func_powP4ItemS0_
08144c80 T _Z16create_func_convP4ItemS0_S0_
08144d20 T _Z19create_func_crossesP4ItemS0_
08144e40 T _Z18create_func_ifnullP4ItemS0_
08144ec0 T _Z20create_func_centroidP4Item
08144f20 T _Z21create_func_monthnameP4Item
08144f80 T _Z20create_func_last_dayP4Item
08144fe0 T _Z19create_func_weekdayP4Item
08145040 T _Z19create_func_daynameP4Item
081450a0 T _Z17create_func_monthP4Item
08145100 T _Z15create_func_absP4Item
08145170 T _Z19create_func_radiansP4Item
08145200 T _Z18create_func_isnullP4Item
08145270 T _Z17create_func_rtrimP4Item
08145320 T _Z18create_func_as_wkbP4Item
08145380 T _Z20create_func_endpointP4Item
081453f0 T _Z20create_func_envelopeP4Item
08145450 T _Z17create_func_ucaseP4Item
081454d0 T _Z22create_func_startpointP4Item
08145540 T _Z21create_func_dayofweekP4Item
081455a0 T _Z23create_func_time_to_secP4Item
08145610 T _Z16create_func_yearP4Item
08145680 T _Z21create_func_dayofyearP4Item
081456f0 T _Z22create_func_dayofmonthP4Item
08145760 T _Z16create_func_sridP4Item
081457e0 T _Z21create_func_numpointsP4Item
08145860 T _Z27create_func_numinteriorringP4Item
081458e0 T _Z25create_func_numgeometriesP4Item
08145960 T _Z21create_func_dimensionP4Item
081459e0 T _Z31create_func_uncompressed_lengthP4Item
08145a60 T _Z17create_func_crc32P4Item
08145af0 T _Z19create_func_isemptyP4Item
08145b60 T _Z21create_func_inet_atonP4Item
08145bd0 T _Z21create_func_bit_countP4Item
08145c40 T _Z15create_func_ordP4Item
08145cc0 T _Z17create_func_asciiP4Item
08145d40 T _Z24create_func_coercibilityP4Item
08145db0 T _Z23create_func_char_lengthP4Item
08145e30 T _Z18create_func_lengthP4Item
08145eb0 T _Z22create_func_bit_lengthP4Item
08145f30 T _Z16create_func_signP4Item
08145fa0 T _Z21create_func_from_daysP4Item
08146000 T _Z19create_func_to_daysP4Item
08146070 T _Z17create_func_spaceP4Item
08146280 T _Z20create_func_datediffP4ItemS0_
08146390 T _Z20create_func_isclosedP4Item
08146400 T _Z19create_func_ceilingP4Item
08146470 T _Z20create_func_issimpleP4Item
081464e0 T _Z17create_func_floorP4Item
08146550 T _Z15create_func_modP4ItemS0_
081465d0 T _Z13create_func_yP4Item
08146650 T _Z19create_func_degreesP4Item
081466e0 T _Z13create_func_xP4Item
08146760 T _Z15create_func_tanP4Item
081467c0 T _Z19create_func_glengthP4Item
08146840 T _Z22create_func_weekofyearP4Item
08146900 T _Z16create_func_areaP4Item
08146980 T _Z23create_func_period_diffP4ItemS0_
08146a00 T _Z20create_func_overlapsP4ItemS0_
08146b20 T _Z18create_func_equalsP4ItemS0_
08146c40 T _Z20create_func_containsP4ItemS0_
08146d60 T _Z18create_func_withinP4ItemS0_
08146e80 T _Z16create_func_asinP4Item
08146ee0 T _Z23create_func_find_in_setP4ItemS0_
08146fd0 T _Z16create_func_acosP4Item
08147030 T _Z15create_func_sinP4Item
08147090 T _Z22create_func_period_addP4ItemS0_
08147110 T _Z16create_func_sqrtP4Item
08147170 T _Z15create_func_cotP4Item
08147260 T _Z17create_func_instrP4ItemS0_
08147350 T _Z17create_func_log10P4Item
081473b0 T _Z23create_func_str_to_dateP4ItemS0_
08147430 T _Z15create_func_cosP4Item
08147490 T _Z15create_func_expP4Item
081474f0 T _Z19create_func_subtimeP4ItemS0_
08147580 T _Z16create_func_log2P4Item
081475e0 T _Z14create_func_lnP4Item
08147640 T _Z25create_func_interiorringnP4ItemS0_
081476d0 T _Z19create_func_reverseP4Item
08147750 T _Z17create_func_sleepP4Item
08147800 T _Z24create_func_release_lockP4Item
081478e0 T _Z20create_func_get_lockP4ItemS0_
081479d0 T _Z24create_func_is_used_lockP4Item
08147ab0 T _Z24create_func_is_free_lockP4Item
08147b90 T _Z15create_func_shaP4Item
08147c10 T _Z20create_func_timediffP4ItemS0_
08147c90 T _Z15create_func_md5P4Item
08147d30 T _Z23create_func_aes_decryptP4ItemS0_
08147db0 T _Z21create_func_inet_ntoaP4Item
08147e10 T _Z24create_func_exteriorringP4Item
08147e80 T _Z23create_func_date_formatP4ItemS0_
08147f30 T _Z22create_func_uncompressP4Item
08147fb0 T _Z15create_func_hexP4Item
08148030 T _Z18create_func_repeatP4ItemS0_
081480d0 T _Z19create_func_soundexP4Item
08148150 T _Z20create_func_makedateP4ItemS0_
081481d0 T _Z17create_func_ltrimP4Item
08148280 T _Z17create_func_lcaseP4Item
08148300 T _Z23create_func_aes_encryptP4ItemS0_
08148380 T _Z16create_load_fileP4Item
08148450 T _Z19create_func_addtimeP4ItemS0_
081484e0 T _Z17create_func_unhexP4Item
08148560 T _Z25create_func_geometry_typeP4Item
081485c0 T _Z18create_func_strcmpP4ItemS0_
081486d0 T _Z22create_func_intersectsP4ItemS0_
081487f0 T _Z19create_func_touchesP4ItemS0_
08148910 T _Z18create_func_pointnP4ItemS0_
081489a0 T _Z21create_func_geometrynP4ItemS0_
08148a30 T _Z23create_func_time_formatP4ItemS0_
08148ae0 T _Z18create_func_nullifP4ItemS0_
08148c00 T _Z20create_func_disjointP4ItemS0_
08148d20 T _Z17create_func_pointP4ItemS0_
08148da0 T _Z20create_func_compressP4Item
08148e20 T _Z23create_func_sec_to_timeP4Item
08148e80 T _Z17create_func_quoteP4Item
08148f00 T _Z18create_func_as_wktP4Item
08148f60 T _Z16create_func_castP4Item11Cast_targetPKcS3_P15charset_info_st
081493d0 W _ZNK20Item_func_bit_length9func_nameEv
081493e0 W _ZNK15Item_func_lcase9func_nameEv
081493f0 W _ZN15Item_func_lcase18fix_length_and_decEv
08149450 W _ZNK15Item_func_ucase9func_nameEv
08149460 W _ZN20Item_func_bit_length7val_intEv
08149480 W _ZN15Item_func_ucase18fix_length_and_decEv
081494e0 W _ZN20Item_func_bit_lengthD0Ev
08149570 W _ZN20Item_func_bit_lengthD1Ev
08149600 W _ZN15Item_func_lcaseD0Ev
08149690 W _ZN15Item_func_ucaseD1Ev
08149720 W _ZN15Item_func_lcaseD1Ev
081497b0 W _ZN15Item_func_ucaseD0Ev
08149840 T _ZN14Item_subselect14get_select_lexEv
08149850 T _ZN14Item_subselect18select_transformerEP4JOIN
08149860 T _ZN14Item_subselect4execEv
081498c0 T _ZNK14Item_subselect4typeEv
081498d0 T _ZN14Item_subselect18fix_length_and_decEv
081498f0 T _ZNK14Item_subselect11used_tablesEv
08149920 T _ZNK14Item_subselect10const_itemEv
08149930 T _ZN14Item_subselect18update_used_tablesEv
08149990 T _ZN24Item_singlerow_subselect33invalidate_and_restore_select_lexEv
081499c0 T _ZN24Item_singlerow_subselect5resetEv
081499e0 T _ZN24Item_singlerow_subselect5storeEjP4Item
08149a10 T _ZNK24Item_singlerow_subselect11result_typeEv
08149a20 T _ZNK24Item_singlerow_subselect10field_typeEv
08149a30 T _ZN24Item_singlerow_subselect4colsEv
08149a50 T _ZN24Item_singlerow_subselect11null_insideEv
08149a90 T _ZN24Item_singlerow_subselect11bring_valueEv
08149ab0 T _ZN24Item_singlerow_subselect8val_realEv
08149b00 T _ZN24Item_singlerow_subselect7val_intEv
08149b60 T _ZN24Item_singlerow_subselect7val_strEP6String
08149bc0 T _ZN24Item_singlerow_subselect11val_decimalEP10my_decimal
08149c20 T _ZN24Item_singlerow_subselect8val_boolEv
08149c70 T _ZN21Item_exists_subselect8val_realEv
08149cc0 T _ZN21Item_exists_subselect7val_intEv
08149d00 T _ZN21Item_exists_subselect8val_boolEv
08149d40 T _ZN17Item_in_subselect8val_realEv
08149da0 T _ZN17Item_in_subselect7val_intEv
08149e00 T _ZN17Item_in_subselect8val_boolEv
08149e60 T _ZN16subselect_engine7set_thdEP3THD
08149e80 T _ZN30subselect_single_select_engineC2EP13st_select_lexP16select_subselectP14Item_subselect
08149ee0 T _ZN30subselect_single_select_engineC1EP13st_select_lexP16select_subselectP14Item_subselect
08149f40 T _ZN30subselect_single_select_engine7cleanupEv
08149f70 T _ZNK22subselect_union_engine11is_executedEv
08149f90 T _ZN22subselect_union_engine7no_rowsEv
08149fc0 T _ZN31subselect_uniquesubquery_engine7cleanupEv
08149fd0 T _ZN31subselect_uniquesubquery_engine7prepareEv
08149fe0 T _ZN30subselect_single_select_engine7no_rowsEv
0814a000 T _ZN31subselect_uniquesubquery_engine18fix_length_and_decEPP10Item_cache
0814a010 T _ZN31subselect_uniquesubquery_engine12copy_ref_keyEv
0814a0d0 T _ZN31subselect_uniquesubquery_engineD2Ev
0814a110 T _ZN30subselect_single_select_engine4colsEv
0814a130 T _ZN22subselect_union_engine4colsEv
0814a150 T _ZN30subselect_single_select_engine11uncacheableEv
0814a160 T _ZN22subselect_union_engine11uncacheableEv
0814a170 T _ZN31subselect_uniquesubquery_engine7excludeEv
0814a180 T _ZN16subselect_engine17calc_const_tablesEP10TABLE_LIST
0814a1e0 T _ZN30subselect_single_select_engine25upper_select_const_tablesEv
0814a210 T _ZN22subselect_union_engine25upper_select_const_tablesEv
0814a240 T _ZN31subselect_uniquesubquery_engine13change_resultEP14Item_subselectP16select_subselect
0814a250 T _ZN30subselect_single_select_engine9no_tablesEv
0814a270 T _ZN30subselect_single_select_engine11may_be_nullEv
0814a2b0 T _ZN31subselect_uniquesubquery_engine9no_tablesEv
0814a2c0 T _ZN22subselect_union_engine13change_resultEP14Item_subselectP16select_subselect
0814a310 T _ZN30subselect_single_select_engine13change_resultEP14Item_subselectP16select_subselect
0814a340 T _ZN30subselect_indexsubquery_engine5printEP6String
0814a4d0 T _ZN22subselect_union_engine5printEP6String
0814a4f0 T _ZN30subselect_single_select_engine5printEP6String
0814a520 T _ZN22subselect_union_engine7excludeEv
0814a540 T _ZN30subselect_single_select_engine7excludeEv
0814a560 T _ZN22subselect_union_engine4execEv
0814a5a0 T _ZN30subselect_single_select_engine4execEv
0814a970 T _ZN16subselect_engine7set_rowER4ListI4ItemEPP10Item_cache
0814aa40 T _ZN30subselect_single_select_engine18fix_length_and_decEPP10Item_cache
0814aaa0 T _ZN22subselect_union_engine7prepareEv
0814aad0 T _ZN24Item_singlerow_subselect18fix_length_and_decEv
0814ab80 T _ZN22subselect_union_engine7cleanupEv
0814abb0 T _ZN24Item_singlerow_subselect10check_colsEj
0814ac00 T _ZN14Item_subselect7cleanupEv
0814ac60 T _ZN24Item_singlerow_subselect7cleanupEv
0814ac80 T _ZN21Item_maxmin_subselect7cleanupEv
0814aca0 T _ZN17Item_in_subselect11val_decimalEP10my_decimal
0814ad20 T _ZN17Item_in_subselect7val_strEP6String
0814ada0 T _ZN21Item_exists_subselect7val_strEP6String
0814ae10 T _ZN17Item_in_subselect10test_limitEP18st_select_lex_unit
0814ae70 T _ZN14Item_subselect18get_tmp_table_itemEP3THD
0814aee0 T _ZN14Item_subselect10fix_fieldsEP3THDPP4Item
0814b0b0 T _ZN17Item_in_subselect10fix_fieldsEP3THDPP4Item
0814b130 T _ZN24Item_singlerow_subselect18select_transformerEP4JOIN
0814b2c0 T _ZN22subselect_union_engine9no_tablesEv
0814b2f0 T _ZN22subselect_union_engine18fix_length_and_decEPP10Item_cache
0814b380 T _ZN30subselect_single_select_engine7prepareEv
0814b840 T _ZN21Item_exists_subselect18fix_length_and_decEv
0814b8b0 T _ZN22subselect_union_engineC1EP18st_select_lex_unitP16select_subselectP14Item_subselect
0814b930 T _ZN14Item_subselect4initEP13st_select_lexP16select_subselect
0814ba40 T _ZN22subselect_union_engineC2EP18st_select_lex_unitP16select_subselectP14Item_subselect
0814bac0 T _ZN31subselect_uniquesubquery_engineD0Ev
0814bb00 T _ZN31subselect_uniquesubquery_engine10scan_tableEv
0814bc10 T _ZN30subselect_indexsubquery_engine4execEv
0814be10 T _ZN31subselect_uniquesubquery_engine4execEv
0814bf60 T _ZN31subselect_uniquesubquery_engineD1Ev
0814bfa0 T _ZN14Item_subselectD1Ev
0814c010 T _ZN14Item_subselectD2Ev
0814c080 T _ZN14Item_subselectD0Ev
0814c0f0 T _ZN14Item_subselectC1Ev
0814c160 T _ZN14Item_subselectC2Ev
0814c1d0 T _ZN21Item_exists_subselectC1EP13st_select_lex
0814c240 T _ZN21Item_exists_subselectC2EP13st_select_lex
0814c2b0 T _ZN24Item_singlerow_subselectC1EP13st_select_lex
0814c320 T _ZN24Item_singlerow_subselectC2EP13st_select_lex
0814c390 T _ZN21Item_allany_subselectC1EP4ItemPFP12Comp_creatorbEP13st_select_lexb
0814c480 T _ZN21Item_maxmin_subselectC1EP3THDP14Item_subselectP13st_select_lexb
0814c540 T _ZN17Item_in_subselectC1EP4ItemP13st_select_lex
0814c600 T _ZN17Item_in_subselectC2EP4ItemP13st_select_lex
0814c6c0 T _ZN21Item_maxmin_subselectC2EP3THDP14Item_subselectP13st_select_lexb
0814c780 T _ZN21Item_allany_subselectC2EP4ItemPFP12Comp_creatorbEP13st_select_lexb
0814c870 T _ZN21Item_exists_subselect11val_decimalEP10my_decimal
0814c8f0 T _ZN31subselect_uniquesubquery_engine5printEP6String
0814ca20 T _ZN14Item_subselect5printEP6String
0814cac0 T _ZN21Item_allany_subselect5printEP6String
0814cbb0 T _ZN17Item_in_subselect5printEP6String
0814cc40 T _ZN21Item_exists_subselect5printEP6String
0814cc80 T _ZN21Item_maxmin_subselect5printEP6String
0814cce0 T _ZN17Item_in_subselect21row_value_transformerEP4JOIN
0814e220 T _ZN17Item_in_subselect24single_value_transformerEP4JOINP12Comp_creator
0814f220 T _ZN17Item_in_subselect26select_in_like_transformerEP4JOINP12Comp_creator
0814f510 T _ZN21Item_allany_subselect18select_transformerEP4JOIN
0814f550 T _ZN17Item_in_subselect18select_transformerEP4JOIN
0814f580 W _ZN19Item_func_trig_cond7val_intEv
0814f5b0 W _ZNK19Item_func_trig_cond8functypeEv
0814f5c0 W _ZNK19Item_func_trig_cond9func_nameEv
0814f5d0 W _ZNK19Item_func_trig_cond10const_itemEv
0814f5e0 W _ZN14Item_subselect8substypeEv
0814f5f0 W _ZN14Item_subselect5resetEv
0814f600 W _ZN14Item_subselect7is_nullEv
0814f630 W _ZNK14Item_subselect15not_null_tablesEv
0814f640 W _ZN14Item_subselect18have_guarded_condsEv
0814f650 W _ZN14Item_subselect24reset_value_registrationEv
0814f660 W _ZN24Item_singlerow_subselect8substypeEv
0814f670 W _ZN24Item_singlerow_subselect13element_indexEj
0814f690 W _ZN24Item_singlerow_subselect4addrEj
0814f6b0 W _ZN21Item_maxmin_subselect24reset_value_registrationEv
0814f6c0 W _ZN21Item_exists_subselect8substypeEv
0814f6d0 W _ZN21Item_exists_subselect5resetEv
0814f6e0 W _ZNK21Item_exists_subselect11result_typeEv
0814f6f0 W _ZN17Item_in_subselect18have_guarded_condsEv
0814f710 W _ZN17Item_in_subselect8substypeEv
0814f720 W _ZN17Item_in_subselect5resetEv
0814f740 W _ZN17Item_in_subselect14top_level_itemEv
0814f750 W _ZN21Item_allany_subselect8substypeEv
0814f770 W _ZN16subselect_engineD1Ev
0814f780 W _ZN16subselect_engine11may_be_nullEv
0814f790 W _ZNK16subselect_engine11is_executedEv
0814f7a0 W _ZNK30subselect_single_select_engine11is_executedEv
0814f7c0 W _ZN31subselect_uniquesubquery_engine4colsEv
0814f7d0 W _ZN31subselect_uniquesubquery_engine11uncacheableEv
0814f7e0 W _ZN31subselect_uniquesubquery_engine25upper_select_const_tablesEv
0814f7f0 W _ZN31subselect_uniquesubquery_engine7no_rowsEv
0814f800 W _ZN30subselect_indexsubquery_engineD0Ev
0814f820 W _ZN30subselect_indexsubquery_engineD1Ev
0814f840 W _ZN30subselect_single_select_engineD0Ev
0814f850 W _ZN30subselect_single_select_engineD1Ev
0814f860 W _ZN22subselect_union_engineD0Ev
0814f870 W _ZN22subselect_union_engineD1Ev
0814f880 W _ZN16subselect_engineD0Ev
0814f890 W _ZN19Item_func_trig_condD1Ev
0814f8e0 W _ZN19Item_func_trig_condD0Ev
0814f930 W _ZN24Item_singlerow_subselectD0Ev
0814f950 W _ZN24Item_singlerow_subselectD1Ev
0814f970 W _ZN21Item_maxmin_subselectD1Ev
0814f990 W _ZN21Item_exists_subselectD0Ev
0814f9b0 W _ZN21Item_exists_subselectD1Ev
0814f9d0 W _ZN21Item_allany_subselectD0Ev
0814f9f0 W _ZN21Item_maxmin_subselectD0Ev
0814fa10 W _ZN17Item_in_subselectD0Ev
0814fa30 W _ZN21Item_allany_subselectD1Ev
0814fa50 W _ZN17Item_in_subselectD1Ev
0814fa70 T _ZN8Item_row10fix_fieldsEP3THDPP4Item
0814fbe0 T _ZN8Item_row18update_used_tablesEv
0814fc90 T _ZN8Item_row4walkEM4ItemFbPcES1_
0814fd40 T _ZN8Item_row11bring_valueEv
0814fd80 T _ZN8Item_row9transformEM4ItemFPS0_PcES2_
0814fea0 T _ZN8Item_row10check_colsEj
0814fee0 T _ZN8Item_row19illegal_method_callEPKc
0814ff10 T _ZN8Item_row14split_sum_funcEP3THDPP4ItemR4ListIS2_E
0814ff70 T _ZN8Item_row7cleanupEv
0814ffa0 T _ZN8Item_rowC2ER4ListI4ItemE
08150030 T _ZN8Item_rowC1ER4ListI4ItemE
081500c0 T _ZN8Item_row5printEP6String
081501c0 W _ZNK8Item_row4typeEv
081501d0 W _ZN8Item_row7is_nullEv
081501f0 W _ZNK8Item_row11used_tablesEv
08150200 W _ZNK8Item_row10const_itemEv
08150210 W _ZNK8Item_row11result_typeEv
08150220 W _ZN8Item_row4colsEv
08150230 W _ZN8Item_row13element_indexEj
08150250 W _ZN8Item_row4addrEj
08150270 W _ZN8Item_row11null_insideEv
08150280 W _ZN8Item_rowD0Ev
081502d0 W _ZN8Item_row11val_decimalEP10my_decimal
081502f0 W _ZN8Item_row7val_strEP6String
08150310 W _ZN8Item_row7val_intEv
08150330 W _ZN8Item_row8val_realEv
08150350 W _ZN8Item_row10make_fieldEP10Send_field
08150360 W _ZN8Item_rowD1Ev
081503b0 T _ZN18Item_geometry_func18fix_length_and_decEv
081503f0 T _ZNK18Item_geometry_func17get_geometry_typeEv
08150400 T _ZN16Item_func_as_wkt18fix_length_and_decEv
08150420 T _ZNK18Item_func_envelope17get_geometry_typeEv
08150430 T _ZNK18Item_func_centroid17get_geometry_typeEv
08150440 T _ZNK15Item_func_point17get_geometry_typeEv
08150450 T _ZN18Item_geometry_func15tmp_table_fieldEP8st_table
08150520 T _ZN23Item_func_geometry_type7val_strEP6String
081505d0 T _ZN14Item_func_srid7val_intEv
08150640 T _ZN17Item_func_glength8val_realEv
081506c0 T _ZN14Item_func_area8val_realEv
08150740 T _ZN11Item_func_y8val_realEv
081507c0 T _ZN11Item_func_x8val_realEv
08150840 T _ZN19Item_func_numpoints7val_intEv
081508d0 T _ZN23Item_func_numgeometries7val_intEv
08150940 T _ZN25Item_func_numinteriorring7val_intEv
081509b0 T _ZN19Item_func_dimension7val_intEv
08150a40 T _ZN15Item_func_point7val_strEP6String
08150b10 T _ZN21Item_func_spatial_rel7val_intEv
08151130 T _ZN26Item_func_spatial_decomp_n7val_strEP6String
081512b0 T _ZN24Item_func_spatial_decomp7val_strEP6String
081513f0 T _ZN18Item_func_centroid7val_strEP6String
08151510 T _ZN18Item_func_envelope7val_strEP6String
08151620 T _ZN16Item_func_as_wkb7val_strEP6String
081516f0 T _ZN27Item_func_geometry_from_wkb7val_strEP6String
08151800 T _ZN16Item_func_as_wkt7val_strEP6String
08151950 T _ZN28Item_func_geometry_from_text7val_strEP6String
08151a80 T _ZN28Item_func_spatial_collection7val_strEP6String
08151e60 T _ZN18Item_func_isclosed7val_intEv
08151f20 T _ZN17Item_func_isempty7val_intEv
08151fd0 T _ZN18Item_func_issimple7val_intEv
08152070 W _ZNK18Item_geometry_func10field_typeEv
08152080 W _ZN18Item_geometry_func7is_nullEv
081520a0 W _ZNK28Item_func_geometry_from_text9func_nameEv
081520b0 W _ZNK27Item_func_geometry_from_wkb9func_nameEv
081520c0 W _ZNK16Item_func_as_wkt9func_nameEv
081520d0 W _ZNK16Item_func_as_wkb9func_nameEv
081520e0 W _ZNK16Item_func_as_wkb10field_typeEv
081520f0 W _ZNK23Item_func_geometry_type9func_nameEv
08152100 W _ZN23Item_func_geometry_type18fix_length_and_decEv
08152120 W _ZNK18Item_func_centroid9func_nameEv
08152130 W _ZNK18Item_func_envelope9func_nameEv
08152140 W _ZNK15Item_func_point9func_nameEv
08152150 W _ZNK24Item_func_spatial_decomp9func_nameEv
08152190 W _ZNK26Item_func_spatial_decomp_n9func_nameEv
081521d0 W _ZNK28Item_func_spatial_collection9func_nameEv
081521e0 W _ZNK21Item_func_spatial_rel8functypeEv
08152210 W _ZNK21Item_func_spatial_rel12rev_functypeEv
08152220 W _ZNK21Item_func_spatial_rel9func_nameEv
08152290 W _ZN21Item_func_spatial_rel18fix_length_and_decEv
081522a0 W _ZN21Item_func_spatial_rel7is_nullEv
081522c0 W _ZNK17Item_func_isempty15select_optimizeEv
081522d0 W _ZNK17Item_func_isempty9func_nameEv
081522e0 W _ZN17Item_func_isempty18fix_length_and_decEv
081522f0 W _ZNK18Item_func_issimple15select_optimizeEv
08152300 W _ZNK18Item_func_issimple9func_nameEv
08152310 W _ZN18Item_func_issimple18fix_length_and_decEv
08152320 W _ZNK18Item_func_isclosed15select_optimizeEv
08152330 W _ZNK18Item_func_isclosed9func_nameEv
08152340 W _ZN18Item_func_isclosed18fix_length_and_decEv
08152350 W _ZNK19Item_func_dimension9func_nameEv
08152360 W _ZN19Item_func_dimension18fix_length_and_decEv
08152380 W _ZNK11Item_func_x9func_nameEv
08152390 W _ZN11Item_func_x18fix_length_and_decEv
081523b0 W _ZNK11Item_func_y9func_nameEv
081523c0 W _ZNK23Item_func_numgeometries9func_nameEv
081523d0 W _ZN23Item_func_numgeometries18fix_length_and_decEv
081523f0 W _ZNK25Item_func_numinteriorring9func_nameEv
08152400 W _ZN25Item_func_numinteriorring18fix_length_and_decEv
08152420 W _ZNK19Item_func_numpoints9func_nameEv
08152430 W _ZN19Item_func_numpoints18fix_length_and_decEv
08152450 W _ZNK14Item_func_area9func_nameEv
08152460 W _ZNK17Item_func_glength9func_nameEv
08152470 W _ZNK14Item_func_srid9func_nameEv
08152480 W _ZN14Item_func_srid18fix_length_and_decEv
081524a0 W _ZN21Item_func_spatial_rel5printEP6String
081524b0 W _ZN17Item_func_glength18fix_length_and_decEv
081524d0 W _ZN14Item_func_area18fix_length_and_decEv
081524f0 W _ZN11Item_func_y18fix_length_and_decEv
08152510 W _ZN18Item_func_isclosedD0Ev
08152560 W _ZN21Item_func_spatial_relD1Ev
08152630 W _ZN18Item_func_isclosedD1Ev
08152680 W _ZN16Item_func_as_wkbD0Ev
081526d0 W _ZN21Item_func_spatial_relD0Ev
081527a0 W _ZN19Item_func_numpointsD0Ev
08152830 W _ZN25Item_func_numinteriorringD0Ev
081528c0 W _ZN19Item_func_dimensionD0Ev
08152950 W _ZN23Item_func_numgeometriesD0Ev
081529e0 W _ZN25Item_func_numinteriorringD1Ev
08152a70 W _ZN17Item_func_isemptyD0Ev
08152ac0 W _ZN14Item_func_sridD0Ev
08152b50 W _ZN19Item_func_dimensionD1Ev
08152be0 W _ZN17Item_func_isemptyD1Ev
08152c30 W _ZN18Item_func_issimpleD0Ev
08152c80 W _ZN23Item_func_numgeometriesD1Ev
08152d10 W _ZN18Item_func_issimpleD1Ev
08152d60 W _ZN19Item_func_numpointsD1Ev
08152df0 W _ZN14Item_func_sridD1Ev
08152e80 W _ZN18Item_geometry_funcD1Ev
08152ed0 W _ZN17Item_func_glengthD1Ev
08152f60 W _ZN16Item_func_as_wktD0Ev
08152fb0 W _ZN16Item_func_as_wktD1Ev
08153000 W _ZN18Item_geometry_funcD0Ev
08153050 W _ZN23Item_func_geometry_typeD0Ev
081530a0 W _ZN18Item_func_centroidD0Ev
081530f0 W _ZN23Item_func_geometry_typeD1Ev
08153140 W _ZN11Item_func_xD1Ev
081531d0 W _ZN11Item_func_xD0Ev
08153260 W _ZN11Item_func_yD1Ev
081532f0 W _ZN17Item_func_glengthD0Ev
08153380 W _ZN14Item_func_areaD1Ev
08153410 W _ZN28Item_func_spatial_collectionD1Ev
081534a0 W _ZN14Item_func_areaD0Ev
08153530 W _ZN11Item_func_yD0Ev
081535c0 W _ZN18Item_func_centroidD1Ev
08153610 W _ZN24Item_func_spatial_decompD0Ev
08153660 W _ZN28Item_func_geometry_from_textD1Ev
081536b0 W _ZN26Item_func_spatial_decomp_nD1Ev
08153700 W _ZN28Item_func_geometry_from_textD0Ev
08153750 W _ZN24Item_func_spatial_decompD1Ev
081537a0 W _ZN16Item_func_as_wkbD1Ev
081537f0 W _ZN15Item_func_pointD1Ev
08153840 W _ZN27Item_func_geometry_from_wkbD1Ev
08153890 W _ZN26Item_func_spatial_decomp_nD0Ev
081538e0 W _ZN18Item_func_envelopeD1Ev
08153930 W _ZN15Item_func_pointD0Ev
08153980 W _ZN27Item_func_geometry_from_wkbD0Ev
081539d0 W _ZN28Item_func_spatial_collectionD0Ev
08153a60 W _ZN18Item_func_envelopeD0Ev
08153b00 T _ZN5Field22type_can_have_key_partE16enum_field_types
08153b30 T _ZN5FieldC2EPcjPhhNS_5utypeEPKcP8st_table
08153bd0 T _ZN9Field_numC1EPcjPhhN5Field5utypeEPKcP8st_tablehbb
08153c70 T _ZN9Field_numC2EPcjPhhN5Field5utypeEPKcP8st_tablehbb
08153d10 T _ZN5Field6offsetEv
08153d30 T _ZN5Field11val_decimalEP10my_decimal
08153d40 T _ZN5Field10make_fieldEP10Send_field
08153df0 T _ZN9Field_strC2EPcjPhhN5Field5utypeEPKcP8st_tableP15charset_info_st
08153e70 T _ZN9Field_strC1EPcjPhhN5Field5utypeEPKcP8st_tableP15charset_info_st
08153ef0 T _ZN9Field_num10make_fieldEP10Send_field
08153f20 T _ZN5Field16fill_cache_fieldEP14st_cache_field
08153fc0 T _ZN5Field14optimize_rangeEjj
08154000 T _ZN5Field13new_key_fieldEP11st_mem_rootP8st_tablePcPhj
08154050 T _ZN13Field_decimal8val_realEv
08154090 T _ZN13Field_decimal7val_intEv
08154110 T _ZN13Field_decimal3cmpEPKcS1_
081541f0 T _ZN10Field_tiny8val_realEv
08154220 T _ZN10Field_tiny7val_intEv
08154240 T _ZN10Field_tiny11send_binaryEP8Protocol
08154280 T _ZN10Field_tiny3cmpEPKcS1_
081542d0 T _ZN10Field_tiny11sort_stringEPcj
08154300 T _ZN11Field_short8val_realEv
08154330 T _ZN11Field_short7val_intEv
08154360 T _ZN11Field_short11send_binaryEP8Protocol
081543a0 T _ZN11Field_short3cmpEPKcS1_
081543f0 T _ZN11Field_short11sort_stringEPcj
08154430 T _ZN12Field_medium8val_realEv
081544a0 T _ZN12Field_medium7val_intEv
08154510 T _ZN12Field_medium11send_binaryEP8Protocol
08154550 T _ZN12Field_medium3cmpEPKcS1_
08154610 T _ZN12Field_medium11sort_stringEPcj
08154650 T _ZN10Field_long8val_realEv
08154680 T _ZN10Field_long7val_intEv
081546a0 T _ZN10Field_long11send_binaryEP8Protocol
081546e0 T _ZN10Field_long3cmpEPKcS1_
08154720 T _ZN10Field_long11sort_stringEPcj
08154770 T _ZN14Field_longlong11sort_stringEPcj
081547e0 T _ZN11Field_float5storeExb
08154840 T _ZN12Field_double5storeExb
081548a0 T _ZN12Field_double8val_realEv
081548c0 T _ZN12Field_double11send_binaryEP8Protocol
08154910 T _ZN12Field_double3cmpEPKcS1_
08154970 T _ZN15Field_timestampC2EPcjPhhN5Field5utypeEPKcP8st_tableP15charset_info_st
08154a00 T _ZN15Field_timestampC1EPcjPhhN5Field5utypeEPKcP8st_tableP15charset_info_st
08154a90 T _ZN15Field_timestampC2EbPKcP8st_tableP15charset_info_st
08154b30 T _ZN15Field_timestampC1EbPKcP8st_tableP15charset_info_st
08154bd0 T _ZNK15Field_timestamp17get_auto_set_typeEv
08154c10 T _ZN15Field_timestamp3cmpEPKcS1_
08154c30 T _ZN15Field_timestamp11sort_stringEPcj
08154c70 T _ZN10Field_time8val_realEv
08154c90 T _ZN10Field_time7val_intEv
08154ce0 T _ZN10Field_time8get_timeEP13st_mysql_time
08154da0 T _ZN10Field_time11send_binaryEP8Protocol
08154df0 T _ZN10Field_time3cmpEPKcS1_
08154e90 T _ZN10Field_time11sort_stringEPcj
08154ec0 T _ZN10Field_year7val_intEv
08154f10 T _ZN10Field_year8val_realEv
08154f30 T _ZN10Field_year11send_binaryEP8Protocol
08154f70 T _ZN10Field_date8val_realEv
08154f90 T _ZN10Field_date7val_intEv
08154fa0 T _ZN10Field_date11send_binaryEP8Protocol
08155030 T _ZN10Field_date3cmpEPKcS1_
08155050 T _ZN10Field_date11sort_stringEPcj
08155090 T _ZN13Field_newdate7val_intEv
081550e0 T _ZN13Field_newdate8val_realEv
08155100 T _ZN13Field_newdate8get_dateEP13st_mysql_timej
08155170 T _ZN13Field_newdate11send_binaryEP8Protocol
081551b0 T _ZN13Field_newdate8get_timeEP13st_mysql_time
081551e0 T _ZN13Field_newdate3cmpEPKcS1_
08155210 T _ZN13Field_newdate11sort_stringEPcj
08155240 T _ZN14Field_datetime11sort_stringEPcj
081552a0 T _ZN12Field_string3cmpEPKcS1_
08155360 T _ZN12Field_string11sort_stringEPcj
081553a0 T _ZN12Field_string8pack_cmpEPKcS1_jc
08155430 T _ZN12Field_string8pack_cmpEPKcjc
081554b0 T _ZN12Field_string17packed_col_lengthEPKcj
081554d0 T _ZN12Field_string21max_packed_col_lengthEj
081554f0 T _ZN15Field_varstring8val_realEv
08155550 T _ZN15Field_varstring7val_intEv
081555c0 T _ZN15Field_varstring3cmpEPKcS1_
08155630 T _ZN15Field_varstring7key_cmpEPKcj
081556d0 T _ZN15Field_varstring7key_cmpEPKcS1_
08155720 T _ZN15Field_varstring11sort_stringEPcj
081557c0 T _ZNK15Field_varstring8key_typeEv
08155800 T _ZN15Field_varstring11data_lengthEPKc
08155820 T _ZN15Field_varstring8pack_cmpEPKcS1_jc
081558b0 T _ZN15Field_varstring8pack_cmpEPKcjc
081559a0 T _ZN15Field_varstring17packed_col_lengthEPKcj
081559c0 T _ZN15Field_varstring21max_packed_col_lengthEj
081559e0 T _ZN15Field_varstring13new_key_fieldEP11st_mem_rootP8st_tablePcPhj
08155a30 T _ZN10Field_blobC1EPcPhhN5Field5utypeEPKcP8st_tablejP15charset_info_st
08155af0 T _ZN10Field_blob12store_lengthEj
08155b50 T _ZN10Field_blob10get_lengthEPKc
08155ba0 T _ZN10Field_blob10put_lengthEPcj
08155bf0 T _ZN10Field_blob3cmpEPKcjS1_j
08155c30 T _ZN10Field_blob7key_cmpEPKcS1_
08155c70 T _ZN10Field_blob8pack_cmpEPKcS1_jc
08155d00 T _ZN10Field_blob17packed_col_lengthEPKcj
08155d20 T _ZN10Field_blob21max_packed_col_lengthEj
08155d40 T _ZNK10Field_enum8key_typeEv
08155d90 T _ZN5Field6eq_defEPS_
08155e10 T _ZN9Field_num6eq_defEP5Field
08155e80 T _ZN9Field_bitC2EPcjPhhS1_hN5Field5utypeEPKcP8st_table
08155f20 T _ZN9Field_bitC1EPcjPhhS1_hN5Field5utypeEPKcP8st_table
08155fc0 T _ZN9Field_bit13new_key_fieldEP11st_mem_rootP8st_tablePcPhj
08156020 T _ZN9Field_bit5storeEd
08156060 T _ZN9Field_bit5storeExb
081560d0 T _ZN9Field_bit7val_intEv
081563b0 T _ZN9Field_bit8val_realEv
081563d0 T _ZN17Field_bit_as_charC2EPcjPhhN5Field5utypeEPKcP8st_table
08156450 T _ZN17Field_bit_as_charC1EPcjPhhN5Field5utypeEPKcP8st_table
081564d0 T _ZN12create_field18init_for_tmp_tableE16enum_field_typesjjbb
08156540 T _Z25get_blob_type_from_lengthm
08156570 T _Z23pack_length_to_packflagj
081565c0 T _ZN10Field_blob18max_display_lengthEv
08156630 T _ZN9Field_bit6unpackEPcPKc
081566f0 T _ZN9Field_bit4packEPcPKcj
08156770 T _ZN9Field_bit13get_key_imageEPcjN5Field9imagetypeE
081567f0 T _ZN10Field_enum7val_intEv
08156870 T _ZN10Field_enum11sort_stringEPcj
081568c0 T _ZN10Field_enum3cmpEPKcS1_
08156940 T _ZN10Field_enum8val_realEv
08156960 T _ZN10Field_enum10store_typeEy
081569f0 T _ZN10Field_blob23pack_key_from_key_imageEPcPKcj
08156a50 T _ZN10Field_blob10unpack_keyEPcPKcj
08156ad0 T _ZN10Field_blob8pack_cmpEPKcjc
08156b70 T _ZN10Field_blob6unpackEPcPKc
08156be0 T _ZN10Field_blob11sort_stringEPcj
08156cf0 T _ZN10Field_blob7key_cmpEPKcj
08156d90 T _ZN10Field_blob3cmpEPKcS1_
08156e00 T _ZN10Field_blob7val_intEv
08156e90 T _ZN10Field_blob8val_realEv
08156f00 T _ZN15Field_varstring13get_key_imageEPcjN5Field9imagetypeE
08156fc0 T _ZN15Field_varstring6unpackEPcPKc
08157030 T _ZN15Field_varstring23pack_key_from_key_imageEPcPKcj
08157090 T _ZN15Field_varstring10unpack_keyEPcPKcj
081570f0 T _ZN15Field_varstring8pack_keyEPcPKcj
081571b0 T _ZN15Field_varstring4packEPcPKcj
08157240 T _ZN12Field_string13get_key_imageEPcjN5Field9imagetypeE
081572e0 T _ZN12Field_string4packEPcPKcj
08157390 T _ZN14Field_datetime3cmpEPKcS1_
08157400 T _ZN14Field_datetime7val_intEv
08157420 T _ZN14Field_datetime8get_dateEP13st_mysql_timej
08157530 T _ZN14Field_datetime8get_timeEP13st_mysql_time
08157560 T _ZN14Field_datetime11send_binaryEP8Protocol
081575b0 T _ZN14Field_datetime8val_realEv
081575d0 T _ZN11Field_float11sort_stringEPcj
08157680 T _ZN11Field_float3cmpEPKcS1_
081576c0 T _ZN11Field_float8val_realEv
081576e0 T _ZN11Field_float11send_binaryEP8Protocol
08157730 T _ZN14Field_longlong3cmpEPKcS1_
081577e0 T _ZN14Field_longlong7val_intEv
08157800 T _ZN14Field_longlong11send_binaryEP8Protocol
08157850 T _ZN14Field_longlong8val_realEv
081578a0 T _ZN17Field_new_decimal11sort_stringEPcj
081578c0 T _ZN13Field_decimal11sort_stringEPcj
08157960 T _ZN5Field13copy_from_tmpEi
081579b0 T _ZN9Field_bit10cmp_offsetEj
08157a50 T _ZN9Field_bit7key_cmpEPKcj
08157ad0 T _ZN10Field_blob10cmp_binaryEPKcS1_j
08157b70 T _ZN15Field_varstring10cmp_binaryEPKcS1_j
08157bf0 T _ZN17Field_new_decimal3cmpEPKcS1_
08157c30 T _ZN9Field_str5storeEd
08157e70 T _Z16calc_pack_length16enum_field_typesj
08158020 T _ZN17Field_new_decimalC1EPcjPhhN5Field5utypeEPKcP8st_tablehbb
081580e0 T _ZN17Field_new_decimalC2EPcjPhhN5Field5utypeEPKcP8st_tablehbb
081581a0 T _ZN12Field_string6unpackEPcPKc
08158210 T _ZN9Field_num11val_decimalEP10my_decimal
08158270 T _ZN10Field_enum6eq_defEP5Field
08158340 T _ZNK9Field_num25add_zerofill_and_unsignedER6String
081583a0 T _ZN10Field_geom13store_decimalEPK10my_decimal
081583d0 T _ZN10Field_geom5storeExb
08158400 T _ZN10Field_geom5storeEd
08158430 T _ZNK10Field_blob8sql_typeER6String
08158500 T _ZNK14Field_datetime8sql_typeER6String
08158530 T _ZNK13Field_newdate8sql_typeER6String
08158560 T _ZNK10Field_date8sql_typeER6String
08158590 T _ZNK10Field_time8sql_typeER6String
081585c0 T _ZNK15Field_timestamp8sql_typeER6String
081585f0 T _ZNK10Field_null8sql_typeER6String
08158620 T _ZN10Field_blob11val_decimalEP10my_decimal
08158690 T _ZN15Field_varstring11val_decimalEP10my_decimal
08158700 T _ZN12Field_double11sort_stringEPcj
08158720 T _ZN17Field_new_decimal21set_value_on_overflowEP10my_decimalb
08158790 T _ZN11Field_float7val_intEv
081587d0 T _ZN5Field9new_fieldEP11st_mem_rootP8st_tableb
08158880 T _ZN10Field_enum9new_fieldEP11st_mem_rootP8st_tableb
081588e0 T _ZN15Field_varstring9new_fieldEP11st_mem_rootP8st_tableb
08158920 T _ZN5Field10store_timeEP13st_mysql_time25enum_mysql_timestamp_type
08158970 T _ZN9Field_num13prepend_zerosEP6String
081589f0 T _ZN5Field14val_int_as_strEP6Stringc
08158a90 T _ZNK11Field_short8sql_typeER6String
08158af0 T _ZNK17Field_bit_as_char8sql_typeER6String
08158b30 T _ZNK9Field_bit8sql_typeER6String
08158b70 T _ZNK15Field_varstring8sql_typeER6String
08158c60 T _ZNK12Field_string8sql_typeER6String
08158d80 T _ZNK10Field_year8sql_typeER6String
08158dc0 T _ZNK12Field_double8sql_typeER6String
08158e40 T _ZNK11Field_float8sql_typeER6String
08158ec0 T _ZNK13Field_decimal8sql_typeER6String
08158f30 T _ZNK10Field_tiny8sql_typeER6String
08158f90 T _ZNK17Field_new_decimal8sql_typeER6String
08158ff0 T _ZNK14Field_longlong8sql_typeER6String
08159050 T _ZNK10Field_long8sql_typeER6String
081590b0 T _ZNK12Field_medium8sql_typeER6String
08159110 T _ZN17Field_new_decimal7val_strEP6StringS1_
08159190 T _ZN13Field_decimal7val_strEP6StringS1_
08159210 T _ZN5Field17result_merge_typeE16enum_field_types
08159230 T _ZN5Field16field_type_mergeE16enum_field_typesS0_
08159260 T _ZN5FieldC1EPcjPhhNS_5utypeEPKcP8st_table
08159300 T _ZN10Field_geom5storeEPKcjP15charset_info_st
08159440 T _ZN10Field_real13store_decimalEPK10my_decimal
08159480 T _ZN17Field_new_decimal8val_realEv
081594c0 T _ZN10Field_blobC2EPcPhhN5Field5utypeEPKcP8st_tablejP15charset_info_st
08159580 T _ZN12create_field32create_length_to_internal_lengthEv
08159690 T _ZN17Field_new_decimalC1EjbPKcP8st_tablehb
08159750 T _ZN17Field_new_decimalC2EjbPKcP8st_tablehb
08159810 T _ZN12Field_string9new_fieldEP11st_mem_rootP8st_tableb
08159950 T _Z10make_fieldPcjPhhj16enum_field_typesP15charset_info_stN5Field13geometry_typeENS4_5utypeEP10st_typelibPKcP8st_table
0815a590 T _ZN10Field_real11val_decimalEP10my_decimal
0815a600 T _ZN17Field_new_decimal11val_decimalEP10my_decimal
0815a640 T _ZN10Field_geom13get_key_imageEPcjN5Field9imagetypeE
0815a710 T _ZN10Field_blob8pack_keyEPcPKcj
0815a7f0 T _ZN10Field_blob4packEPcPKcj
0815a8a0 T _ZN10Field_blob13get_key_imageEPcjN5Field9imagetypeE
0815aa20 T _ZN5Field11set_warningEN11MYSQL_ERROR18enum_warning_levelEji
0815aab0 T _ZN17Field_bit_as_char5storeEPKcjP15charset_info_st
0815ac00 T _ZN9Field_bit5storeEPKcjP15charset_info_st
0815af30 T _ZN9Field_set5storeExb
0815aff0 T _ZN10Field_enum5storeExb
0815b0a0 T _ZN10Field_enum5storeEd
0815b0e0 T _ZN15Field_varstring5storeEPKcjP15charset_info_st
0815b250 T _ZN15Field_varstring13set_key_imageEPcj
0815b280 T _ZN15Field_varstring5storeExb
0815b300 T _ZN10Field_year5storeExb
0815b3e0 T _ZN10Field_year5storeEd
0815b460 T _ZN10Field_real8truncateEPdd
0815b6a0 T _ZN12Field_double5storeEd
0815b6f0 T _ZN11Field_float5storeEd
0815b740 T _ZN12Field_double5storeEPKcjP15charset_info_st
0815b800 T _ZN11Field_float5storeEPKcjP15charset_info_st
0815b8c0 T _ZN14Field_longlong5storeExb
0815b950 T _ZN14Field_longlong5storeEd
0815ba90 T _ZN10Field_long5storeExb
0815bb70 T _ZN10Field_long5storeEd
0815bc90 T _ZN12Field_medium5storeExb
0815bdf0 T _ZN12Field_medium5storeEd
0815bf60 T _ZN11Field_short5storeExb
0815c0e0 T _ZN11Field_short5storeEd
0815c260 T _ZN10Field_tiny5storeExb
0815c330 T _ZN10Field_tiny5storeEd
0815c440 T _ZN13Field_decimal8overflowEb
0815c520 T _ZN13Field_decimal5storeExb
0815c680 T _ZN13Field_decimal5storeEd
0815c7e0 T _ZN5Field16warn_if_overflowEi
0815c850 T _ZN17Field_new_decimal11store_valueEPK10my_decimal
0815c950 T _ZN17Field_new_decimal10store_timeEP13st_mysql_time25enum_mysql_timestamp_type
0815c990 T _ZN17Field_new_decimal13store_decimalEPK10my_decimal
0815c9b0 T _ZN17Field_new_decimal5storeEd
0815caf0 T _ZN17Field_new_decimal5resetEv
0815cb10 T _ZN9Field_str13store_decimalEPK10my_decimal
0815cb60 T _ZNK10Field_blob11sort_lengthEv
0815cba0 T _ZN10Field_time8get_dateEP13st_mysql_timej
0815ccf0 T _ZN15Field_timestamp8set_timeEv
0815cd40 T _ZN15Field_timestamp8get_dateEP13st_mysql_timej
0815cdd0 T _ZN15Field_timestamp11send_binaryEP8Protocol
0815ce10 T _ZN15Field_timestamp8get_timeEP13st_mysql_time
0815ce40 T _ZN15Field_timestamp7val_intEv
0815cf10 T _ZN15Field_timestamp8val_realEv
0815cf30 T _ZN5Field20set_datetime_warningEN11MYSQL_ERROR18enum_warning_levelEjd25enum_mysql_timestamp_type
0815d000 T _ZN10Field_time5storeEd
0815d1c0 T _ZN5Field20set_datetime_warningEN11MYSQL_ERROR18enum_warning_levelEjx25enum_mysql_timestamp_typei
0815d2a0 T _ZN10Field_time5storeExb
0815d450 T _ZN10Field_time10store_timeEP13st_mysql_time25enum_mysql_timestamp_type
0815d4c0 T _ZN15Field_timestamp5storeExb
0815d680 T _ZN15Field_timestamp5storeEd
0815d720 T _ZN5Field20set_datetime_warningEN11MYSQL_ERROR18enum_warning_levelEjPKcj25enum_mysql_timestamp_typei
0815d7f0 T _ZN14Field_datetime5storeEPKcjP15charset_info_st
0815d8d0 T _ZN10Field_date5storeEPKcjP15charset_info_st
0815d9b0 T _ZN10Field_time5storeEPKcjP15charset_info_st
0815db20 T _ZN15Field_timestamp5storeEPKcjP15charset_info_st
0815dce0 T _ZN13Field_newdate5storeExb
0815deb0 T _ZN13Field_newdate5storeEd
0815df60 T _ZN13Field_newdate5storeEPKcjP15charset_info_st
0815e0c0 T _ZN10Field_date5storeExb
0815e230 T _ZN10Field_date5storeEd
0815e320 T _ZN14Field_datetime5storeExb
0815e420 T _ZN14Field_datetime5storeEd
0815e4c0 T _ZN12Field_string11val_decimalEP10my_decimal
0815e620 T _ZN13Field_decimal5storeEPKcjP15charset_info_st
0815f070 T _ZN13Field_decimal5resetEv
0815f0a0 T _ZN9Field_num9check_intEP15charset_info_stPKciS3_i
0815f200 T _ZN10Field_year5storeEPKcjP15charset_info_st
0815f370 T _ZN14Field_longlong5storeEPKcjP15charset_info_st
0815f450 T _ZN9Field_num7get_intEP15charset_info_stPKcjPxyxx
0815f5e0 T _ZN10Field_long5storeEPKcjP15charset_info_st
0815f650 T _ZN12Field_medium5storeEPKcjP15charset_info_st
0815f6e0 T _ZN11Field_short5storeEPKcjP15charset_info_st
0815f750 T _ZN10Field_tiny5storeEPKcjP15charset_info_st
0815f7c0 T _ZN9Field_bit7val_strEP6StringS1_
0815f880 T _ZN14Field_datetime7val_strEP6StringS1_
0815faa0 T _ZN13Field_newdate7val_strEP6StringS1_
0815fbb0 T _ZN10Field_date7val_strEP6StringS1_
0815fc60 T _ZN10Field_year7val_strEP6StringS1_
0815fce0 T _ZN10Field_time7val_strEP6StringS1_
0815fdf0 T _ZN12Field_double7val_strEP6StringS1_
0815ff10 T _ZN11Field_float7val_strEP6StringS1_
08160010 T _ZN14Field_longlong7val_strEP6StringS1_
081600d0 T _ZN10Field_long7val_strEP6StringS1_
08160180 T _ZN12Field_medium7val_strEP6StringS1_
08160270 T _ZN11Field_short7val_strEP6StringS1_
08160320 T _ZN10Field_tiny7val_strEP6StringS1_
081603d0 T _ZN12Field_string5storeEPKcjP15charset_info_st
08160520 T _ZN12Field_string5storeExb
081605c0 T _ZN10Field_blob5storeEPKcjP15charset_info_st
08160890 T _ZN10Field_blob13set_key_imageEPcj
081608c0 T _ZN10Field_blob5storeExb
08160960 T _ZN10Field_blob5storeEd
081609d0 T _ZN5Field8get_dateEP13st_mysql_timej
08160a70 T _ZN5Field8get_timeEP13st_mysql_time
08160b00 T _ZN5Field11send_binaryEP8Protocol
08160ba0 T _ZN12create_field4initEP3THDPc16enum_field_typesS2_S2_jP4ItemS5_P13st_lex_stringS2_P4ListI6StringEP15charset_info_stj
08161580 T _ZN12Field_string7val_intEv
08161750 T _ZN12Field_string8val_realEv
08161900 T _ZN13Field_longstr13store_decimalEPK10my_decimal
081619a0 T _ZN12create_fieldC1EP5FieldS1_
08161dc0 T _ZN9Field_set5storeEPKcjP15charset_info_st
08161ff0 T _ZN12create_fieldC2EP5FieldS1_
08162410 T _ZN9Field_bit11val_decimalEP10my_decimal
08162450 T _ZN17Field_new_decimal5storeExb
08162540 T _ZN9Field_str11val_decimalEP10my_decimal
08162580 T _ZNK9Field_set8sql_typeER6String
08162700 T _ZN5Field24convert_decimal2longlongEPK10my_decimalbPi
08162890 T _ZN9Field_bit13store_decimalEPK10my_decimal
081628f0 T _ZN9Field_num13store_decimalEPK10my_decimal
08162950 T _ZN17Field_new_decimal7val_intEv
081629f0 T _ZN14Field_datetime10store_timeEP13st_mysql_time25enum_mysql_timestamp_type
08162bb0 T _ZN10Field_enum5storeEPKcjP15charset_info_st
08162da0 T _ZN12Field_double7val_intEv
08162f40 T _ZN9Field_set7val_strEP6StringS1_
08163080 T _ZN13Field_newdate10store_timeEP13st_mysql_time25enum_mysql_timestamp_type
081632e0 T _ZNK10Field_enum8sql_typeER6String
08163460 T _ZN17Field_new_decimal5storeEPKcjP15charset_info_st
08163770 T _ZN10Field_enum7val_strEP6StringS1_
08163850 T _ZN15Field_varstring7val_strEP6StringS1_
081638e0 T _ZN15Field_timestamp7val_strEP6StringS1_
08163b00 T _ZN12Field_string7val_strEP6StringS1_
08163b90 T _ZN10Field_blob7val_strEP6StringS1_
08163c80 T _ZNK10Field_geom8sql_typeER6String
08163f40 W _ZN5FieldD0Ev
08163f50 W _ZNK5Field8cmp_typeEv
08163f60 W _ZNK5Field16cast_to_int_typeEv
08163f70 W _ZN5Field2eqEPS_
08163fa0 W _ZNK5Field11pack_lengthEv
08163fb0 W _ZNK5Field18pack_length_in_recEv
08163fc0 W _ZN5Field11data_lengthEPKc
08163fd0 W _ZNK5Field11sort_lengthEv
08163fe0 W _ZN5Field12reset_fieldsEv
08163ff0 W _ZNK5Field6binaryEv
08164000 W _ZNK5Field9zero_packEv
08164010 W _ZNK5Field8key_typeEv
08164020 W _ZNK5Field10key_lengthEv
08164030 W _ZNK5Field9real_typeEv
08164040 W _ZN5Field10cmp_offsetEj
08164070 W _ZN5Field17cmp_binary_offsetEj
081640b0 W _ZN5Field7key_cmpEPKcS1_
081640c0 W _ZN5Field7key_cmpEPKcj
081640e0 W _ZNK5Field8decimalsEv
081640f0 W _ZNK5Field27can_be_compared_as_longlongEv
08164100 W _ZN5Field4freeEv
08164110 W _ZN5Field10move_fieldEl
08164130 W _ZN5Field13get_key_imageEPcjNS_9imagetypeE
08164170 W _ZN5Field13set_key_imageEPcj
081641a0 W _ZN5Field8pack_keyEPcPKcj
081641c0 W _ZN5Field23pack_key_from_key_imageEPcPKcj
081641e0 W _ZN5Field10unpack_keyEPcPKcj
08164200 W _ZN5Field17packed_col_lengthEPKcj
08164210 W _ZN5Field21max_packed_col_lengthEj
08164220 W _ZN5Field8pack_cmpEPKcS1_jc
08164230 W _ZN5Field8pack_cmpEPKcjc
08164250 W _ZNK5Field7charsetEv
08164260 W _ZNK5Field12sort_charsetEv
08164280 W _ZNK5Field11has_charsetEv
08164290 W _ZN5Field11set_charsetEP15charset_info_st
081642a0 W _ZNK5Field10derivationEv
081642b0 W _ZN5Field14set_derivationE10Derivation
081642c0 W _ZN5Field17get_geometry_typeEv
081642d0 W _ZNK9Field_num11result_typeEv
081642e0 W _ZNK9Field_num8decimalsEv
081642f0 W _ZNK9Field_num7size_ofEv
08164300 W _ZNK9Field_str11result_typeEv
08164310 W _ZNK9Field_str8decimalsEv
08164320 W _ZNK9Field_str7size_ofEv
08164330 W _ZNK9Field_str7charsetEv
08164340 W _ZN9Field_str11set_charsetEP15charset_info_st
08164350 W _ZNK9Field_str10derivationEv
08164360 W _ZN9Field_str14set_derivationE10Derivation
08164370 W _ZNK9Field_str6binaryEv
08164390 W _ZN9Field_str18max_display_lengthEv
081643a0 W _ZN10Field_real18max_display_lengthEv
081643b0 W _ZNK10Field_real7size_ofEv
081643c0 W _ZNK13Field_decimal4typeEv
081643d0 W _ZNK13Field_decimal8key_typeEv
081643f0 W _ZNK13Field_decimal9zero_packEv
08164400 W _ZNK17Field_new_decimal4typeEv
08164410 W _ZNK17Field_new_decimal8key_typeEv
08164420 W _ZNK17Field_new_decimal11result_typeEv
08164430 W _ZNK17Field_new_decimal9zero_packEv
08164440 W _ZN17Field_new_decimal18max_display_lengthEv
08164450 W _ZNK17Field_new_decimal7size_ofEv
08164460 W _ZNK17Field_new_decimal11pack_lengthEv
08164470 W _ZNK10Field_tiny11result_typeEv
08164480 W _ZNK10Field_tiny4typeEv
08164490 W _ZNK10Field_tiny8key_typeEv
081644b0 W _ZN10Field_tiny5resetEv
081644c0 W _ZNK10Field_tiny11pack_lengthEv
081644d0 W _ZN10Field_tiny18max_display_lengthEv
081644e0 W _ZNK11Field_short11result_typeEv
081644f0 W _ZNK11Field_short4typeEv
08164500 W _ZNK11Field_short8key_typeEv
08164520 W _ZN11Field_short5resetEv
08164540 W _ZNK11Field_short11pack_lengthEv
08164550 W _ZN11Field_short18max_display_lengthEv
08164560 W _ZNK12Field_medium11result_typeEv
08164570 W _ZNK12Field_medium4typeEv
08164580 W _ZNK12Field_medium8key_typeEv
081645a0 W _ZN12Field_medium5resetEv
081645c0 W _ZNK12Field_medium11pack_lengthEv
081645d0 W _ZN12Field_medium18max_display_lengthEv
081645e0 W _ZNK10Field_long11result_typeEv
081645f0 W _ZNK10Field_long4typeEv
08164600 W _ZNK10Field_long8key_typeEv
08164620 W _ZN10Field_long5resetEv
08164640 W _ZNK10Field_long11pack_lengthEv
08164650 W _ZN10Field_long18max_display_lengthEv
08164660 W _ZNK14Field_longlong11result_typeEv
08164670 W _ZNK14Field_longlong4typeEv
08164680 W _ZNK14Field_longlong8key_typeEv
081646a0 W _ZN14Field_longlong5resetEv
081646d0 W _ZNK14Field_longlong11pack_lengthEv
081646e0 W _ZNK14Field_longlong27can_be_compared_as_longlongEv
081646f0 W _ZN14Field_longlong18max_display_lengthEv
08164700 W _ZNK11Field_float4typeEv
08164710 W _ZNK11Field_float8key_typeEv
08164720 W _ZNK11Field_float11pack_lengthEv
08164730 W _ZNK12Field_double4typeEv
08164740 W _ZNK12Field_double8key_typeEv
08164750 W _ZNK12Field_double11pack_lengthEv
08164760 W _ZNK10Field_null4typeEv
08164770 W _ZN10Field_null5storeEPKcjP15charset_info_st
08164780 W _ZN10Field_null5storeEd
08164790 W _ZN10Field_null5storeExb
081647a0 W _ZN10Field_null13store_decimalEPK10my_decimal
081647b0 W _ZN10Field_null5resetEv
081647c0 W _ZN10Field_null8val_realEv
081647d0 W _ZN10Field_null7val_intEv
081647e0 W _ZN10Field_null11val_decimalEP10my_decimal
081647f0 W _ZN10Field_null3cmpEPKcS1_
08164800 W _ZN10Field_null11sort_stringEPcj
08164810 W _ZNK10Field_null11pack_lengthEv
08164820 W _ZNK10Field_null7size_ofEv
08164830 W _ZN10Field_null18max_display_lengthEv
08164840 W _ZNK15Field_timestamp4typeEv
08164850 W _ZNK15Field_timestamp8key_typeEv
08164860 W _ZNK15Field_timestamp8cmp_typeEv
08164870 W _ZN15Field_timestamp5resetEv
08164890 W _ZNK15Field_timestamp11pack_lengthEv
081648a0 W _ZNK15Field_timestamp27can_be_compared_as_longlongEv
081648b0 W _ZNK15Field_timestamp9zero_packEv
081648c0 W _ZNK10Field_year4typeEv
081648d0 W _ZNK10Field_year27can_be_compared_as_longlongEv
081648e0 W _ZNK10Field_date4typeEv
081648f0 W _ZNK10Field_date8key_typeEv
08164900 W _ZNK10Field_date8cmp_typeEv
08164910 W _ZN10Field_date5resetEv
08164930 W _ZNK10Field_date11pack_lengthEv
08164940 W _ZNK10Field_date27can_be_compared_as_longlongEv
08164950 W _ZNK10Field_date9zero_packEv
08164960 W _ZNK13Field_newdate4typeEv
08164970 W _ZNK13Field_newdate9real_typeEv
08164980 W _ZNK13Field_newdate8key_typeEv
08164990 W _ZNK13Field_newdate8cmp_typeEv
081649a0 W _ZN13Field_newdate5resetEv
081649c0 W _ZNK13Field_newdate11pack_lengthEv
081649d0 W _ZNK13Field_newdate27can_be_compared_as_longlongEv
081649e0 W _ZNK13Field_newdate9zero_packEv
081649f0 W _ZNK10Field_time4typeEv
08164a00 W _ZNK10Field_time8key_typeEv
08164a10 W _ZNK10Field_time8cmp_typeEv
08164a20 W _ZN10Field_time5resetEv
08164a40 W _ZNK10Field_time11pack_lengthEv
08164a50 W _ZNK10Field_time27can_be_compared_as_longlongEv
08164a60 W _ZNK10Field_time9zero_packEv
08164a70 W _ZNK14Field_datetime4typeEv
08164a80 W _ZNK14Field_datetime8key_typeEv
08164a90 W _ZNK14Field_datetime8cmp_typeEv
08164aa0 W _ZNK14Field_datetime8decimalsEv
08164ab0 W _ZN14Field_datetime5resetEv
08164ae0 W _ZNK14Field_datetime11pack_lengthEv
08164af0 W _ZNK14Field_datetime27can_be_compared_as_longlongEv
08164b00 W _ZNK14Field_datetime9zero_packEv
08164b10 W _ZNK12Field_string4typeEv
08164b50 W _ZNK12Field_string8key_typeEv
08164b70 W _ZNK12Field_string9zero_packEv
08164b80 W _ZN12Field_string5resetEv
08164c00 W _ZNK12Field_string7size_ofEv
08164c10 W _ZNK12Field_string9real_typeEv
08164c20 W _ZNK12Field_string11has_charsetEv
08164c50 W _ZNK15Field_varstring4typeEv
08164c60 W _ZNK15Field_varstring9zero_packEv
08164c70 W _ZNK15Field_varstring11pack_lengthEv
08164c80 W _ZNK15Field_varstring10key_lengthEv
08164c90 W _ZNK15Field_varstring11sort_lengthEv
08164cc0 W _ZNK15Field_varstring7size_ofEv
08164cd0 W _ZNK15Field_varstring9real_typeEv
08164ce0 W _ZNK15Field_varstring11has_charsetEv
08164d10 W _ZNK10Field_blob4typeEv
08164d20 W _ZNK10Field_blob8key_typeEv
08164d40 W _ZNK10Field_blob10key_lengthEv
08164d50 W _ZNK10Field_blob11pack_lengthEv
08164d70 W _ZNK10Field_blob7size_ofEv
08164d80 W _ZNK10Field_blob11has_charsetEv
08164db0 W _ZNK10Field_geom8key_typeEv
08164dc0 W _ZNK10Field_geom4typeEv
08164dd0 W _ZNK10Field_geom7size_ofEv
08164de0 W _ZN10Field_geom17get_geometry_typeEv
08164df0 W _ZNK10Field_enum4typeEv
08164e00 W _ZNK10Field_enum8cmp_typeEv
08164e10 W _ZNK10Field_enum16cast_to_int_typeEv
08164e20 W _ZNK10Field_enum11pack_lengthEv
08164e30 W _ZNK10Field_enum7size_ofEv
08164e40 W _ZNK10Field_enum9real_typeEv
08164e50 W _ZNK10Field_enum9zero_packEv
08164e60 W _ZN10Field_enum14optimize_rangeEjj
08164e70 W _ZNK10Field_enum11has_charsetEv
08164e80 W _ZNK10Field_enum12sort_charsetEv
08164e90 W _ZNK9Field_set9zero_packEv
08164ea0 W _ZNK9Field_set9real_typeEv
08164eb0 W _ZNK9Field_set11has_charsetEv
08164ec0 W _ZNK9Field_bit4typeEv
08164ed0 W _ZNK9Field_bit8key_typeEv
08164ee0 W _ZNK9Field_bit10key_lengthEv
08164f00 W _ZN9Field_bit18max_display_lengthEv
08164f10 W _ZNK9Field_bit7size_ofEv
08164f20 W _ZNK9Field_bit11result_typeEv
08164f30 W _ZN9Field_bit7key_cmpEPKcS1_
08164f60 W _ZN9Field_bit17cmp_binary_offsetEj
08164f70 W _ZN9Field_bit9get_imageEPcjP15charset_info_st
08164f90 W _ZN9Field_bit11sort_stringEPcj
08164fc0 W _ZNK9Field_bit11pack_lengthEv
08164fe0 W _ZNK9Field_bit18pack_length_in_recEv
08164ff0 W _ZNK17Field_bit_as_char8key_typeEv
08165000 W _ZNK17Field_bit_as_char7size_ofEv
08165010 W _ZN17Field_bit_as_char5storeEd
08165020 W _ZN17Field_bit_as_char5storeExb
08165030 W _ZN4ListI12create_fieldEC2Ev
08165050 W _ZN4ListI12create_fieldEC2ERKS1_
08165080 W _ZN4ListI12create_fieldE4headEv
08165090 W _ZN4ListI12create_fieldE8head_refEv
081650b0 W _ZN4ListI12create_fieldE3popEv
081650e0 W _ZN4ListI12create_fieldE6concatEPS1_
08165110 W _ZN4ListI12create_fieldE7disjoinEPS1_
08165160 W _ZN4ListI12create_fieldE7prepandEPS1_
08165190 W _ZN13List_iteratorI12create_fieldEC2ER4ListIS0_E
081651b0 W _ZN13List_iteratorI12create_fieldEC2Ev
081651e0 W _ZN13List_iteratorI12create_fieldE4initER4ListIS0_E
08165200 W _ZN13List_iteratorI12create_fieldEppEi
08165220 W _ZN13List_iteratorI12create_fieldE7replaceEPS0_
08165240 W _ZN13List_iteratorI12create_fieldE7replaceER4ListIS0_E
081652b0 W _ZN13List_iteratorI12create_fieldE6rewindEv
081652c0 W _ZN13List_iteratorI12create_fieldE6removeEv
08165320 W _ZN13List_iteratorI12create_fieldE3refEv
08165330 W _ZN9Field_bit5resetEv
08165360 W _ZN10Field_enum5resetEv
08165390 W _ZN10Field_blob12reset_fieldsEv
081653c0 W _ZN10Field_blob5resetEv
081653f0 W _ZN15Field_varstring5resetEv
08165420 W _ZN12Field_double5resetEv
08165440 W _ZN11Field_float5resetEv
08165460 W _ZN5Field5resetEv
08165490 W _ZN5Field6unpackEPcPKc
081654d0 W _ZN5Field4packEPcPKcj
08165510 W _ZN5Field9set_imageEPcjP15charset_info_st
08165530 W _ZN5Field9get_imageEPcjP15charset_info_st
08165550 W _ZN5Field11set_defaultEv
081655b0 W _ZN9Field_bit3cmpEPKcS1_
081655e0 W _ZN5Field10cmp_binaryEPKcS1_j
08165620 W _ZN13List_iteratorI12create_fieldE5afterEPS0_
08165680 W _ZN4ListI12create_fieldE10push_frontEPS0_
081656d0 W _ZN4ListI12create_fieldE9push_backEPS0_P11st_mem_root
08165740 W _ZN4ListI12create_fieldEC2ERKS1_P11st_mem_root
081657e0 W _ZN15Field_varstring5storeEd
081657f0 W _ZN12Field_string5storeEd
08165800 W _ZN5FieldD1Ev
08165810 W _ZN12Field_doubleD1Ev
08165820 W _ZN10Field_yearD1Ev
08165830 W _ZN9Field_setD1Ev
08165840 W _ZN17Field_bit_as_charD0Ev
08165850 W _ZN9Field_bitD0Ev
08165860 W _ZN13Field_longstrD1Ev
08165870 W _ZN10Field_realD1Ev
08165880 W _ZN10Field_null7val_strEP6StringS1_
08165890 W _ZN10Field_nullD0Ev
081658a0 W _ZN10Field_nullD1Ev
081658b0 W _ZN15Field_timestampD0Ev
081658c0 W _ZN15Field_timestampD1Ev
081658d0 W _ZN10Field_timeD0Ev
081658e0 W _ZN10Field_timeD1Ev
081658f0 W _ZN10Field_dateD0Ev
08165900 W _ZN10Field_dateD1Ev
08165910 W _ZN13Field_newdateD0Ev
08165920 W _ZN13Field_newdateD1Ev
08165930 W _ZN14Field_datetimeD0Ev
08165940 W _ZN14Field_datetimeD1Ev
08165950 W _ZN10Field_enumD0Ev
08165960 W _ZN10Field_enumD1Ev
08165970 W _ZN13Field_longstrD0Ev
08165980 W _ZN17Field_new_decimalD0Ev
08165990 W _ZN17Field_new_decimalD1Ev
081659a0 W _ZN11Field_shortD0Ev
081659b0 W _ZN11Field_shortD1Ev
081659c0 W _ZN12Field_mediumD0Ev
081659d0 W _ZN12Field_mediumD1Ev
081659e0 W _ZN10Field_longD0Ev
081659f0 W _ZN10Field_longD1Ev
08165a00 W _ZN14Field_longlongD0Ev
08165a10 W _ZN14Field_longlongD1Ev
08165a20 W _ZN10Field_tinyD0Ev
08165a30 W _ZN10Field_tinyD1Ev
08165a40 W _ZN10Field_realD0Ev
08165a50 W _ZN9Field_bitD1Ev
08165a60 W _ZN9Field_numD0Ev
08165a70 W _ZN9Field_numD1Ev
08165a80 W _ZN9Field_strD0Ev
08165a90 W _ZN9Field_strD1Ev
08165aa0 W _ZN13Field_decimalD0Ev
08165ab0 W _ZN13Field_decimalD1Ev
08165ac0 W _ZN11Field_floatD0Ev
08165ad0 W _ZN11Field_floatD1Ev
08165ae0 W _ZN12Field_doubleD0Ev
08165af0 W _ZN12Field_stringD0Ev
08165b00 W _ZN12Field_stringD1Ev
08165b10 W _ZN15Field_varstringD0Ev
08165b20 W _ZN15Field_varstringD1Ev
08165b30 W _ZN13List_iteratorI12create_fieldEC1ER4ListIS0_E
08165b50 W _ZN4ListI12create_fieldE15delete_elementsEv
08165b80 W _ZN4ListI12create_fieldEC1Ev
08165ba0 W _ZN4ListI12create_fieldEC1ERKS1_
08165bd0 W _ZN17Field_bit_as_charD1Ev
08165be0 W _ZN13List_iteratorI12create_fieldEC1Ev
08165c10 W _ZN10Field_yearD0Ev
08165c20 W _ZN9Field_setD0Ev
08165c30 W _ZN9Field_bit2eqEP5Field
08165ca0 W _ZN9Field_bit10move_fieldEl
08165cc0 W _ZN4ListI12create_fieldE9push_backEPS0_
08165d30 W _ZN10Field_geom5resetEv
08165d80 W _ZN4ListI12create_fieldEC1ERKS1_P11st_mem_root
08165e20 W _ZN9Field_bit13set_key_imageEPcj
08165e50 W _ZN9Field_bit9set_imageEPcjP15charset_info_st
08165e60 W _ZN9Field_set5storeEd
08165ea0 W _ZN10Field_geomD1Ev
08165f00 W _ZN10Field_blob4freeEv
08165f50 W _ZN10Field_blobD0Ev
08165fb0 W _ZN10Field_blobD1Ev
08166010 W _ZN15Field_timestamp11set_defaultEv
08166090 W _ZN10Field_geomD0Ev
081660f0 T _Z9find_typeP10st_typelibPKcjb
081661d0 T _Z10find_type2P10st_typelibPKcjP15charset_info_st
08166250 T _Z8find_setP10st_typelibPKcjP15charset_info_stPPcPjPb
08166450 T _Z10check_wordP10st_typelibPKcS2_PS2_
081664c0 T _Z11unhex_type2P10st_typelib
081665b0 T _Z8key_copyPcS_P6st_keyj
08166750 T _Z7key_cmpP16st_key_part_infoPKcj
08166810 T _Z11is_key_usedP8st_tablejR4ListI4ItemE
08166910 T _Z15key_cmp_if_sameP8st_tablePKcjj
08166ae0 T _Z11key_restorePcS_P6st_keyj
08166cf0 T _Z12find_ref_keyP8st_tableP5FieldPj
08166db0 T _Z10key_unpackP6StringP8st_tablej
08166f50 T get_var_key
08166f70 T _ZN17Open_tables_stateC2Em
08166fb0 T _ZN17Open_tables_stateC1Em
08166ff0 T _ZN3THD21push_internal_handlerEP22Internal_error_handler
08167010 T _ZN3THD12handle_errorEjN11MYSQL_ERROR18enum_warning_levelE
08167050 T _ZN3THD20pop_internal_handlerEv
08167060 T _Z13add_to_statusP17system_status_varS0_
08167090 T _ZN13select_result7cleanupEv
081670a0 T _ZN12sql_exchangeC1EPcb
081670f0 T _ZN11select_send11send_fieldsER4ListI4ItemEj
08167130 T _ZN31select_max_min_finder_subselect7cleanupEv
08167140 T _ZN31select_max_min_finder_subselect8cmp_realEv
08167210 T _ZN31select_max_min_finder_subselect7cmp_intEv
081672f0 T _ZN14select_dumpvar7cleanupEv
08167300 T _ZNK11Query_arena4typeEv
08167310 T _ZN11Query_arena10free_itemsEv
08167350 T _ZN3THD19cleanup_after_queryEv
081673b0 T _ZN11Query_arena15set_query_arenaEPS_
081673d0 T _ZN11Query_arena12cleanup_stmtEv
081673e0 T _ZN9StatementC2EP6st_lexP11st_mem_rootN11Query_arena10enum_stateEm
08167450 T _ZN9StatementC1EP6st_lexP11st_mem_rootN11Query_arena10enum_stateEm
081674c0 T _ZNK9Statement4typeEv
081674d0 T _ZN9Statement13set_statementEPS_
08167500 T _ZN9Statement22set_n_backup_statementEPS_S0_
08167540 T _ZN9Statement24restore_backup_statementEPS_S0_
08167580 T _ZN3THD25set_n_backup_active_arenaEP11Query_arenaS1_
081675c0 T _ZN3THD20restore_active_arenaEP11Query_arenaS1_
08167660 T _ZN13Statement_map23close_transient_cursorsEv
08167670 T _ZN15TMP_TABLE_PARAM4initEv
081676c0 T _ZN16Security_context4initEv
08167700 T _ZN16Security_context11skip_grantsEv
08167730 T _Z28mark_transaction_to_rollbackP3THDb
08167770 T _ZN3THD26rollback_item_tree_changesEv
081677e0 T _ZN16Security_context7destroyEv
08167840 T free_user_var
08167870 T _ZN3THD33nocheck_register_item_tree_changeEPP4ItemS1_P11st_mem_root
081678e0 T _Z16xid_cache_deleteP12st_xid_state
08167920 T _ZN13Statement_map5eraseEP9Statement
08167990 T _Z16xid_cache_insertP12st_xid_state
081679e0 T _Z14xid_cache_freev
08167a10 T _Z14xid_cache_initv
08167a80 T _ZN13Statement_mapC1Ev
08167b40 T _ZN13Statement_mapC2Ev
08167c00 T _ZN3THD27restore_sub_statement_stateEP19Sub_statement_state
08167d50 T _ZN3THD25reset_sub_statement_stateEP19Sub_statement_statej
08167f20 T _ZN3THD19set_status_var_initEv
08167f50 T thd_increment_bytes_sent
08167f80 T _ZN14select_dumpvar8send_eofEv
08167ff0 T _ZN14select_dumpvar7prepareER4ListI4ItemEP18st_select_lex_unit
08168040 T _ZN13select_result10send_errorEjPKc
08168060 T _ZN13Statement_map5resetEv
081680b0 T _ZN13Statement_map6insertEP3THDP9Statement
081681c0 T _ZNK14select_dumpvar19check_simple_selectEv
081681e0 T _ZNK13select_result19check_simple_selectEv
08168200 T _ZN3THD17changed_table_dupEPKcl
08168290 T _ZN3THD13end_statementEv
081684b0 T _ZN11select_dump7prepareER4ListI4ItemEP18st_select_lex_unit
081684f0 T _ZN14select_to_fileD2Ev
08168540 T _ZN14select_to_file7cleanupEv
08168590 T _ZN14select_to_file8send_eofEv
08168620 T _ZN14select_to_file10send_errorEjPKc
08168690 T _ZN11select_send8send_eofEv
081686f0 T _ZN11select_send5abortEv
08168770 T _ZN3THD17add_changed_tableEPKcl
08168830 T _ZN3THD17add_changed_tableEP8st_table
08168860 T _ZN3THD14update_charsetEv
08168900 T _ZN3THD14convert_stringEP13st_lex_stringP15charset_info_stPKcjS3_
08168990 T _ZN3THD13store_globalsEv
08168a10 T _ZN3THD5awakeENS_12killed_stateE
08168ad0 T _ZN3THD7cleanupEv
08168c10 T _ZN3THD16init_for_queriesEv
08168ce0 T _ZN3THD4initEv
08168e60 T _ZN3THD11change_userEv
08168f00 T _ZNK13key_part_speceqERKS_
08168f40 T _ZN13select_exportD0Ev
08168f70 T _ZN13select_exportD1Ev
08168fa0 T _ZN13select_exportD2Ev
08168fd0 T _ZN3THD14convert_stringEP6StringP15charset_info_stS3_
08169060 T _ZN26select_singlerow_subselect9send_dataER4ListI4ItemE
08169110 T _ZN14select_to_fileD0Ev
08169160 T _ZN14select_to_fileD1Ev
081691b0 T _ZN13select_export7prepareER4ListI4ItemEP18st_select_lex_unit
081693b0 T _ZN12sql_exchangeC2EPcb
08169400 T _ZN23select_exists_subselect9send_dataER4ListI4ItemE
08169430 T _Z16xid_cache_insertP5xid_t9xa_states
08169540 T _Z16xid_cache_searchP5xid_t
08169590 T _ZN31select_max_min_finder_subselect9send_dataER4ListI4ItemE
081696e0 T _ZN3THD32restore_backup_open_tables_stateEP17Open_tables_state
08169710 T _Z18foreign_key_prefixP3KeyS0_
081697b0 T _ZN3THD32reset_n_backup_open_tables_stateEP17Open_tables_state
08169810 T _ZN31select_max_min_finder_subselect11cmp_decimalEv
08169900 T _ZN14select_dumpvar9send_dataER4ListI4ItemE
08169be0 T thd_increment_net_big_packet_count
08169c00 T _ZN13select_resultC1Ev
08169c30 T _ZN13select_resultC2Ev
08169c60 T _ZN16select_subselectC2EP14Item_subselect
08169c90 T _ZN16select_subselectC1EP14Item_subselect
08169cc0 T thd_increment_bytes_received
08169d70 T _ZN3THDC1Ev
0816a3b0 T _ZN31select_max_min_finder_subselect7cmp_strEv
0816a4e0 T _ZN11select_dump9send_dataER4ListI4ItemE
0816a680 T _ZN13select_export9send_dataER4ListI4ItemE
0816af00 T _ZN3THDC2Ev
0816b540 T _ZN9StatementD0Ev
0816b580 T _ZN9StatementD1Ev
0816b5c0 T _ZN9StatementD2Ev
0816b600 T _ZN13Statement_mapD1Ev
0816b670 T _ZN13Statement_mapD2Ev
0816b6e0 T _ZN11select_send9send_dataER4ListI4ItemE
0816b870 T _ZN3THDD0Ev
0816ba90 T _ZN3THDD1Ev
0816bcb0 T _ZN3THDD2Ev
0816bed0 T _ZN3THD19send_explain_fieldsEP13select_result
0816c830 W _ZNK15Item_return_int10field_typeEv
0816c840 W _ZN13select_result7prepareER4ListI4ItemEP18st_select_lex_unit
0816c850 W _ZN13select_result8prepare2Ev
0816c860 W _ZNK13select_result11field_countER4ListI4ItemE
0816c870 W _ZN13select_result17initialize_tablesEP4JOIN
0816c880 W _ZN13select_result5abortEv
0816c890 W _ZNK25select_result_interceptor11field_countER4ListI4ItemE
0816c8a0 W _ZN25select_result_interceptor11send_fieldsER4ListI4ItemEj
0816c8b0 W _ZNK11select_send19check_simple_selectEv
0816c8c0 W _ZN16select_subselect8send_eofEv
0816c8d0 W _ZThn12_NK9Statement4typeEv
0816c8e0 W _ZN4ListI13key_part_specEC2ERKS1_
0816c910 W _ZN4ListI10Alter_dropEC2Ev
0816c930 W _ZN4ListI3KeyE8head_refEv
0816c950 W _ZN13List_iteratorI3KeyEC2ER4ListIS0_E
0816c970 W _ZN13List_iteratorI3KeyEC2Ev
0816c9a0 W _ZN13List_iteratorI3KeyEppEi
0816c9c0 W _ZN13List_iteratorI3KeyE7replaceEPS0_
0816c9e0 W _ZN13List_iteratorI3KeyE7replaceER4ListIS0_E
0816ca50 W _ZN13List_iteratorI3KeyE6rewindEv
0816ca60 W _ZN13List_iteratorI3KeyE3refEv
0816ca70 W _ZN4ListI13key_part_specE3popEv
0816caa0 W _ZN13List_iteratorI13key_part_specEC1ER4ListIS0_E
0816cac0 W _ZN13List_iteratorI13key_part_specEppEi
0816cae0 W _ZN13List_iteratorI10Alter_dropE6removeEv
0816cb40 W _ZN4ListI12Alter_columnE4headEv
0816cb50 W _ZN4ListI12Alter_columnE6concatEPS1_
0816cb80 W _ZN4ListI12Alter_columnE7disjoinEPS1_
0816cbd0 W _ZN4ListI12Alter_columnE7prepandEPS1_
0816cc00 W _ZN13List_iteratorI12Alter_columnE4initER4ListIS0_E
0816cc20 W _ZN11Query_arenaD0Ev
0816cc40 W _ZN11Query_arenaD1Ev
0816cc50 W _ZN5ilinkD1Ev
0816cc90 W _ZN18Item_change_recordD1Ev
0816ccd0 W _ZN13List_iteratorI10Alter_dropE5afterEPS0_
0816cd30 W _ZN4ListI3KeyE10push_frontEPS0_
0816cd80 W _ZN4ListI12Alter_columnE9push_backEPS0_P11st_mem_root
0816cdf0 W _ZN4ListI13key_part_specEC2ERKS1_P11st_mem_root
0816ce90 W _ZN13select_resultD1Ev
0816cea0 W _ZN11select_sendD0Ev
0816ceb0 W _ZN11select_dumpD0Ev
0816ced0 W _ZN11select_dumpD1Ev
0816cef0 W _ZN23select_exists_subselectD1Ev
0816cf00 W _ZN4ListI3KeyE15delete_elementsEv
0816cf30 W _ZN16select_subselectD1Ev
0816cf40 W _ZN4ListI13key_part_specEC1Ev
0816cf60 W _ZN4ListI13key_part_specEC2Ev
0816cf80 W _ZN4ListI3KeyEC1Ev
0816cfa0 W _ZN4ListI3KeyEC2Ev
0816cfc0 W _ZN4ListI12Alter_columnEC1Ev
0816cfe0 W _ZN4ListI12Alter_columnEC2Ev
0816d000 W _ZN4ListI10Alter_dropEC1Ev
0816d020 W _ZN4ListI12Alter_columnEC1ERKS1_
0816d050 W _ZN4ListI12Alter_columnEC2ERKS1_
0816d080 W _ZN4ListI10Alter_dropEC1ERKS1_
0816d0b0 W _ZN4ListI10Alter_dropEC2ERKS1_
0816d0e0 W _ZN4ListI3KeyEC1ERKS1_
0816d110 W _ZN4ListI3KeyEC2ERKS1_
0816d140 W _ZN4ListI13key_part_specEC1ERKS1_
0816d170 W _ZN13List_iteratorI12Alter_columnEC1Ev
0816d1a0 W _ZN13List_iteratorI12Alter_columnEC2Ev
0816d1d0 W _ZN13List_iteratorI10Alter_dropEC1Ev
0816d200 W _ZN13List_iteratorI10Alter_dropEC2Ev
0816d230 W _ZN13List_iteratorI13key_part_specEC1Ev
0816d260 W _ZN13List_iteratorI13key_part_specEC2Ev
0816d290 W _ZN13List_iteratorI3KeyEC1Ev
0816d2c0 W _ZN13List_iteratorI12Alter_columnEC1ER4ListIS0_E
0816d2e0 W _ZN13List_iteratorI12Alter_columnEC2ER4ListIS0_E
0816d300 W _ZN13List_iteratorI10Alter_dropEC1ER4ListIS0_E
0816d320 W _ZN13List_iteratorI10Alter_dropEC2ER4ListIS0_E
0816d340 W _ZN13List_iteratorI13key_part_specEC2ER4ListIS0_E
0816d360 W _ZN13List_iteratorI3KeyEC1ER4ListIS0_E
0816d380 W _ZN14select_dumpvarD1Ev
0816d390 W _ZN16select_subselectD0Ev
0816d3a0 W _ZN26select_singlerow_subselectD1Ev
0816d3b0 W _ZN31select_max_min_finder_subselectD0Ev
0816d3c0 W _ZN31select_max_min_finder_subselectD1Ev
0816d3d0 W _ZN23select_exists_subselectD0Ev
0816d3e0 W _ZN26select_singlerow_subselectD0Ev
0816d3f0 W _ZN13List_iteratorI12Alter_columnE7replaceEPS0_
0816d410 W _ZN13List_iteratorI10Alter_dropE7replaceEPS0_
0816d430 W _ZN13List_iteratorI13key_part_specE7replaceEPS0_
0816d450 W _ZN13List_iteratorI12Alter_columnE3refEv
0816d460 W _ZN13List_iteratorI10Alter_dropE3refEv
0816d470 W _ZN13List_iteratorI13key_part_specE3refEv
0816d480 W _ZN4ListI10Alter_dropE4headEv
0816d490 W _ZN4ListI13key_part_specE4headEv
0816d4a0 W _ZN4ListI3KeyE4headEv
0816d4b0 W _ZN13List_iteratorI12Alter_columnE6rewindEv
0816d4c0 W _ZN13List_iteratorI10Alter_dropE6rewindEv
0816d4d0 W _ZN13List_iteratorI13key_part_specE6rewindEv
0816d4e0 W _ZN11select_sendD1Ev
0816d4f0 W _ZN25select_result_interceptorD0Ev
0816d500 W _ZN25select_result_interceptorD1Ev
0816d510 W _ZN4ListI12Alter_columnE8head_refEv
0816d530 W _ZN4ListI10Alter_dropE8head_refEv
0816d550 W _ZN4ListI13key_part_specE8head_refEv
0816d570 W _ZN13List_iteratorI10Alter_dropE4initER4ListIS0_E
0816d590 W _ZN13List_iteratorI13key_part_specE4initER4ListIS0_E
0816d5b0 W _ZN13List_iteratorI3KeyE4initER4ListIS0_E
0816d5d0 W _ZN4ListI12Alter_columnE15delete_elementsEv
0816d600 W _ZN4ListI10Alter_dropE15delete_elementsEv
0816d630 W _ZN4ListI13key_part_specE15delete_elementsEv
0816d660 W _ZN4ListI3KeyE7prepandEPS1_
0816d690 W _ZN4ListI10Alter_dropE7prepandEPS1_
0816d6c0 W _ZN4ListI13key_part_specE7prepandEPS1_
0816d6f0 W _ZN4ListI10Alter_dropE6concatEPS1_
0816d720 W _ZN4ListI13key_part_specE6concatEPS1_
0816d750 W _ZN4ListI3KeyE6concatEPS1_
0816d780 W _ZN4ListI3KeyE7disjoinEPS1_
0816d7d0 W _ZN4ListI10Alter_dropE7disjoinEPS1_
0816d820 W _ZN4ListI13key_part_specE7disjoinEPS1_
0816d870 W _ZN13List_iteratorI12Alter_columnEppEi
0816d890 W _ZN13List_iteratorI10Alter_dropEppEi
0816d8b0 W _ZN4ListI3KeyE3popEv
0816d8e0 W _ZN4ListI12Alter_columnE3popEv
0816d910 W _ZN4ListI10Alter_dropE3popEv
0816d940 W _ZN14select_dumpvarD0Ev
0816d950 W _ZN13select_resultD0Ev
0816d960 W _ZN13List_iteratorI12Alter_columnE7replaceER4ListIS0_E
0816d9d0 W _ZN13List_iteratorI10Alter_dropE7replaceER4ListIS0_E
0816da40 W _ZN13List_iteratorI13key_part_specE7replaceER4ListIS0_E
0816dab0 W _ZN13List_iteratorI13key_part_specE6removeEv
0816db10 W _ZN13List_iteratorI3KeyE6removeEv
0816db70 W _ZN13List_iteratorI12Alter_columnE6removeEv
0816dbd0 W _ZN5ilinkD0Ev
0816dc10 W _ZN15Item_return_intD0Ev
0816dc60 W _ZN13List_iteratorI13key_part_specE5afterEPS0_
0816dcc0 W _ZN13List_iteratorI3KeyE5afterEPS0_
0816dd20 W _ZN13List_iteratorI12Alter_columnE5afterEPS0_
0816dd80 W _ZN15Item_return_intD1Ev
0816ddd0 W _ZN4ListI10Alter_dropE9push_backEPS0_P11st_mem_root
0816de40 W _ZN4ListI13key_part_specE9push_backEPS0_P11st_mem_root
0816deb0 W _ZN4ListI3KeyE9push_backEPS0_P11st_mem_root
0816df20 W _ZN4ListI10Alter_dropE10push_frontEPS0_
0816df70 W _ZN4ListI13key_part_specE10push_frontEPS0_
0816dfc0 W _ZN4ListI12Alter_columnE10push_frontEPS0_
0816e010 W _ZN4ListI13key_part_specE9push_backEPS0_
0816e080 W _ZN4ListI3KeyE9push_backEPS0_
0816e0f0 W _ZN4ListI12Alter_columnE9push_backEPS0_
0816e160 W _ZN4ListI10Alter_dropE9push_backEPS0_
0816e1d0 W _ZThn12_N9StatementD0Ev
0816e1e0 W _ZThn12_N9StatementD1Ev
0816e1f0 W _ZN18Item_change_recordD0Ev
0816e230 W _ZThn12_N3THDD0Ev
0816e240 W _ZThn12_N3THDD1Ev
0816e250 W _ZN4ListI3KeyEC1ERKS1_P11st_mem_root
0816e2f0 W _ZN4ListI3KeyEC2ERKS1_P11st_mem_root
0816e390 W _ZN4ListI12Alter_columnEC1ERKS1_P11st_mem_root
0816e430 W _ZN4ListI12Alter_columnEC2ERKS1_P11st_mem_root
0816e4d0 W _ZN4ListI10Alter_dropEC1ERKS1_P11st_mem_root
0816e570 W _ZN4ListI10Alter_dropEC2ERKS1_P11st_mem_root
0816e610 W _ZN4ListI13key_part_specEC1ERKS1_P11st_mem_root
0816e6b0 T _Z9free_listP6I_ListI13i_string_pairE
0816e710 T _Z9free_listP6I_ListI8i_stringE
0816e850 T my_net_set_read_timeout
0816e860 T my_net_set_write_timeout
0816e870 T net_real_write
0816ecc0 T net_flush
0816ed10 T net_write_command
0816ee80 T net_end
0816eea0 T my_net_write
0816efb0 T net_clear
0816f030 T net_realloc
0816f4b0 T my_net_read
0816f6f0 T my_net_init
0816f810 T _ZN8Protocol4initEP3THD
0816f840 T _ZN15Protocol_simple18prepare_for_resendEv
0816f860 T _ZN13Protocol_prep11store_shortEx
0816f8d0 T _Z14net_store_dataPcPKcj
0816f910 T _ZN13Protocol_prep5storeEP13st_mysql_time
0816fa10 T _ZN13Protocol_prep10store_dateEP13st_mysql_time
0816fa50 T _Z14net_store_dataPcx
0816fac0 T _Z14net_store_dataPci
0816fb20 T _ZN8Protocol5storeEPKcP15charset_info_st
0816fb80 T _ZN8Protocol5writeEv
0816fc60 T _ZN8Protocol14net_store_dataEPKcj
0816fcf0 T _ZN15Protocol_simple10store_timeEP13st_mysql_time
0816fdc0 T _ZN15Protocol_simple10store_dateEP13st_mysql_time
0816fe00 T _ZN15Protocol_simple5storeEP13st_mysql_time
0816fea0 T _ZN15Protocol_simple14store_longlongExb
0816fef0 T _ZN15Protocol_simple10store_longEx
0816ff40 T _ZN15Protocol_simple11store_shortEx
0816ff80 T _ZN15Protocol_simple10store_tinyEx
0816ffc0 T _ZN8Protocol16store_string_auxEPKcjP15charset_info_stS3_
08170080 T _ZN13Protocol_prep5storeEPKcjP15charset_info_stS3_
081700c0 T _ZN13Protocol_prep5storeEPKcjP15charset_info_st
08170100 T _ZN15Protocol_simple5storeEPKcjP15charset_info_st
08170140 T _ZN15Protocol_simple5storeEPKcjP15charset_info_stS3_
08170180 T _ZN8Protocol5flushEv
081701b0 T _Z25send_old_password_requestP3THD
08170200 T _Z8send_eofP3THD
08170260 T _Z7send_okP3THDmyPKc
081703a0 T _Z21net_send_error_packetP3THDjPKc
081704a0 T _Z14net_send_errorP3THDjPKc
08170590 T _ZN13Protocol_prep10store_nullEv
081705c0 T _ZN15Protocol_simple5storeEfjP6String
08170610 T _ZN13Protocol_prep18prepare_for_resendEv
08170650 T _ZN13Protocol_prep13store_decimalEPK10my_decimal
081706f0 T _ZN15Protocol_simple5storeEdjP6String
08170740 T _Z16net_printf_errorP3THDjz
081709c0 T _ZN13Protocol_prep5storeEP5Field
08170a30 T _ZN13Protocol_prep16prepare_for_sendEP4ListI4ItemE
08170a80 T _ZN15Protocol_simple5storeEP5Field
08170b70 T _ZN15Protocol_simple13store_decimalEPK10my_decimal
08170c10 T _ZN8Protocol5storeEP6I_ListI8i_stringE
08170d00 T _ZN13Protocol_prep5storeEfjP6String
08170d60 T _ZN13Protocol_prep14store_longlongExb
08170dd0 T _ZN13Protocol_prep5storeEdjP6String
08170e40 T _ZN13Protocol_prep10store_longEx
08170ea0 T _ZN8Protocol11send_fieldsEP4ListI4ItemEj
08171380 T _ZN13Protocol_prep10store_tinyEx
081713e0 T _ZN15Protocol_simple10store_nullEv
08171440 T _ZN13Protocol_prep10store_timeEP13st_mysql_time
08171550 W _ZN8Protocol16prepare_for_sendEP4ListI4ItemE
08171570 W _ZN8ProtocolD0Ev
08171590 W _ZN8ProtocolD1Ev
081715a0 W _ZN13Protocol_prepD0Ev
081715c0 W _ZN15Protocol_simpleD1Ev
081715d0 W _ZN13Protocol_prepD1Ev
081715e0 W _ZN15Protocol_simpleD0Ev
08171600 T mysql_errno_to_sqlstate
08171660 T _Z25mysql_lock_have_duplicateP3THDP10TABLE_LISTS2_
081717d0 T _Z17broadcast_refreshv
081717f0 T _Z23unlock_global_read_lockP3THD
08171860 T _Z30start_waiting_global_read_lockP3THD
081718d0 T _Z27wait_for_locked_table_namesP3THDP10TABLE_LIST
08171940 T _Z17unlock_table_nameP3THDP10TABLE_LIST
08171970 T _Z18unlock_table_namesP3THDP10TABLE_LISTS2_
081719b0 T _Z15lock_table_nameP3THDP10TABLE_LIST
08171aa0 T _Z16lock_table_namesP3THDP10TABLE_LIST
08171b20 T _Z16mysql_lock_mergeP13st_mysql_lockS0_
08171fd0 T _Z27mysql_lock_abort_for_threadP3THDP8st_table
08172060 T _Z16mysql_lock_abortP3THDP8st_table
08172170 T _Z24mysql_unlock_read_tablesP3THDP13st_mysql_lock
081722a0 T _Z19mysql_unlock_tablesP3THDP13st_mysql_lock
08172300 T _Z24mysql_unlock_some_tablesP3THDPP8st_tablej
08172340 T _Z17mysql_lock_removeP3THDP13st_mysql_lockP8st_tableb
081724a0 T _Z34make_global_read_lock_block_commitP3THD
081725c0 T _Z24wait_if_global_read_lockP3THDbb
08172780 T _Z28lock_and_wait_for_table_nameP3THDP10TABLE_LIST
08172820 T _Z17mysql_lock_tablesP3THDPP8st_tablejjPb
08172d80 T _Z21lock_global_read_lockP3THD
08172ef0 T my_lock
08173080 T _ZN6String8strip_spEv
081730c0 T _ZN6String8numcharsEv
08173100 T _ZN6String7charposEij
08173150 T _Z16copy_and_convertPcjP15charset_info_stPKcjS1_Pj
08173220 T _ZN6String4swapERS_
08173270 T _ZN6String16needs_conversionEjP15charset_info_stS1_Pj
081732e0 T _Z23well_formed_copy_ncharsP15charset_info_stPcjS0_PKcjjPS3_S4_S4_
081735e0 T _ZN6String9qs_appendEPKcj
08173620 T _ZN6String9qs_appendEj
08173660 T _ZN6String9qs_appendEi
081736a0 T _ZN6String9qs_appendEd
081736e0 T _ZN6String9qs_appendEPd
08173710 T _ZN6String7reallocEj
081737d0 T _Z19copy_if_not_allocedP6StringS0_j
08173870 T _ZN6String7reserveEjj
081738d0 T _ZN6String7replaceEjjPKcj
081739e0 T _ZN6String6appendEPKcjP15charset_info_st
08173ae0 T _ZN6String6appendEPKcj
08173bc0 T _ZN6String19append_with_prefillEPKcjjc
08173c50 T _ZN6String6appendEPKc
08173c80 T _ZN6String4fillEjc
08173d00 T _ZN6String4copyEv
08173d30 T _ZN6String5printEPS_
08173eb0 T _ZN6String6appendERKS_
08173f30 T _Z9stringcmpPK6StringS1_
08173f90 T _Z7sortcmpPK6StringS1_P15charset_info_st
08173fe0 T _ZN6String7replaceEjjRKS_
08174020 T _ZN6String7strrstrERKS_j
081740f0 T _ZN6String6strstrERKS_j
081741c0 T _ZN6String10real_allocEj
08174250 T _ZN6String6appendEP11st_io_cachej
08174330 T _ZN6String4copyERKS_
081743a0 T _ZN6String12copy_alignedEPKcjjP15charset_info_st
08174430 T _ZN6String19set_or_copy_alignedEPKcjP15charset_info_st
081744d0 T _ZN6String4copyEPKcjP15charset_info_st
08174550 T _ZN6String4copyEPKcjP15charset_info_stS3_Pj
08174680 T _ZN6String9set_asciiEPKcj
08174720 T _ZN6String3setEdjP15charset_info_st
081747e0 T _ZN6String3setEyP15charset_info_st
08174870 T _ZN6String3setExP15charset_info_st
08174900 T handle_manager
08174a70 T _Z10unmap_fileP12mapped_files
08174ac0 T _ZN12mapped_filesD2Ev
08174b50 T _ZN12mapped_filesC2EPcS0_j
08174cd0 T _ZN12mapped_filesC1EPcS0_j
08174e50 T _Z8map_filePcS_j
08174fe0 T _ZN12mapped_filesD0Ev
08175070 T _ZN12mapped_filesD1Ev
08175140 W _ZN6I_ListI12mapped_filesEC2Ev
08175170 W _ZN6I_ListI12mapped_filesEC1Ev
081751a0 W _ZN15I_List_iteratorI12mapped_filesEC2ER6I_ListIS0_E
081751c0 W _ZN15I_List_iteratorI12mapped_filesEC1ER6I_ListIS0_E
081751e0 W _ZN15I_List_iteratorI12mapped_filesEppEi
08175210 W _ZN6I_ListI12mapped_filesE6appendEPS0_
08175230 W _ZN6I_ListI12mapped_filesE5emptyEv
08175240 W _ZN6I_ListI12mapped_filesE8is_emptyEv
08175260 W _ZN6I_ListI12mapped_filesE9push_backEPS0_
08175290 W _ZN6I_ListI12mapped_filesE3getEv
081752d0 W _ZN6I_ListI12mapped_filesE4headEv
08175320 T _Z14refresh_statusP3THD
08175400 T _Z31fn_format_relative_to_data_homePcPKcS1_S1_
081754b0 T _Z10kill_mysqlv
081754e0 T _Z18flush_thread_cachev
08176060 T signal_hand
08176370 T _Z10end_threadP3THDb
08176570 T end_thread_signal
081765b0 T _Z16close_connectionP3THDjb
08176910 T unireg_abort
08177240 T _Z10unireg_endv
08177270 T print_signal_warning
08177330 T kill_server_thread
08177840 T handle_segfault
08178170 T handle_connections_sockets
08179eb0 T main
0817bb00 W _ZN6I_ListI3THDEC1Ev
0817bb30 W _ZN6I_ListI13i_string_pairEC1Ev
0817bb60 W _ZN6I_ListI8i_stringEC1Ev
0817bb90 W _ZN6I_ListI10NAMED_LISTEC1Ev
0817bbc0 W _ZN15I_List_iteratorI3THDEC2ER6I_ListIS0_E
0817bbe0 W _ZN15I_List_iteratorI3THDEC1ER6I_ListIS0_E
0817bc00 W _ZN15I_List_iteratorI3THDEppEi
0817bc30 W _ZN6I_ListI3THDE3getEv
0817bc70 W _ZN6I_ListI3THDE6appendEPS0_
0817bc90 W _ZN6I_ListI3THDE5emptyEv
0817bca0 W _ZN6I_ListI10NAMED_LISTE5emptyEv
0817bcb0 W _ZN6I_ListI13i_string_pairE5emptyEv
0817bcc0 W _ZN6I_ListI8i_stringE5emptyEv
0817bcd0 W _ZN6I_ListI8i_stringE9push_backEPS0_
0817bd00 W _ZN6I_ListI13i_string_pairE9push_backEPS0_
0817bd30 W _ZN6I_ListI3THDE9push_backEPS0_
0817bd60 W _ZN6I_ListI3THDE4headEv
0817bd80 W _ZN6I_ListI8i_stringE8is_emptyEv
0817bda0 W _ZN6I_ListI8i_stringE6appendEPS0_
0817bdc0 W _ZN6I_ListI8i_stringE3getEv
0817be00 W _ZN6I_ListI9StatementEC2Ev
0817be30 W _ZN6I_ListI9StatementE5emptyEv
0817be40 W _ZN15I_List_iteratorI9StatementEppEi
0817be70 W _ZN16Unknown_key_hookD0Ev
0817be90 W _ZN16Unknown_key_hookD1Ev
0817bea0 W _ZN6I_ListI3THDE8is_emptyEv
0817bec0 W _ZN6I_ListI9StatementE8is_emptyEv
0817bee0 W _ZN6I_ListI10NAMED_LISTE8is_emptyEv
0817bf00 W _ZN6I_ListI13i_string_pairE8is_emptyEv
0817bf20 W _ZN6I_ListI10NAMED_LISTEC2Ev
0817bf50 W _ZN6I_ListI8i_stringEC2Ev
0817bf80 W _ZN6I_ListI13i_string_pairEC2Ev
0817bfb0 W _ZN6I_ListI3THDEC2Ev
0817bfe0 W _ZN6I_ListI9StatementEC1Ev
0817c010 W _ZN6I_ListI9StatementE4headEv
0817c030 W _ZN6I_ListI10NAMED_LISTE4headEv
0817c050 W _ZN6I_ListI13i_string_pairE4headEv
0817c070 W _ZN6I_ListI8i_stringE4headEv
0817c090 W _ZN6I_ListI9StatementE6appendEPS0_
0817c0b0 W _ZN6I_ListI10NAMED_LISTE6appendEPS0_
0817c0d0 W _ZN6I_ListI13i_string_pairE6appendEPS0_
0817c0f0 W _ZN15I_List_iteratorI9StatementEC1ER6I_ListIS0_E
0817c110 W _ZN15I_List_iteratorI9StatementEC2ER6I_ListIS0_E
0817c130 W _ZN6I_ListI10NAMED_LISTE9push_backEPS0_
0817c160 W _ZN6I_ListI9StatementE9push_backEPS0_
0817c190 W _ZN6I_ListI9StatementE3getEv
0817c1d0 W _ZN6I_ListI10NAMED_LISTE3getEv
0817c210 W _ZN6I_ListI13i_string_pairE3getEv
0817c250 W _ZN13i_string_pairD1Ev
0817c290 W _ZN8i_stringD0Ev
0817c2d0 W _ZN8i_stringD1Ev
0817c310 W _ZN13i_string_pairD0Ev
0817c350 T randominit
0817c390 T my_rnd
0817c3d0 T hash_password
0817c490 T get_salt_from_password_323
0817c540 T create_random_string
0817c5b0 T octet2hex
0817c650 T get_salt_from_password
0817c6f0 T make_password_from_salt
0817c720 T check_scramble
0817c7e0 T scramble
0817c8c0 T make_scrambled_password
0817c960 T make_password_from_salt_323
0817c990 T make_scrambled_password_323
0817c9e0 T scramble_323
0817cb70 T check_scramble_323
0817ccd0 T _Z15inc_host_errorsP7in_addr
0817cd60 T _Z19hostname_cache_freev
0817cdc0 T _Z22hostname_cache_refreshv
0817d000 T _Z14ip_to_hostnameP7in_addrPj
0817d260 T _Z17reset_host_errorsP7in_addr
0817d2f0 T _Z19hostname_cache_initv
0817d3e0 T _ZN7sys_var5checkEP3THDP7set_var
0817d500 T _Z19fix_delay_key_writeP3THD13enum_var_type
0817d550 T _ZN16sys_var_long_ptrC2EPKcPmPFvP3THD13enum_var_typeE
0817d580 T _ZN16sys_var_long_ptrC1EPKcPmPFvP3THD13enum_var_typeE
0817d5b0 T _ZN23sys_var_long_ptr_global5checkEP3THDP7set_var
0817d5f0 T _ZN16sys_var_bool_ptr6updateEP3THDP7set_var
0817d610 T _ZN16sys_var_bool_ptr11set_defaultEP3THD13enum_var_type
0817d630 T _ZN12sys_var_enum6updateEP3THDP7set_var
0817d650 T _ZN12sys_var_enum9value_ptrEP3THD13enum_var_typeP13st_lex_string
0817d670 T _ZN17sys_var_thd_ulong5checkEP3THDP7set_var
0817d6d0 T _ZN17sys_var_thd_ulong11set_defaultEP3THD13enum_var_type
0817d710 T _ZN17sys_var_thd_ulong9value_ptrEP3THD13enum_var_typeP13st_lex_string
0817d740 T _ZN19sys_var_thd_ha_rows9value_ptrEP3THD13enum_var_typeP13st_lex_string
0817d770 T _ZN21sys_var_thd_ulonglong9value_ptrEP3THD13enum_var_typeP13st_lex_string
0817d7a0 T _ZN16sys_var_thd_bool6updateEP3THDP7set_var
0817d7e0 T _ZN16sys_var_thd_bool11set_defaultEP3THD13enum_var_type
0817d820 T _ZN16sys_var_thd_bool9value_ptrEP3THD13enum_var_typeP13st_lex_string
0817d850 T _ZN16sys_var_thd_enum6updateEP3THDP7set_var
0817d890 T _ZN16sys_var_thd_enum11set_defaultEP3THD13enum_var_type
0817d8d0 T _ZN16sys_var_thd_enum9value_ptrEP3THD13enum_var_typeP13st_lex_string
0817d910 T _ZN15sys_var_thd_bit6updateEP3THDP7set_var
0817d940 T _ZN15sys_var_thd_bit9value_ptrEP3THD13enum_var_typeP13st_lex_string
0817d9a0 T _ZN21sys_var_character_set9value_ptrEP3THD13enum_var_typeP13st_lex_string
0817d9d0 T _ZN32sys_var_character_set_connection6ci_ptrEP3THD13enum_var_type
0817d9f0 T _ZN28sys_var_character_set_client6ci_ptrEP3THD13enum_var_type
0817da10 T _ZN32sys_var_character_set_filesystem6ci_ptrEP3THD13enum_var_type
0817da30 T _ZN29sys_var_character_set_results6ci_ptrEP3THD13enum_var_type
0817da50 T _ZN28sys_var_character_set_server6ci_ptrEP3THD13enum_var_type
0817da70 T _ZN30sys_var_character_set_database6ci_ptrEP3THD13enum_var_type
0817da90 T _ZN28sys_var_collation_connection9value_ptrEP3THD13enum_var_typeP13st_lex_string
0817dac0 T _ZN26sys_var_collation_database9value_ptrEP3THD13enum_var_typeP13st_lex_string
0817daf0 T _ZN24sys_var_collation_server9value_ptrEP3THD13enum_var_typeP13st_lex_string
0817db20 T _ZN24set_var_collation_client5checkEP3THD
0817db30 T _ZN17sys_var_timestamp6updateEP3THDP7set_var
0817db60 T _ZN17sys_var_timestamp11set_defaultEP3THD13enum_var_type
0817db70 T _ZN17sys_var_timestamp9value_ptrEP3THD13enum_var_typeP13st_lex_string
0817db90 T _ZN22sys_var_last_insert_id6updateEP3THDP7set_var
0817dbc0 T _ZN22sys_var_last_insert_id9value_ptrEP3THD13enum_var_typeP13st_lex_string
0817dc00 T _ZN17sys_var_insert_id6updateEP3THDP7set_var
0817dc20 T _ZN17sys_var_insert_id9value_ptrEP3THD13enum_var_typeP13st_lex_string
0817dc30 T _ZN26sys_var_sync_binlog_period6updateEP3THDP7set_var
0817dc50 T _ZN18sys_var_rand_seed16updateEP3THDP7set_var
0817dc70 T _ZN18sys_var_rand_seed26updateEP3THDP7set_var
0817dc90 T _ZN21sys_var_max_user_conn9value_ptrEP3THD13enum_var_typeP13st_lex_string
0817dcc0 T _ZN25sys_var_thd_lc_time_names6updateEP3THDP7set_var
0817dcf0 T _ZN25sys_var_thd_lc_time_names9value_ptrEP3THD13enum_var_typeP13st_lex_string
0817dd20 T _ZN25sys_var_thd_lc_time_names11set_defaultEP3THD13enum_var_type
0817de80 T _ZN7set_var6updateEP3THD
0817def0 T _ZN12set_var_user11light_checkEP3THD
0817df20 T _ZN26sys_var_thd_storage_engine11set_defaultEP3THD13enum_var_type
0817df60 T _ZN26sys_var_thd_storage_engine6updateEP3THDP7set_var
0817dfa0 T _ZN20sys_var_thd_sql_mode11set_defaultEP3THD13enum_var_type
0817dfd0 T _Z12fix_sql_modem
0817e040 T _Z16fix_sql_mode_varP3THD13enum_var_type
0817e0b0 T _Z15delete_elementsP6I_ListI10NAMED_LISTEPFvPKcPcE
0817e260 T _ZN21sys_var_max_user_conn5checkEP3THDP7set_var
0817e2b0 T _ZN11sys_var_str5checkEP3THDP7set_var
0817e500 T _ZN30sys_var_trust_routine_creators15warn_deprecatedEP3THD
0817e550 T _ZN30sys_var_trust_routine_creators6updateEP3THDP7set_var
0817e590 T _ZN30sys_var_trust_routine_creators11set_defaultEP3THD13enum_var_type
0817e5d0 T _ZN22sys_var_thd_table_type15warn_deprecatedEP3THD
0817e620 T _ZN22sys_var_thd_table_type6updateEP3THDP7set_var
0817e660 T _ZN22sys_var_thd_table_type11set_defaultEP3THD13enum_var_type
0817e9d0 T _Z14free_key_cachePKcP12st_key_cache
0817e9f0 T _ZN21sys_var_max_user_conn11set_defaultEP3THD13enum_var_type
0817ea20 T _ZN21sys_var_max_user_conn6updateEP3THDP7set_var
0817ea50 T _ZN21sys_var_thd_time_zone6updateEP3THDP7set_var
0817eaa0 T _ZN26sys_var_slave_skip_counter6updateEP3THDP7set_var
0817eb30 T _ZN28sys_var_thd_date_time_format7update2EP3THD13enum_var_typeP19st_date_time_format
0817eba0 T _ZN21sys_var_thd_ulonglong11set_defaultEP3THD13enum_var_type
0817ec20 T _ZN19sys_var_thd_ha_rows11set_defaultEP3THD13enum_var_type
0817ec80 T _ZN21sys_var_ulonglong_ptr11set_defaultEP3THD13enum_var_type
0817ecc0 T _ZN23sys_var_long_ptr_global11set_defaultEP3THD13enum_var_type
0817edc0 T _Z10find_namedP6I_ListI10NAMED_LISTEPKcjPPS0_
0817ee30 T _Z13get_key_cacheP13st_lex_string
0817ee70 T _Z23get_or_create_key_cachePKcj
0817eed0 T _ZN23sys_var_key_cache_param9value_ptrEP3THD13enum_var_typeP13st_lex_string
0817ef10 T _ZN28sys_var_thd_date_time_format9value_ptrEP3THD13enum_var_typeP13st_lex_string
0817ef60 T _ZN26sys_var_thd_storage_engine9value_ptrEP3THD13enum_var_typeP13st_lex_string
0817efa0 T _ZN16set_var_password6updateEP3THD
0817efd0 T _ZN16set_var_password5checkEP3THD
0817f090 T _ZN12set_var_user6updateEP3THD
0817f0e0 T _ZN26sys_var_slave_skip_counter5checkEP3THDP7set_var
0817f180 T _ZN12set_var_user5checkEP3THD
0817f1d0 T _ZN7set_var11light_checkEP3THD
0817f2b0 T _ZN7set_var5checkEP3THD
0817f490 T _Z12find_sys_varPKcj
0817f510 T _Z12set_var_freev
0817f530 T _Z12set_var_initv
0817f660 T _ZN24sys_var_collation_server11set_defaultEP3THD13enum_var_type
0817f690 T _ZN24sys_var_collation_server6updateEP3THDP7set_var
0817f6d0 T _ZN26sys_var_collation_database11set_defaultEP3THD13enum_var_type
0817f700 T _ZN26sys_var_collation_database6updateEP3THDP7set_var
0817f740 T _ZN28sys_var_collation_connection11set_defaultEP3THD13enum_var_type
0817f770 T _ZN28sys_var_collation_connection6updateEP3THDP7set_var
0817f7b0 T _ZN30sys_var_character_set_database11set_defaultEP3THD13enum_var_type
0817f7e0 T _ZN28sys_var_character_set_server11set_defaultEP3THD13enum_var_type
0817f810 T _ZN29sys_var_character_set_results11set_defaultEP3THD13enum_var_type
0817f840 T _ZN32sys_var_character_set_filesystem11set_defaultEP3THD13enum_var_type
0817f870 T _ZN28sys_var_character_set_client11set_defaultEP3THD13enum_var_type
0817f8a0 T _ZN32sys_var_character_set_connection11set_defaultEP3THD13enum_var_type
0817f8d0 T _ZN21sys_var_character_set6updateEP3THDP7set_var
0817f920 T _ZN24set_var_collation_client6updateEP3THD
0817f980 T _ZN21sys_var_thd_ulonglong6updateEP3THDP7set_var
0817fa40 T _ZN19sys_var_thd_ha_rows6updateEP3THDP7set_var
0817fae0 T _ZN17sys_var_thd_ulong6updateEP3THDP7set_var
0817fb60 T _ZN21sys_var_ulonglong_ptr6updateEP3THDP7set_var
0817fbd0 T _ZN23sys_var_long_ptr_global6updateEP3THDP7set_var
0817fc40 T _ZN22sys_var_key_cache_long6updateEP3THDP7set_var
0817fd40 T _ZN23sys_var_key_buffer_size6updateEP3THDP7set_var
0817ff40 T _Z23get_old_charset_by_namePKc
0817ffb0 T _ZN28sys_var_thd_date_time_format11set_defaultEP3THD13enum_var_type
08180040 T _ZN28sys_var_thd_date_time_format6updateEP3THDP7set_var
08180090 T _Z18update_sys_var_strP11sys_var_strP16pthread_rwlock_tP7set_var
081801f0 T _ZN21sys_var_thd_time_zone9value_ptrEP3THD13enum_var_typeP13st_lex_string
08183d00 T _Z24not_all_support_one_shotP4ListI12set_var_baseE
08183d40 T _Z17sql_set_variablesP3THDP4ListI12set_var_baseE
08183dd0 T _ZN7sys_var4itemEP3THD13enum_var_typeP13st_lex_string
08184160 T _Z18process_key_cachesPFiPKcP12st_key_cacheE
081841b0 T _ZN20sys_var_thd_sql_mode28symbolic_mode_representationEP3THDmPm
081842c0 T _ZN20sys_var_thd_sql_mode9value_ptrEP3THD13enum_var_typeP13st_lex_string
08184340 T _ZN21sys_var_thd_time_zone11set_defaultEP3THD13enum_var_type
081844f0 T _ZN26sys_var_thd_storage_engine5checkEP3THDP7set_var
08184610 T _ZN25sys_var_thd_lc_time_names5checkEP3THDP7set_var
081847e0 T _ZN21sys_var_thd_time_zone5checkEP3THDP7set_var
081848b0 T _ZN21sys_var_character_set5checkEP3THDP7set_var
08184af0 T _ZN17sys_var_collation5checkEP3THDP7set_var
08184cd0 T _ZN28sys_var_thd_date_time_format5checkEP3THDP7set_var
08184df0 T _ZN7sys_var9check_setEP3THDP7set_varP10st_typelib
08184fd0 T _ZN7sys_var10check_enumEP3THDP7set_varP10st_typelib
08185130 T _ZN15sys_var_thd_bit5checkEP3THDP7set_var
08185c10 W _ZN21sys_var_ulonglong_ptr9show_typeEv
08185c20 W _ZN21sys_var_ulonglong_ptr9value_ptrEP3THD13enum_var_typeP13st_lex_string
08185c30 W _ZN16sys_var_bool_ptr9show_typeEv
08185c40 W _ZN16sys_var_bool_ptr9value_ptrEP3THD13enum_var_typeP13st_lex_string
08185c50 W _ZN16sys_var_bool_ptr17check_update_typeE11Item_result
08185c60 W _ZN11sys_var_str6updateEP3THDP7set_var
08185c80 W _ZN11sys_var_str11set_defaultEP3THD13enum_var_type
08185ca0 W _ZN11sys_var_str9show_typeEv
08185cb0 W _ZN11sys_var_str9value_ptrEP3THD13enum_var_typeP13st_lex_string
08185cc0 W _ZN11sys_var_str17check_update_typeE11Item_result
08185cd0 W _ZN11sys_var_str13check_defaultE13enum_var_type
08185ce0 W _ZN17sys_var_const_str5checkEP3THDP7set_var
08185cf0 W _ZN17sys_var_const_str6updateEP3THDP7set_var
08185d00 W _ZN17sys_var_const_str9show_typeEv
08185d10 W _ZN17sys_var_const_str9value_ptrEP3THD13enum_var_typeP13st_lex_string
08185d20 W _ZN17sys_var_const_str17check_update_typeE11Item_result
08185d30 W _ZN17sys_var_const_str13check_defaultE13enum_var_type
08185d40 W _ZNK17sys_var_const_str11is_readonlyEv
08185d50 W _ZN21sys_var_const_str_ptr5checkEP3THDP7set_var
08185d60 W _ZN21sys_var_const_str_ptr6updateEP3THDP7set_var
08185d70 W _ZN21sys_var_const_str_ptr9show_typeEv
08185d80 W _ZN21sys_var_const_str_ptr9value_ptrEP3THD13enum_var_typeP13st_lex_string
08185d90 W _ZN21sys_var_const_str_ptr17check_update_typeE11Item_result
08185da0 W _ZN21sys_var_const_str_ptr13check_defaultE13enum_var_type
08185db0 W _ZNK21sys_var_const_str_ptr11is_readonlyEv
08185dc0 W _ZN12sys_var_enum9show_typeEv
08185dd0 W _ZN12sys_var_enum17check_update_typeE11Item_result
08185de0 W _ZN11sys_var_thd10check_typeE13enum_var_type
08185df0 W _ZN11sys_var_thd13check_defaultE13enum_var_type
08185e10 W _ZN17sys_var_thd_ulong9show_typeEv
08185e20 W _ZN19sys_var_thd_ha_rows9show_typeEv
08185e30 W _ZN21sys_var_thd_ulonglong9show_typeEv
08185e40 W _ZN21sys_var_thd_ulonglong13check_defaultE13enum_var_type
08185e60 W _ZN21sys_var_thd_ulonglong10check_typeE13enum_var_type
08185e80 W _ZN16sys_var_thd_bool9show_typeEv
08185e90 W _ZN16sys_var_thd_bool17check_update_typeE11Item_result
08185ea0 W _ZN16sys_var_thd_enum9show_typeEv
08185eb0 W _ZN16sys_var_thd_enum17check_update_typeE11Item_result
08185ec0 W _ZN26sys_var_thd_storage_engine9show_typeEv
08185ed0 W _ZN26sys_var_thd_storage_engine17check_update_typeE11Item_result
08185ee0 W _ZN15sys_var_thd_bit17check_update_typeE11Item_result
08185ef0 W _ZN15sys_var_thd_bit10check_typeE13enum_var_type
08185f00 W _ZN15sys_var_thd_bit9show_typeEv
08185f10 W _ZN17sys_var_timestamp10check_typeE13enum_var_type
08185f20 W _ZN17sys_var_timestamp13check_defaultE13enum_var_type
08185f30 W _ZN17sys_var_timestamp9show_typeEv
08185f40 W _ZN22sys_var_last_insert_id10check_typeE13enum_var_type
08185f50 W _ZN22sys_var_last_insert_id9show_typeEv
08185f60 W _ZN17sys_var_insert_id10check_typeE13enum_var_type
08185f70 W _ZN17sys_var_insert_id9show_typeEv
08185f80 W _ZN26sys_var_slave_skip_counter10check_typeE13enum_var_type
08185f90 W _ZN18sys_var_rand_seed110check_typeE13enum_var_type
08185fa0 W _ZN18sys_var_rand_seed210check_typeE13enum_var_type
08185fb0 W _ZN17sys_var_collation9show_typeEv
08185fc0 W _ZN17sys_var_collation17check_update_typeE11Item_result
08185fe0 W _ZN17sys_var_collation13check_defaultE13enum_var_type
08185ff0 W _ZN21sys_var_character_set9show_typeEv
08186000 W _ZN21sys_var_character_set17check_update_typeE11Item_result
08186020 W _ZN21sys_var_character_set13check_defaultE13enum_var_type
08186030 W _ZN23sys_var_key_cache_param13check_defaultE13enum_var_type
08186040 W _ZN23sys_var_key_cache_param9is_structEv
08186050 W _ZN23sys_var_key_buffer_size9show_typeEv
08186060 W _ZN22sys_var_key_cache_long9show_typeEv
08186070 W _ZN28sys_var_thd_date_time_format9show_typeEv
08186080 W _ZN28sys_var_thd_date_time_format17check_update_typeE11Item_result
08186090 W _ZN28sys_var_thd_date_time_format13check_defaultE13enum_var_type
081860a0 W _ZN16sys_var_readonly6updateEP3THDP7set_var
081860b0 W _ZN16sys_var_readonly13check_defaultE13enum_var_type
081860c0 W _ZN16sys_var_readonly10check_typeE13enum_var_type
081860e0 W _ZN16sys_var_readonly17check_update_typeE11Item_result
081860f0 W _ZN16sys_var_readonly9value_ptrEP3THD13enum_var_typeP13st_lex_string
08186110 W _ZN16sys_var_readonly9show_typeEv
08186120 W _ZNK16sys_var_readonly11is_readonlyEv
08186130 W _ZN21sys_var_thd_time_zone9show_typeEv
08186140 W _ZN21sys_var_thd_time_zone17check_update_typeE11Item_result
08186150 W _ZN21sys_var_thd_time_zone13check_defaultE13enum_var_type
08186160 W _ZN21sys_var_max_user_conn13check_defaultE13enum_var_type
08186180 W _ZN21sys_var_max_user_conn9show_typeEv
08186190 W _ZN25sys_var_thd_lc_time_names9show_typeEv
081861a0 W _ZN25sys_var_thd_lc_time_names17check_update_typeE11Item_result
081861c0 W _ZN25sys_var_thd_lc_time_names13check_defaultE13enum_var_type
081861d0 W _ZN7set_var19no_support_one_shotEv
081861e0 W _ZN18List_iterator_fastI12set_var_baseEC2ER4ListIS0_E
08186200 W _ZN18List_iterator_fastI12set_var_baseEC1ER4ListIS0_E
08186220 W _ZN18List_iterator_fastI12set_var_baseEppEi
08186240 W _ZN18List_iterator_fastI12set_var_baseE6rewindEv
08186250 W _ZN15I_List_iteratorI10NAMED_LISTEC2ER6I_ListIS0_E
08186270 W _ZN15I_List_iteratorI10NAMED_LISTEC1ER6I_ListIS0_E
08186290 W _ZN15I_List_iteratorI10NAMED_LISTEppEi
081862c0 W _ZN4ListI12set_var_baseEC2Ev
081862e0 W _ZN4ListI12set_var_baseEC2ERKS1_
08186310 W _ZN4ListI12set_var_baseE4headEv
08186320 W _ZN4ListI12set_var_baseE8head_refEv
08186340 W _ZN4ListI12set_var_baseE3popEv
08186370 W _ZN4ListI12set_var_baseE6concatEPS1_
081863a0 W _ZN4ListI12set_var_baseE7disjoinEPS1_
081863f0 W _ZN4ListI12set_var_baseE7prepandEPS1_
08186420 W _ZN4ListI12set_var_baseE15delete_elementsEv
08186480 W _ZN18List_iterator_fastI12set_var_baseE7replaceEPS0_
08186490 W _ZN18List_iterator_fastI12set_var_baseE7replaceER4ListIS0_E
081864a0 W _ZN18List_iterator_fastI12set_var_baseE6removeEv
081864b0 W _ZN18List_iterator_fastI12set_var_baseE5afterEPS0_
081864c0 W _ZN18List_iterator_fastI12set_var_baseE3refEv
081864d0 W _ZN18List_iterator_fastI12set_var_baseEC2Ev
08186500 W _ZN18List_iterator_fastI12set_var_baseE4initER4ListIS0_E
08186520 W _ZN18List_iterator_fastI12set_var_baseE7sublistER4ListIS0_Ej
08186540 W _ZN7sys_varD0Ev
08186560 W _ZN7sys_varD1Ev
08186570 W _ZN12sys_var_enumD1Ev
08186580 W _ZN4ListI12set_var_baseE10push_frontEPS0_
081865d0 W _ZN4ListI12set_var_baseE9push_backEPS0_
08186640 W _ZN4ListI12set_var_baseE9push_backEPS0_P11st_mem_root
081866b0 W _ZN4ListI12set_var_baseEC1ERKS1_P11st_mem_root
08186750 W _ZN10NAMED_LISTD1Ev
081867a0 W _ZN16set_var_passwordD1Ev
081867b0 W _ZN24set_var_collation_clientD0Ev
081867c0 W _ZN24set_var_collation_clientD1Ev
081867d0 W _ZN7set_varD0Ev
081867e0 W _ZN7set_varD1Ev
081867f0 W _ZN12set_var_userD0Ev
08186800 W _ZN12set_var_userD1Ev
08186810 W _ZN16set_var_passwordD0Ev
08186820 W _ZN4ListI12set_var_baseEC1Ev
08186840 W _ZN4ListI12set_var_baseEC1ERKS1_
08186870 W _ZN18List_iterator_fastI12set_var_baseEC1Ev
081868a0 W _ZN10NAMED_LISTD0Ev
081868f0 W _ZN4ListI12set_var_baseEC2ERKS1_P11st_mem_root
08186990 W _ZN17sys_var_const_strD0Ev
081869b0 W _ZN17sys_var_const_strD1Ev
081869c0 W _ZN21sys_var_const_str_ptrD0Ev
081869e0 W _ZN12sys_var_enumD0Ev
08186a00 W _ZN17sys_var_timestampD0Ev
08186a20 W _ZN17sys_var_timestampD1Ev
08186a30 W _ZN22sys_var_last_insert_idD0Ev
08186a50 W _ZN22sys_var_last_insert_idD1Ev
08186a60 W _ZN17sys_var_insert_idD0Ev
08186a80 W _ZN17sys_var_insert_idD1Ev
08186a90 W _ZN26sys_var_slave_skip_counterD1Ev
08186aa0 W _ZN18sys_var_rand_seed1D0Ev
08186ac0 W _ZN18sys_var_rand_seed1D1Ev
08186ad0 W _ZN26sys_var_slave_skip_counterD0Ev
08186af0 W _ZN18sys_var_rand_seed2D0Ev
08186b10 W _ZN18sys_var_rand_seed2D1Ev
08186b20 W _ZN16sys_var_bool_ptrD0Ev
08186b40 W _ZN16sys_var_bool_ptrD1Ev
08186b50 W _ZN23sys_var_key_cache_paramD0Ev
08186b70 W _ZN30sys_var_trust_routine_creatorsD1Ev
08186b80 W _ZN23sys_var_key_cache_paramD1Ev
08186b90 W _ZN11sys_var_thdD0Ev
08186bb0 W _ZN11sys_var_thdD1Ev
08186bc0 W _ZN30sys_var_trust_routine_creatorsD0Ev
08186be0 W _ZN21sys_var_const_str_ptrD1Ev
08186bf0 W _ZN16sys_var_readonlyD0Ev
08186c10 W _ZN16sys_var_readonlyD1Ev
08186c20 W _ZN11sys_var_strD0Ev
08186c40 W _ZN11sys_var_strD1Ev
08186c50 W _ZN21sys_var_ulonglong_ptrD0Ev
08186c70 W _ZN21sys_var_ulonglong_ptrD1Ev
08186c80 W _ZN23sys_var_long_ptr_globalD0Ev
08186ca0 W _ZN26sys_var_sync_binlog_periodD1Ev
08186cb0 W _ZN23sys_var_long_ptr_globalD1Ev
08186cc0 W _ZN26sys_var_sync_binlog_periodD0Ev
08186ce0 W _ZN23sys_var_key_buffer_sizeD0Ev
08186d00 W _ZN23sys_var_key_buffer_sizeD1Ev
08186d10 W _ZN22sys_var_key_cache_longD0Ev
08186d30 W _ZN22sys_var_key_cache_longD1Ev
08186d40 W _ZN20sys_var_thd_sql_mode5checkEP3THDP7set_var
08186d70 W _ZN16sys_var_thd_enum5checkEP3THDP7set_var
08186da0 W _ZN16sys_var_thd_bool5checkEP3THDP7set_var
08186dd0 W _ZN12sys_var_enum5checkEP3THDP7set_var
08186e00 W _ZN16sys_var_bool_ptr5checkEP3THDP7set_var
08186e30 W _ZN19sys_var_thd_ha_rowsD1Ev
08186e40 W _ZN21sys_var_thd_ulonglongD0Ev
08186e60 W _ZN21sys_var_thd_ulonglongD1Ev
08186e70 W _ZN16sys_var_thd_boolD0Ev
08186e90 W _ZN16sys_var_thd_boolD1Ev
08186ea0 W _ZN15sys_var_thd_bitD0Ev
08186ec0 W _ZN15sys_var_thd_bitD1Ev
08186ed0 W _ZN28sys_var_thd_date_time_formatD0Ev
08186ef0 W _ZN28sys_var_thd_date_time_formatD1Ev
08186f00 W _ZN21sys_var_thd_time_zoneD0Ev
08186f20 W _ZN21sys_var_thd_time_zoneD1Ev
08186f30 W _ZN21sys_var_max_user_connD0Ev
08186f50 W _ZN21sys_var_max_user_connD1Ev
08186f60 W _ZN25sys_var_thd_lc_time_namesD0Ev
08186f80 W _ZN25sys_var_thd_lc_time_namesD1Ev
08186f90 W _ZN17sys_var_collationD0Ev
08186fb0 W _ZN17sys_var_collationD1Ev
08186fc0 W _ZN21sys_var_character_setD0Ev
08186fe0 W _ZN21sys_var_character_setD1Ev
08186ff0 W _ZN26sys_var_thd_storage_engineD0Ev
08187010 W _ZN26sys_var_thd_storage_engineD1Ev
08187020 W _ZN22sys_var_thd_table_typeD1Ev
08187030 W _ZN17sys_var_thd_ulongD0Ev
08187050 W _ZN17sys_var_thd_ulongD1Ev
08187060 W _ZN19sys_var_thd_ha_rowsD0Ev
08187080 W _ZN20sys_var_thd_sql_modeD1Ev
08187090 W _ZN16sys_var_thd_enumD0Ev
081870b0 W _ZN16sys_var_thd_enumD1Ev
081870c0 W _ZN20sys_var_thd_sql_modeD0Ev
081870e0 W _ZN22sys_var_thd_table_typeD0Ev
08187100 W _ZN28sys_var_collation_connectionD0Ev
08187120 W _ZN28sys_var_collation_connectionD1Ev
08187130 W _ZN26sys_var_collation_databaseD0Ev
08187150 W _ZN26sys_var_collation_databaseD1Ev
08187160 W _ZN24sys_var_collation_serverD0Ev
08187180 W _ZN24sys_var_collation_serverD1Ev
08187190 W _ZN28sys_var_character_set_clientD0Ev
081871b0 W _ZN28sys_var_character_set_clientD1Ev
081871c0 W _ZN32sys_var_character_set_filesystemD0Ev
081871e0 W _ZN32sys_var_character_set_filesystemD1Ev
081871f0 W _ZN29sys_var_character_set_resultsD0Ev
08187210 W _ZN32sys_var_character_set_connectionD0Ev
08187230 W _ZN28sys_var_character_set_serverD0Ev
08187250 W _ZN30sys_var_character_set_databaseD0Ev
08187270 W _ZN29sys_var_character_set_resultsD1Ev
08187280 W _ZN32sys_var_character_set_connectionD1Ev
08187290 W _ZN28sys_var_character_set_serverD1Ev
081872a0 W _ZN30sys_var_character_set_databaseD1Ev
081872b0 T get_key_conn
081872d0 T _Z15is_update_query16enum_sql_command
081872f0 T _Z13cleanup_itemsP4Item
08187320 T _Z17mysql_init_selectP6st_lex
08187380 T _Z23mysql_init_multi_deleteP6st_lex
08187420 T _ZN13st_select_lex19set_lock_for_tablesE13thr_lock_type
08187460 T _Z16add_join_naturalP10TABLE_LISTS0_P4ListI6StringEP13st_select_lex
08187480 T _Z15comp_eq_creatorb
081874a0 T _Z15comp_ge_creatorb
081874c0 T _Z15comp_gt_creatorb
081874e0 T _Z15comp_le_creatorb
08187500 T _Z15comp_lt_creatorb
08187520 T _Z15comp_ne_creatorb
08187540 T _Z19check_string_lengthP13st_lex_stringPKcj
08187580 T _Z16add_proc_to_listP3THDP4Item
081875e0 T _Z19get_default_definerP3THDP11st_lex_user
08187630 T _Z22create_default_definerP3THD
08187680 T _Z16get_current_userP3THDP11st_lex_user
08187750 T free_user
08187760 T _Z42multi_delete_set_locks_and_link_aux_tablesP6st_lex
08187860 T _Z15kill_one_threadP3THDmb
08187ab0 T _Z20reload_acl_and_cacheP3THDmP10TABLE_LISTPb
08187ea0 T _Z19init_update_queriesv
08187fb0 T _Z32mysql_reset_thd_for_next_commandP3THD
08188080 T _Z19check_global_accessP3THDm
081880e0 T _Z12check_accessP3THDmPKcPmbbb
08188530 T _Z21multi_update_precheckP3THDP10TABLE_LIST
08188840 T _Z17check_some_accessP3THDmP10TABLE_LIST
08188910 T _Z25check_some_routine_accessP3THDPKcS2_b
081889b0 T _Z20check_routine_accessP3THDmPcS1_bb
08188ad0 T _Z18check_table_accessP3THDmP10TABLE_LISTb
08188f90 T _Z24check_merge_table_accessP3THDPcP10TABLE_LIST
08189000 T _Z21create_table_precheckP3THDP10TABLE_LISTS2_
08189150 T _Z25check_single_table_accessP3THDmP10TABLE_LIST
08189270 T _Z22check_one_table_accessP3THDmP10TABLE_LIST
08189320 T _Z15delete_precheckP3THDP10TABLE_LIST
081896d0 T _Z9end_transP3THD25enum_mysql_completiontype
08189950 T _Z23thd_init_client_charsetP3THDj
081899f0 T _Z18free_max_user_connv
08189a10 T _Z18init_max_user_connv
08189a60 T _Z10check_userP3THD19enum_server_commandPKcjS3_b
0818a180 T _Z19check_stack_overrunP3THDlPc
0818a220 T _ZN13st_select_lex17add_table_to_listEP3THDP11Table_identP13st_lex_stringm13thr_lock_typeP4ListI6StringESA_S5_
0818a670 T _Z14create_definerP3THDP13st_lex_stringS2_
0818a6c0 T _Z11add_to_listP3THDR11st_sql_listP4Itemb
0818a730 T _Z17negate_expressionP3THDP4Item
0818a950 T _ZN13st_select_lex15end_nested_joinEP3THD
0818aa50 T _Z19check_simple_selectv
0818aad0 T _Z25store_position_for_columnPKc
0818ab00 T _Z26create_select_for_variablePKc
0818abe0 T _Z13my_yyoverflowPPsPP7YYSTYPEPm
0818ad00 T _ZN13st_select_lex16add_joined_tableEP10TABLE_LIST
0818ad70 T _Z32push_new_name_resolution_contextP3THDP10TABLE_LISTS2_
0818ae40 T _Z26mysql_test_parse_for_slaveP3THDPcj
0818af00 T _Z24all_any_subquery_creatorP4ItemPFP12Comp_creatorbEbP13st_select_lex
0818b200 T _Z15insert_precheckP3THDP10TABLE_LIST
0818b2b0 T _Z15update_precheckP3THDP10TABLE_LIST
0818b340 T _Z21multi_delete_precheckP3THDP10TABLE_LIST
0818b450 T _Z18log_slow_statementP3THD
0818b5e0 T _Z11add_join_onP10TABLE_LISTP4Item
0818b770 T _Z11alloc_queryP3THDPKcj
0818b930 T _Z17add_field_to_listP3THDPc16enum_field_typesS1_S1_jP4ItemS4_P13st_lex_stringS1_P4ListI6StringEP15charset_info_stj
0818be30 T _ZN13st_select_lex18convert_right_joinEv
0818bf10 T _ZN13st_select_lex14nest_last_joinEP3THD
0818c0a0 T _ZN13st_select_lex16init_nested_joinEP3THD
0818c170 T _Z20prepare_schema_tableP3THDP6st_lexP11Table_ident18enum_schema_tables
0818c5d0 T _ZN18st_select_lex_unit19add_fake_select_lexEP3THD
0818c810 T _Z16mysql_new_selectP6st_lexb
0818cbe0 T _Z21mysql_execute_commandP3THD
08193390 T _Z11mysql_parseP3THDPKcjPS2_
08193610 T _Z16dispatch_command19enum_server_commandP3THDPcj
08194dc0 T _Z10do_commandP3THD
08194eb0 T _Z20execute_init_commandP3THDP11sys_var_strP16pthread_rwlock_t
08194fa0 T handle_one_connection
08195bb0 T handle_bootstrap
08196070 T _Z21case_stmt_action_caseP6st_lex
081960c0 T _Z21case_stmt_action_exprP6st_lexP4Item
081961e0 T _Z25case_stmt_action_end_caseP6st_lexb
08196260 T _Z14my_parse_errorPKc
081962c0 T _Z10MYSQLerrorPKc
08196330 T _Z21case_stmt_action_thenP6st_lex
08196430 T _Z32handle_sql2003_note184_exceptionP3THDP4ItembS2_
081966f0 T _Z21case_stmt_action_whenP6st_lexP4Itemb
081969d0 T _Z10MYSQLparsePv
081b0fc0 W _ZNK21Item_sum_sum_distinct8sum_funcEv
081b0fd0 W _ZNK21Item_sum_sum_distinct9func_nameEv
081b0fe0 W _ZNK13Item_func_min9func_nameEv
081b0ff0 W _ZNK13Item_func_max9func_nameEv
081b1000 W _ZNK16Item_func_istrue9func_nameEv
081b1010 W _ZNK19Item_func_isnottrue9func_nameEv
081b1020 W _ZNK17Item_func_isfalse9func_nameEv
081b1030 W _ZNK20Item_func_isnotfalse9func_nameEv
081b1040 W _ZN22Item_func_unique_users8val_realEv
081b1050 W _ZN22Item_func_unique_users18fix_length_and_decEv
081b1070 W _ZNK22Item_func_unique_users9func_nameEv
081b1080 W _ZN13sp_lex_keeperD0Ev
081b10d0 W _ZN13sp_lex_keeperD1Ev
081b1110 W _ZN22Item_func_unique_users5printEP6String
081b1140 W _ZN21Item_sum_sum_distinctD0Ev
081b1160 W _ZN21Item_sum_sum_distinctD1Ev
081b1180 W _ZN21Item_sum_sum_distinct12copy_or_sameEP3THD
081b11c0 W _ZN22Item_func_unique_usersD0Ev
081b1210 W _ZN19Item_func_isnottrueD0Ev
081b1260 W _ZN22Item_func_unique_usersD1Ev
081b12b0 W _ZN16Item_func_istrueD0Ev
081b1300 W _ZN11sp_pcontext10last_labelEv
081b13e0 W _ZN13Item_func_maxD1Ev
081b1470 W _ZN13Item_func_minD0Ev
081b1500 W _ZN13Item_func_minD1Ev
081b1590 W _ZN13Item_func_maxD0Ev
081b1620 W _ZN20Item_func_isnotfalseD0Ev
081b1670 W _ZN16Item_func_istrueD1Ev
081b16c0 W _ZN17Item_func_isfalseD1Ev
081b1710 W _ZN20Item_func_isnotfalseD1Ev
081b1760 W _ZN17Item_func_isfalseD0Ev
081b17b0 W _ZN19Item_func_isnottrueD1Ev
081b1800 T _ZN21Prelock_error_handler12handle_errorEjN11MYSQL_ERROR18enum_warning_levelEP3THD
081b1820 T _ZN21Prelock_error_handler21safely_trapped_errorsEv
081b1840 T table_cache_key
081b1860 T _Z13cached_tablesv
081b19e0 T _Z16make_leaves_listPP10TABLE_LISTS0_
081b1a30 T _Z11fill_recordP3THDPP5FieldR4ListI4ItemEb
081b1ad0 T _Z8is_equalPK13st_lex_stringS1_
081b1b20 T _Z13table_is_usedP8st_tableb
081b1be0 T _Z32table_cache_has_open_placeholderP3THDPKcS2_
081b1c90 T _Z12flush_tablesv
081b1ce0 T _Z18close_thread_tableP3THDPP8st_table
081b1db0 T _Z16wait_for_refreshP3THD
081b1ee0 T _Z23remove_table_from_cacheP3THDPKcS2_j
081b21d0 T _Z20remove_db_from_cachePKc
081b2280 T _Z18find_table_in_listP10TABLE_LISTMS_S0_PKcS3_
081b22f0 T _Z36fill_record_n_invoke_before_triggersP3THDPP5FieldR4ListI4ItemEbP19Table_triggers_list14trg_event_type
081b23f0 T _Z36fill_record_n_invoke_before_triggersP3THDR4ListI4ItemES4_bP19Table_triggers_list14trg_event_type
081b25f0 T _Z22rename_temporary_tableP3THDP8st_tablePKcS4_
081b26b0 T _Z19find_field_in_tableP3THDP8st_tablePKcjbPj
081b2800 T _Z20open_temporary_tableP3THDPKcS2_S2_b
081b2970 T _Z11lock_tablesP3THDP10TABLE_LISTjPb
081b2c70 T _Z19abort_locked_tablesP3THDPKcS2_
081b2cf0 T _Z18drop_locked_tablesP3THDPKcS2_
081b2ed0 T _Z17close_data_tablesP3THDPKcS2_
081b2f70 T _Z17find_locked_tableP3THDPKcS2_
081b3000 T _Z17unlink_open_tableP3THDP8st_tableS2_
081b3120 T _Z20find_temporary_tableP3THDPKcS2_
081b31e0 T _Z21check_if_table_existsP3THDP10TABLE_LISTPb
081b32a0 T _Z30table_cache_insert_placeholderP3THDPKcj
081b3380 T _Z12unique_tableP3THDP10TABLE_LISTS2_b
081b34b0 T _Z19close_thread_tablesP3THDbb
081b3700 T _Z23close_tables_for_reopenP3THDPP10TABLE_LIST
081b3790 T _Z13free_io_cacheP8st_table
081b37d0 T _Z18intern_close_tableP8st_table
081b3860 T _Z16list_open_tablesP3THDPKcS2_
081b3af0 T _Z16table_cache_initv
081b3b50 T _Z19mysql_rm_tmp_tablesv
081b3e30 T _Z29update_non_unique_table_errorP10TABLE_LISTPKcS0_
081b4010 T _Z12setup_fieldsP3THDPP4ItemR4ListIS1_EbPS5_b
081b4260 T _Z13setup_ftfuncsP13st_select_lex
081b42f0 T _Z12init_ftfuncsP3THDP13st_select_lexb
081b43b0 T _Z17find_item_in_listP4ItemR4ListIS_EPj27find_item_error_report_typeP20enum_resolution_type
081b47f0 T _Z18rm_temporary_table7db_typePc
081b48e0 T _Z15close_temporaryP8st_tableb
081b4960 T _Z21close_temporary_tableP3THDPKcS2_
081b49e0 T _Z15drop_open_tableP3THDP8st_tablePKcS4_
081b4a80 T _Z25get_key_map_from_key_listP6BitmapILj64EEP8st_tableP4ListI6StringE
081b4b90 T _Z11setup_condsP3THDP10TABLE_LISTS2_PP4Item
081b4e40 T _Z22close_temporary_tablesP3THD
081b5360 T _Z13insert_fieldsP3THDP23Name_resolution_contextPKcS4_P13List_iteratorI4ItemEb
081b6150 T _Z12reopen_tableP8st_tableb
081b6460 T _Z13reopen_tablesP3THDbb
081b6600 T _Z15wait_for_tablesP3THD
081b67e0 T _Z19close_cached_tablesP3THDbP10TABLE_LIST
081b6a80 T _Z16table_cache_freev
081b6ac0 T _Z10open_tableP3THDP10TABLE_LISTP11st_mem_rootPbj
081b75e0 T _Z11open_ltableP3THDP10TABLE_LIST13thr_lock_type
081b7790 T _Z11open_tablesP3THDPP10TABLE_LISTPjj
081b7c20 T _Z30open_normal_and_derived_tablesP3THDP10TABLE_LISTj
081b7c80 T _Z20open_and_lock_tablesP3THDP10TABLE_LIST
081b7d50 T _Z25simple_open_n_lock_tablesP3THDP10TABLE_LIST
081b7dc0 T _Z24reopen_name_locked_tableP3THDP10TABLE_LISTb
081b7fd0 T _Z10setup_wildP3THDP10TABLE_LISTR4ListI4ItemEPS5_j
081b90a0 T _Z12setup_tablesP3THDP23Name_resolution_contextP4ListI10TABLE_LISTEPS4_PP4ItemPS7_b
081b93f0 T _Z29setup_tables_and_check_accessP3THDP23Name_resolution_contextP4ListI10TABLE_LISTEPS4_PP4ItemPS7_bmm
081b94c0 T _Z23find_field_in_table_refP3THDP10TABLE_LISTPKcjS4_S4_S4_PP4ItembbPjbPS2_
081b9b20 T _Z20find_field_in_tablesP3THDP10Item_identP10TABLE_LISTS4_PP4Item27find_item_error_report_typebb
081ba110 W _ZN14Field_iteratorD1Ev
081ba120 W _ZN22Internal_error_handlerD0Ev
081ba140 W _ZN22Internal_error_handlerD1Ev
081ba150 W _ZN21Prelock_error_handlerD1Ev
081ba160 W _ZN14Field_iteratorD0Ev
081ba170 W _ZN21Prelock_error_handlerD0Ev
081ba190 T _Z10free_blobsP8st_table
081ba1e0 T _Z8set_zoneiii
081ba200 T _Z12next_io_sizem
081ba220 T _Z29update_create_info_from_tableP24st_ha_create_informationP8st_table
081ba2a0 T _Z13check_db_namePc
081ba370 T _Z16check_table_namePKcj
081ba400 T _Z17check_column_namePKc
081ba490 T _ZN10TABLE_LIST20set_underlying_mergeEv
081ba4f0 T _ZN10TABLE_LIST21find_underlying_tableEP8st_table
081ba540 T _ZN10TABLE_LIST13cleanup_itemsEv
081ba5a0 T _ZN10TABLE_LIST18check_single_tableEPPS_yS0_
081ba640 T _ZN10TABLE_LIST27is_leaf_for_name_resolutionEv
081ba680 T _ZN10TABLE_LIST30first_leaf_for_name_resolutionEv
081ba6e0 T _ZN10TABLE_LIST29last_leaf_for_name_resolutionEv
081ba740 T _ZN10TABLE_LIST20register_want_accessEm
081ba7a0 T _ZN10TABLE_LIST26find_view_security_contextEP3THD
081ba7f0 T _ZN19Natural_join_columnC1EP16Field_translatorP10TABLE_LIST
081ba810 T _ZN19Natural_join_columnC2EP5FieldP10TABLE_LIST
081ba830 T _ZN19Natural_join_columnC1EP5FieldP10TABLE_LIST
081ba850 T _ZN19Natural_join_column4nameEv
081ba870 T _ZN19Natural_join_column5fieldEv
081ba890 T _ZN19Natural_join_column10table_nameEv
081ba8a0 T _ZN19Natural_join_column7db_nameEv
081ba8c0 T _ZN19Natural_join_column5grantEv
081ba8f0 T _ZN19Field_iterator_view3setEP10TABLE_LIST
081ba910 T _ZN20Field_iterator_table4nameEv
081ba920 T _ZN19Field_iterator_view4nameEv
081ba930 T _ZN24Field_iterator_table_ref18set_field_iteratorEv
081ba980 T _ZN24Field_iterator_table_ref3setEP10TABLE_LIST
081ba9c0 T _ZN24Field_iterator_table_ref4nextEv
081baa10 T _ZN24Field_iterator_table_ref10table_nameEv
081baa40 T _ZN10TABLE_LIST20containing_subselectEv
081baa70 T _ZN10TABLE_LIST17reinit_before_useEP3THD
081baad0 T _ZN27Field_iterator_natural_join3setEP10TABLE_LIST
081bab00 T _ZN10TABLE_LIST17set_insert_valuesEP11st_mem_root
081bab70 T _Z17create_view_fieldP3THDP10TABLE_LISTPP4ItemPKc
081bac50 T _ZN19Field_iterator_view11create_itemEP3THD
081bac80 T _ZN19Natural_join_column11create_itemEP3THD
081bad00 T _ZN10TABLE_LIST29prepare_view_securety_contextEP3THD
081bae50 T _ZN10TABLE_LIST16prepare_securityEP3THD
081baf70 T _ZN10TABLE_LIST8calc_md5EPc
081bb060 T _ZNK8st_table15reset_item_listEP4ListI4ItemE
081bb0b0 T _Z15rename_file_extPKcS0_S0_
081bb120 T _Z10create_frmP3THDPcPKcS3_jPhP24st_ha_create_informationj
081bb3e0 T _Z14make_new_entryiPhP10st_typelibPKc
081bb7e0 T _Z11read_stringiPPcj
081bb920 T _Z12get_form_posiPhP10st_typelib
081bba70 T _Z8closefrmP8st_table
081bbb20 T _ZN24Field_iterator_table_ref22get_natural_column_refEv
081bbb30 T _ZN24Field_iterator_table_ref5grantEv
081bbb70 T _ZN24Field_iterator_table_ref7db_nameEv
081bbba0 T _ZN10TABLE_LIST17view_check_optionEP3THDb
081bbc60 T _ZN27Field_iterator_natural_join4nextEv
081bbc80 T _ZN19Natural_join_columnC2EP16Field_translatorP10TABLE_LIST
081bbca0 T _ZN10TABLE_LIST15hide_view_errorEP3THD
081bbdb0 T _Z7openfrmP3THDPKcS2_jjjP8st_table
081be0d0 T _Z7typelibP11st_mem_rootR4ListI6StringE
081be1b0 T _ZN10TABLE_LIST16setup_underlyingEP3THD
081be350 T _Z9get_fieldP11st_mem_rootP5FieldP6String
081be460 T _Z9get_fieldP11st_mem_rootP5Field
081be510 T _ZN20Field_iterator_table11create_itemEP3THD
081be5e0 T _ZN24Field_iterator_table_ref24get_or_create_column_refEP10TABLE_LIST
081be760 T _ZNK8st_table14fill_item_listEP4ListI4ItemE
081be7f0 T _ZN10TABLE_LIST10prep_whereEP3THDPP4Itemb
081bedf0 T _ZN10TABLE_LIST17prep_check_optionEP3THDh
081bf230 T _Z16append_unescapedP6StringPKcj
081bf630 W _ZN20Field_iterator_table3setEP10TABLE_LIST
081bf650 W _ZN20Field_iterator_table4nextEv
081bf660 W _ZN20Field_iterator_table13end_of_fieldsEv
081bf680 W _ZN20Field_iterator_table5fieldEv
081bf690 W _ZN19Field_iterator_view4nextEv
081bf6a0 W _ZN19Field_iterator_view13end_of_fieldsEv
081bf6c0 W _ZN19Field_iterator_view5fieldEv
081bf6d0 W _ZN27Field_iterator_natural_joinD1Ev
081bf6e0 W _ZN27Field_iterator_natural_join13end_of_fieldsEv
081bf700 W _ZN20Field_iterator_tableD1Ev
081bf710 W _ZN19Field_iterator_viewD1Ev
081bf720 W _ZN24Field_iterator_table_ref13end_of_fieldsEv
081bf750 W _ZN24Field_iterator_table_ref4nameEv
081bf770 W _ZN24Field_iterator_table_ref11create_itemEP3THD
081bf790 W _ZN24Field_iterator_table_ref5fieldEv
081bf7b0 W _ZN27Field_iterator_natural_join4nameEv
081bf7d0 W _ZN27Field_iterator_natural_join5fieldEv
081bf7f0 W _ZN4ListI6StringEC2Ev
081bf810 W _ZN13List_iteratorI6StringEC2ER4ListIS0_E
081bf830 W _ZN13List_iteratorI6StringEC1ER4ListIS0_E
081bf850 W _ZN13List_iteratorI6StringEppEi
081bf870 W _ZN4ListI6StringEC2ERKS1_
081bf8a0 W _ZN4ListI6StringE4headEv
081bf8b0 W _ZN4ListI6StringE8head_refEv
081bf8d0 W _ZN4ListI6StringE3popEv
081bf900 W _ZN4ListI6StringE6concatEPS1_
081bf930 W _ZN4ListI6StringE7disjoinEPS1_
081bf980 W _ZN4ListI6StringE7prepandEPS1_
081bf9b0 W _ZN13List_iteratorI6StringEC2Ev
081bf9e0 W _ZN13List_iteratorI6StringE4initER4ListIS0_E
081bfa00 W _ZN13List_iteratorI6StringE7replaceEPS0_
081bfa20 W _ZN13List_iteratorI6StringE7replaceER4ListIS0_E
081bfa90 W _ZN13List_iteratorI6StringE6rewindEv
081bfaa0 W _ZN13List_iteratorI6StringE6removeEv
081bfb00 W _ZN13List_iteratorI6StringE3refEv
081bfb10 W _ZN13List_iteratorI6StringE5afterEPS0_
081bfb70 W _ZN4ListI6StringE10push_frontEPS0_
081bfbc0 W _ZN4ListI6StringE9push_backEPS0_P11st_mem_root
081bfc30 W _ZN4ListI6StringEC2ERKS1_P11st_mem_root
081bfcd0 W _ZN27Field_iterator_natural_join11create_itemEP3THD
081bfcf0 W _ZN27Field_iterator_natural_joinD0Ev
081bfd00 W _ZN19Field_iterator_viewD0Ev
081bfd10 W _ZN20Field_iterator_tableD0Ev
081bfd20 W _ZN4ListI6StringEC1Ev
081bfd40 W _ZN4ListI6StringEC1ERKS1_
081bfd70 W _ZN13List_iteratorI6StringEC1Ev
081bfda0 W _ZN24Field_iterator_table_refD0Ev
081bfdd0 W _ZN24Field_iterator_table_refD1Ev
081bfe00 W _ZN4ListI6StringE15delete_elementsEv
081bfe80 W _ZN4ListI6StringEC1ERKS1_P11st_mem_root
081bff20 W _ZN4ListI6StringE9push_backEPS0_
081c1800 T _Z18store_val_in_fieldP5FieldP4Item17enum_check_fields
081c1bc0 T _ZN4JOIN29remove_subq_pushed_predicatesEPP4Item
081c23f0 T _Z17find_shortest_keyP8st_tablePK6BitmapILj64EE
081c2630 T _Z18cp_buffer_from_refP3THDP12st_table_ref
081c26d0 T _Z17count_field_typesP13st_select_lexP15TMP_TABLE_PARAMR4ListI4ItemEb
081c2a50 T _Z10copy_funcsPP4Item
081c2aa0 T _ZN4JOIN13change_resultEP13select_result
081c2b80 T _Z21make_unireg_sortorderP8st_orderPjP13st_sort_field
081c2cb0 T _Z20free_underlaid_joinsP3THDP13st_select_lex
081c2cf0 T _Z21setup_end_select_funcP4JOIN
081c34a0 T _ZN4JOIN11restore_tmpEv
081c34d0 T _ZN4JOIN18init_save_join_tabEv
081c3520 T _ZN4JOIN18rollup_make_fieldsER4ListI4ItemES3_PPP8Item_sum
081c3780 T _ZN4JOIN18make_sum_func_listER4ListI4ItemES3_bb
081c3aa0 T _Z11copy_fieldsP15TMP_TABLE_PARAM
081c3b00 T _Z12report_errorP8st_tablei
081c3cc0 T _Z15safe_index_readP13st_join_table
081c3d20 T _Z27join_read_next_same_or_nullP14st_read_record
081c3d60 T _Z18error_if_full_joinP4JOIN
081c4a50 T _Z14free_tmp_tableP3THDP8st_table
081c4c00 T _Z15find_item_equalP10COND_EQUALP5FieldPb
081c4c70 T _ZN13st_join_table7cleanupEv
081c4f50 T _ZN4JOIN13save_join_tabEv
081c70a0 T _Z28join_read_always_key_or_nullP13st_join_table
081c70e0 T _Z20init_read_record_seqP13st_join_table
081c7130 T _Z15remove_eq_condsP3THDP4ItemPNS1_11cond_resultE
081c7740 T _ZN4JOIN6reinitEv
081c7950 T _ZN4JOIN16rollup_send_dataEj
081c7af0 T _Z27create_tmp_field_from_fieldP3THDP5FieldPKcP8st_tableP10Item_fieldj
081c7ce0 T _Z16create_tmp_fieldP3THDP8st_tableP4ItemNS3_4TypeEPPS4_PP5FieldSA_bbbbj
081c7fd0 T _Z27create_tmp_field_for_schemaP3THDP4ItemP8st_table
081c8f40 T _Z16create_tmp_tableP3THDP15TMP_TABLE_PARAMR4ListI4ItemEP8st_orderbbymPc
081ca790 T _Z14fix_inner_refsP3THDR4ListI4ItemEP13st_select_lexPPS2_
081cae80 T _ZN4JOIN5clearEv
081cb580 T _Z11setup_groupP3THDPP4ItemP10TABLE_LISTR4ListIS1_ES8_P8st_orderPb
081cb790 T _Z11setup_orderP3THDPP4ItemP10TABLE_LISTR4ListIS1_ES8_P8st_order
081cd1a0 T _ZN4JOIN11rollup_initEv
081cd9d0 T _Z17setup_copy_fieldsP3THDP15TMP_TABLE_PARAMPP4ItemR4ListIS3_ES8_jS8_
081ce480 T _Z23create_myisam_from_heapP3THDP8st_tableP15TMP_TABLE_PARAMib
081ce990 T _ZN4JOIN17rollup_write_dataEjP8st_table
081ced20 T _ZN4JOIN7cleanupEb
081cef40 T _ZN4JOIN9join_freeEv
081cf0a0 T _ZN4JOIN7destroyEv
081cf5f0 T _Z10sub_selectP4JOINP13st_join_tableb
081cf810 T _Z16sub_select_cacheP4JOINP13st_join_tableb
081d0300 T _ZN4JOIN15alloc_func_listEv
081d03c0 T _ZN4JOIN7prepareEPPP4ItemP10TABLE_LISTjS1_jP8st_orderS7_S1_S7_P13st_select_lexP18st_select_lex_unit
081d0e40 T _Z24create_virtual_tmp_tableP3THDR4ListI12create_fieldE
081d11b0 T _ZN10TABLE_LIST5printEP3THDP6String
081d1690 T _ZN13st_select_lex5printEP3THDP6String
081d5760 T _ZN4JOIN8optimizeEv
081db5a0 T _ZN4JOIN4execEv
081ddd30 T _Z12mysql_selectP3THDPPP4ItemP10TABLE_LISTjR4ListIS1_ES2_jP8st_orderSB_S2_SB_yP13select_resultP18st_select_lex_unitP13st_select_lex
081de450 T _Z19mysql_explain_unionP3THDP18st_select_lex_unitP13select_result
081de680 T _Z13handle_selectP3THDP6st_lexP13select_resultm
081de7e0 W _ZN16Item_null_result15is_result_fieldEv
081de800 W _ZN16Item_null_result20save_in_result_fieldEb
081de830 W _ZN22Item_func_rollup_const8val_realEv
081de850 W _ZN22Item_func_rollup_const7val_intEv
081de870 W _ZN22Item_func_rollup_const7val_strEP6String
081de890 W _ZN22Item_func_rollup_const11val_decimalEP10my_decimal
081de8b0 W _ZNK22Item_func_rollup_const9func_nameEv
081de8c0 W _ZNK22Item_func_rollup_const10const_itemEv
081de8d0 W _ZNK22Item_func_rollup_const11result_typeEv
081de8f0 W _ZN22Item_func_rollup_const18fix_length_and_decEv
081de920 W _ZN18QUICK_RANGE_SELECT14reverse_sortedEv
081de930 W _ZN18QUICK_RANGE_SELECT13save_last_posEv
081de950 W _ZN9FT_SELECT4initEv
081de970 W _ZN9FT_SELECT5resetEv
081de980 W _ZN9FT_SELECT8get_nextEv
081de9b0 W _ZN9FT_SELECT8get_typeEv
081de9c0 W _ZNK15store_key_field4nameEv
081de9d0 W _ZN15store_key_field10copy_innerEv
081dea30 W _ZNK14store_key_item4nameEv
081dea40 W _ZN14store_key_itemD1Ev
081dea50 W _ZNK20store_key_const_item4nameEv
081dea60 W _ZN4ListI15Item_func_matchEC2Ev
081dea80 W _ZN6I_ListI8COND_CMPEC2Ev
081deab0 W _ZN6I_ListI8COND_CMPEC1Ev
081deae0 W _ZN6I_ListI8COND_CMPE5emptyEv
081deaf0 W _ZN6I_ListI8COND_CMPE8is_emptyEv
081deb10 W _ZN6I_ListI8COND_CMPE6appendEPS0_
081deb30 W _ZN6I_ListI8COND_CMPE9push_backEPS0_
081deb60 W _ZN6I_ListI8COND_CMPE3getEv
081deba0 W _ZN6I_ListI8COND_CMPE4headEv
081debc0 W _ZN15I_List_iteratorI8COND_CMPEC2ER6I_ListIS0_E
081debe0 W _ZN15I_List_iteratorI8COND_CMPEC1ER6I_ListIS0_E
081dec00 W _ZN15I_List_iteratorI8COND_CMPEppEi
081dec30 W _ZN4ListI15Item_func_matchEC2ERKS1_
081dec60 W _ZN4ListI15Item_func_matchE4headEv
081dec70 W _ZN4ListI15Item_func_matchE8head_refEv
081dec90 W _ZN4ListI15Item_func_matchE3popEv
081decc0 W _ZN4ListI15Item_func_matchE6concatEPS1_
081decf0 W _ZN4ListI15Item_func_matchE7disjoinEPS1_
081ded40 W _ZN4ListI15Item_func_matchE7prepandEPS1_
081ded70 W _ZN4ListI15Item_func_matchE15delete_elementsEv
081dedd0 W _ZN13List_iteratorI15Item_func_matchEC2ER4ListIS0_E
081dedf0 W _ZN13List_iteratorI15Item_func_matchEC2Ev
081dee20 W _ZN13List_iteratorI15Item_func_matchE4initER4ListIS0_E
081dee40 W _ZN13List_iteratorI15Item_func_matchEppEi
081dee60 W _ZN13List_iteratorI15Item_func_matchE7replaceEPS0_
081dee80 W _ZN13List_iteratorI15Item_func_matchE7replaceER4ListIS0_E
081deef0 W _ZN13List_iteratorI15Item_func_matchE6rewindEv
081def00 W _ZN13List_iteratorI15Item_func_matchE6removeEv
081def60 W _ZN13List_iteratorI15Item_func_matchE3refEv
081def70 W _ZN13List_iteratorI15Item_func_matchE5afterEPS0_
081defd0 W _ZN4ListI15Item_func_matchE9push_backEPS0_P11st_mem_root
081df040 W _ZN4ListI15Item_func_matchEC2ERKS1_P11st_mem_root
081df0e0 W _ZN8COND_CMPD1Ev
081df120 W _ZN9FT_SELECTD1Ev
081df140 W _ZN20store_key_const_itemD1Ev
081df150 W _ZN14store_key_itemD0Ev
081df160 W _ZN9store_keyD1Ev
081df170 W _ZN9store_keyD0Ev
081df180 W _ZN20store_key_const_item10copy_innerEv
081df220 W _ZN14store_key_item10copy_innerEv
081df2b0 W _ZN9FT_SELECTD0Ev
081df2e0 W _ZN13List_iteratorI15Item_func_matchEC1ER4ListIS0_E
081df300 W _ZN4ListI15Item_func_matchEC1Ev
081df320 W _ZN4ListI15Item_func_matchEC1ERKS1_
081df350 W _ZN13List_iteratorI15Item_func_matchEC1Ev
081df380 W _ZN20store_key_const_itemD0Ev
081df390 W _ZN8COND_CMPD0Ev
081df3d0 W _ZN4ListI15Item_func_matchEC1ERKS1_P11st_mem_root
081df470 W _ZN4ListI15Item_func_matchE10push_frontEPS0_
081df4c0 W _ZN4ListI15Item_func_matchE9push_backEPS0_
081df530 W _ZN16Item_null_resultD0Ev
081df580 W _ZN15store_key_fieldD1Ev
081df5e0 W _ZN15store_key_fieldD0Ev
081df640 W _ZN16Item_null_resultD1Ev
081df690 W _ZN22Item_func_rollup_constD0Ev
081df6e0 W _ZN22Item_func_rollup_constD1Ev
081df730 T _ZN13select_insert8prepare2Ev
081df7a0 T _ZN13select_insert7cleanupEv
081df7b0 T _ZN13select_insertD2Ev
081df810 T _ZN13select_create12store_valuesER4ListI4ItemE
081df850 T _Z38check_that_all_fields_are_given_valuesP3THDP8st_tableP10TABLE_LIST
081df990 T _ZN13select_insert8send_eofEv
081dfca0 T _ZN13select_create8send_eofEv
081dfd30 T _ZN13select_insert10send_errorEjPKc
081dfd50 T _ZN13select_create10send_errorEjPKc
081dfd60 T _ZN13select_insert12store_valuesER4ListI4ItemE
081dfdf0 T _ZN13select_insertC2EP10TABLE_LISTP8st_tableP4ListI4ItemES7_S7_15enum_duplicatesb
081dff30 T _ZN14Delayed_insert15get_local_tableEP3THD
081e07d0 T _Z44mark_fields_used_by_triggers_for_insert_stmtP3THDP8st_table15enum_duplicates
081e0840 T _Z32prepare_triggers_for_insert_stmtP3THDP8st_table15enum_duplicates
081e08e0 T _Z24check_view_single_updateR4ListI4ItemEP10TABLE_LISTPy
081e0f80 T _Z20mysql_prepare_insertP3THDP10TABLE_LISTP8st_tableR4ListI4ItemEPS7_S8_S8_15enum_duplicatesPPS6_bbb
081e1390 T _Z27mysql_insert_select_prepareP3THD
081e1480 T _ZN13select_insertD1Ev
081e14e0 T _ZN13select_create7prepareER4ListI4ItemEP18st_select_lex_unit
081e1c30 T _Z12write_recordP3THDP8st_tableP12st_copy_info
081e22b0 T _ZN13select_insert9send_dataER4ListI4ItemE
081e23f0 T _ZN13select_insertD0Ev
081e2450 T _ZN13select_insertC1EP10TABLE_LISTP8st_tableP4ListI4ItemES7_S7_15enum_duplicatesb
081e2520 T _ZN13select_insert7prepareER4ListI4ItemEP18st_select_lex_unit
081e2a50 T _Z20kill_delayed_threadsv
081e2bd0 T _ZN14Delayed_insert14handle_insertsEv
081e3640 T handle_delayed_insert
081e3cb0 T _ZN13select_insert5abortEv
081e3e40 T _ZN13select_create5abortEv
081e4700 T _Z12mysql_insertP3THDP10TABLE_LISTR4ListI4ItemERS3_IS5_ES6_S6_15enum_duplicatesb
081e5830 W _ZN18List_iterator_fastI4ListI4ItemEEC2ERS0_IS2_E
081e5850 W _ZN18List_iterator_fastI4ListI4ItemEEC1ERS0_IS2_E
081e5870 W _ZN18List_iterator_fastI4ListI4ItemEEppEi
081e5890 W _ZN18List_iterator_fastI4ListI4ItemEE6rewindEv
081e58a0 W _ZN6I_ListI11delayed_rowEC2Ev
081e58d0 W _ZN6I_ListI11delayed_rowEC1Ev
081e5900 W _ZN6I_ListI11delayed_rowE3getEv
081e5940 W _ZN6I_ListI14Delayed_insertEC1Ev
081e5970 W _ZN15I_List_iteratorI14Delayed_insertEC2ER6I_ListIS0_E
081e5990 W _ZN15I_List_iteratorI14Delayed_insertEC1ER6I_ListIS0_E
081e59b0 W _ZN15I_List_iteratorI14Delayed_insertEppEi
081e59e0 W _ZN6I_ListI14Delayed_insertE6appendEPS0_
081e5a00 W _ZN6I_ListI11delayed_rowE9push_backEPS0_
081e5a30 W _ZN6I_ListI11delayed_rowE4headEv
081e5a50 W _ZN18List_iterator_fastI4ListI4ItemEE7replaceEPS2_
081e5a60 W _ZN18List_iterator_fastI4ListI4ItemEE7replaceERS0_IS2_E
081e5a70 W _ZN18List_iterator_fastI4ListI4ItemEE6removeEv
081e5a80 W _ZN18List_iterator_fastI4ListI4ItemEE5afterEPS2_
081e5a90 W _ZN18List_iterator_fastI4ListI4ItemEE3refEv
081e5aa0 W _ZN18List_iterator_fastI4ListI4ItemEEC2Ev
081e5ad0 W _ZN18List_iterator_fastI4ListI4ItemEE4initERS0_IS2_E
081e5af0 W _ZN18List_iterator_fastI4ListI4ItemEE7sublistERS0_IS2_Ej
081e5b10 W _ZN6I_ListI14Delayed_insertE5emptyEv
081e5b20 W _ZN6I_ListI14Delayed_insertE8is_emptyEv
081e5b40 W _ZN6I_ListI14Delayed_insertE9push_backEPS0_
081e5b70 W _ZN6I_ListI14Delayed_insertE3getEv
081e5bb0 W _ZN6I_ListI14Delayed_insertE4headEv
081e5bd0 W _ZN6I_ListI11delayed_rowE6appendEPS0_
081e5bf0 W _ZN13select_createD0Ev
081e5c10 W _ZN13select_createD1Ev
081e5c30 W _ZN6I_ListI11delayed_rowE8is_emptyEv
081e5c50 W _ZN6I_ListI11delayed_rowE5emptyEv
081e5c60 W _ZN18List_iterator_fastI4ListI4ItemEEC1Ev
081e5c90 W _ZN6I_ListI14Delayed_insertEC2Ev
081e5cc0 W _ZN11delayed_rowD1Ev
081e5d10 W _ZN11delayed_rowD0Ev
081e5d60 W _ZN14Delayed_insertD0Ev
081e5f00 W _ZN14Delayed_insertD1Ev
081e60f0 T _ZNK18Prepared_statement4typeEv
081e6100 T _ZN18Prepared_statement10deallocateEv
081e6340 T _ZN18Prepared_statement8set_nameEP13st_lex_string
081e6380 T _ZN18Prepared_statement12cleanup_stmtEv
081e63e0 T _ZN18Prepared_statement16setup_set_paramsEv
081e6460 T _ZN18Prepared_statement7prepareEPKcj
081e7a90 T _ZN26Select_fetch_protocol_prep9send_dataER4ListI4ItemE
081e7ae0 T _ZN26Select_fetch_protocol_prep8send_eofEv
081e7b20 T _ZN26Select_fetch_protocol_prep11send_fieldsER4ListI4ItemEj
081e7b70 T _ZN26Select_fetch_protocol_prepC2EP3THD
081e7c90 T _Z23mysql_stmt_get_longdataP3THDPcm
081e7d90 T _Z16mysql_stmt_closeP3THDPc
081e7dc0 T _Z16mysql_stmt_fetchP3THDPcj
081e7f20 T _Z22reinit_stmt_before_useP3THDP6st_lex
081e83e0 T _Z20mysql_sql_stmt_closeP3THD
081e84a0 T _ZN26Select_fetch_protocol_prepC1EP3THD
081e84f0 T _ZN18Prepared_statementC1EP3THDP8Protocol
081e85c0 T _Z18mysql_stmt_prepareP3THDPKcj
081e86e0 T _ZN18Prepared_statementC2EP3THDP8Protocol
081e87b0 T _ZN18Prepared_statement7executeEP6Stringb
081e8a50 T _Z16mysql_stmt_resetP3THDPc
081e8c60 T _Z22mysql_sql_stmt_prepareP3THD
081e8fb0 T _Z22mysql_sql_stmt_executeP3THD
081e90f0 T _Z18mysql_stmt_executeP3THDPcj
081e92d0 T _ZN18Prepared_statementD0Ev
081e9380 T _ZN18Prepared_statementD1Ev
081e9430 T _ZN18Prepared_statementD2Ev
081e94e0 W _ZThn12_NK18Prepared_statement4typeEv
081e94f0 W _ZN26Select_fetch_protocol_prepD1Ev
081e9510 W _ZThn12_N18Prepared_statement12cleanup_stmtEv
081e9520 W _ZN26Select_fetch_protocol_prepD0Ev
081e9540 W _ZThn12_N18Prepared_statementD0Ev
081e9550 W _ZThn12_N18Prepared_statementD1Ev
081e9560 T _Z18mysql_reset_errorsP3THDb
081e9650 T _ZN11MYSQL_ERROR7set_msgEP3THDPKc
081e9680 T _Z12push_warningP3THDN11MYSQL_ERROR18enum_warning_levelEjPKc
081e9880 T _Z19push_warning_printfP3THDN11MYSQL_ERROR18enum_warning_levelEjPKcz
081e98e0 T _Z20mysqld_show_warningsP3THDm
081e9c90 T _Z19my_locale_by_numberj
081e9cb0 T _Z17my_locale_by_namePKc
081ebed0 T _ZN9PROFILINGC2Ev
081ebf20 T _ZN13PROFILE_ENTRYD1Ev
081ebf60 T _ZN13PROFILE_ENTRYD2Ev
081ebfa0 T _ZN13QUERY_PROFILE16set_query_sourceEPcj
081ebff0 T _ZN9PROFILING16set_query_sourceEPcj
081ec010 T _ZN13PROFILE_ENTRY7collectEv
081ec060 T _ZN13QUERY_PROFILE5resetEv
081ec110 T _ZN13PROFILE_ENTRY10set_statusEPKcS1_S1_j
081ec220 T _ZN13PROFILE_ENTRYC1EP13QUERY_PROFILEPKcS3_S3_j
081ec280 T _ZN13PROFILE_ENTRYC2EP13QUERY_PROFILEPKcS3_S3_j
081ec2e0 T _ZN13PROFILE_ENTRYC1EP13QUERY_PROFILEPKc
081ec320 T _ZN13PROFILE_ENTRYC2EP13QUERY_PROFILEPKc
081ec360 T _ZN13PROFILE_ENTRYC1Ev
081ec3e0 T _ZN13QUERY_PROFILEC1EP9PROFILINGPcj
081ec470 T _ZN13QUERY_PROFILEC2EP9PROFILINGPcj
081ec500 T _ZN13PROFILE_ENTRYC2Ev
081ec580 T _Z27make_profile_table_for_showP3THDP15st_schema_table
081ec6f0 T _ZN9PROFILINGC1Ev
081ec740 T _ZN13QUERY_PROFILE6statusEPKcS1_S1_j
081ec8a0 T _ZN13QUERY_PROFILED1Ev
081ec940 T _ZN9PROFILING5storeEv
081ecaf0 T _ZN9PROFILING5resetEv
081ecb40 T _ZN9PROFILING13status_changeEPKcS1_S1_j
081ecbb0 T _ZN9PROFILINGD1Ev
081ecc50 T _ZN9PROFILINGD2Ev
081eccf0 T _ZN13QUERY_PROFILED2Ev
081ecd90 T _ZN9PROFILING13show_profilesEv
081ed180 T _ZN9PROFILING20fill_statistics_infoEP3THDP10TABLE_LISTP4Item
081ed9f0 T _Z34fill_query_profile_statistics_infoP3THDP10TABLE_LISTP4Item
081eda90 T _ZN12multi_updateC2EP10TABLE_LISTS1_P4ListI4ItemES5_15enum_duplicatesb
081edbe0 T _Z20mysql_prepare_updateP3THDP10TABLE_LISTPP4ItemjP8st_order
081eddd0 T _Z14compare_recordP8st_tabley
081edea0 T _ZN12multi_update9send_dataER4ListI4ItemE
081ee270 T _ZN12multi_updateC1EP10TABLE_LISTS1_P4ListI4ItemES5_15enum_duplicatesb
081ee300 T _Z18mysql_multi_updateP3THDP10TABLE_LISTP4ListI4ItemES6_PS4_y15enum_duplicatesbP18st_select_lex_unitP13st_select_lex
081ee460 T _ZN12multi_updateD2Ev
081ee610 T _Z26mysql_multi_update_prepareP3THD
081eebd0 T _ZN12multi_update17initialize_tablesEP4JOIN
081ef0e0 T _ZN12multi_update10do_updatesEb
081ef690 T _ZN12multi_update10send_errorEjPKc
081ef810 T _ZN12multi_update7prepareER4ListI4ItemEP18st_select_lex_unit
081efd10 T _ZN12multi_updateD0Ev
081efec0 T _ZN12multi_updateD1Ev
081f0070 T _Z12mysql_updateP3THDP10TABLE_LISTR4ListI4ItemES6_PS4_jP8st_orderm15enum_duplicatesb
081f1370 T _ZN12multi_update8send_eofEv
081f16a0 T refpos_order_cmp
081f16c0 T _ZN12multi_delete7prepareER4ListI4ItemEP18st_select_lex_unit
081f1730 T _ZN12multi_delete10do_deletesEv
081f1930 T _ZN12multi_delete10send_errorEjPKc
081f19e0 T _ZN12multi_delete9send_dataER4ListI4ItemE
081f1bd0 T _ZN12multi_delete17initialize_tablesEP4JOIN
081f1e70 T _ZN12multi_deleteC2EP10TABLE_LISTj
081f1ee0 T _Z26mysql_multi_delete_prepareP3THD
081f2080 T _Z20mysql_prepare_deleteP3THDP10TABLE_LISTPP4Item
081f2220 T _Z12mysql_deleteP3THDP10TABLE_LISTP4ItemP11st_sql_listmyb
081f2f30 T _ZN12multi_deleteD2Ev
081f2fb0 T _ZN12multi_deleteD0Ev
081f3030 T _ZN12multi_deleteD1Ev
081f30b0 T _ZN12multi_deleteC1EP10TABLE_LISTj
081f3120 T _Z14mysql_truncateP3THDP10TABLE_LISTb
081f3660 T _ZN12multi_delete8send_eofEv
081f3990 T _Z20unique_write_to_ptrsPcjP6Unique
081f39d0 T _Z20unique_write_to_filePcjP6Unique
081f3a40 T _ZN6Unique5resetEv
081f3ab0 T _ZN6Unique5flushEv
081f3b40 T _ZN6Unique3getEP8st_table
081f3e60 T _ZN6Unique4walkEPFiPvjS0_ES0_
081f41e0 T _ZN6UniqueD2Ev
081f42a0 T _ZN6UniqueC2EPFiPvPKvS2_ES0_jy
081f4390 T _ZN6UniqueC1EPFiPvPKvS2_ES0_jy
081f4480 T _ZN6UniqueD1Ev
081f44b0 T _ZN6Unique12get_use_costEPjjjy
081f47d0 T _Z8mysql_doP3THDR4ListI4ItemE
081f48a0 T _Z15setup_procedureP3THDP8st_orderP13select_resultR4ListI4ItemEPi
081f4950 T _ZN13Item_proc_int11val_decimalEP10my_decimal
081f49b0 T _ZN16Item_proc_string11val_decimalEP10my_decimal
081f4a00 T _ZN14Item_proc_real11val_decimalEP10my_decimal
081f4a80 W _ZNK9Item_proc4typeEv
081f4a90 W _ZNK14Item_proc_real11result_typeEv
081f4aa0 W _ZNK14Item_proc_real10field_typeEv
081f4ab0 W _ZN14Item_proc_real3setEd
081f4ac0 W _ZN14Item_proc_real3setEx
081f4ad0 W _ZN14Item_proc_real3setEPKcjP15charset_info_st
081f4b10 W _ZN14Item_proc_real8val_realEv
081f4b20 W _ZN14Item_proc_real7val_intEv
081f4b50 W _ZNK13Item_proc_int11result_typeEv
081f4b60 W _ZNK13Item_proc_int10field_typeEv
081f4b70 W _ZN13Item_proc_int3setEd
081f4ba0 W _ZN13Item_proc_int3setEx
081f4bc0 W _ZN13Item_proc_int3setEPKcjP15charset_info_st
081f4c10 W _ZN13Item_proc_int8val_realEv
081f4c20 W _ZN13Item_proc_int7val_intEv
081f4c30 W _ZNK16Item_proc_string11result_typeEv
081f4c40 W _ZNK16Item_proc_string10field_typeEv
081f4c50 W _ZN16Item_proc_string8val_realEv
081f4ca0 W _ZN16Item_proc_string7val_strEP6String
081f4cc0 W _ZN16Item_proc_string3setEx
081f4d00 W _ZN13Item_proc_int7val_strEP6String
081f4d40 W _ZN16Item_proc_string3setEPKcjP15charset_info_st
081f4d60 W _ZN16Item_proc_string3setEd
081f4da0 W _ZN14Item_proc_real7val_strEP6String
081f4de0 W _ZN9Item_proc10make_fieldEP10Send_field
081f4e10 W _ZN13Item_proc_intD0Ev
081f4e60 W _ZN16Item_proc_string7val_intEv
081f4eb0 W _ZN9Item_procD0Ev
081f4f00 W _ZN9Item_procD1Ev
081f4f50 W _ZN13Item_proc_intD1Ev
081f4fa0 W _ZN14Item_proc_realD0Ev
081f4ff0 W _ZN14Item_proc_realD1Ev
081f5040 W _ZN16Item_proc_stringD0Ev
081f5090 W _ZN16Item_proc_stringD1Ev
081f50e0 T _ZN21Item_sum_unique_users16create_tmp_fieldEbP8st_tablej
081f5160 W _ZN21Item_sum_unique_users8val_realEv
081f5170 W _ZNK21Item_sum_unique_users8sum_funcEv
081f5180 W _ZN21Item_sum_unique_users5clearEv
081f5190 W _ZN21Item_sum_unique_users3addEv
081f51a0 W _ZN21Item_sum_unique_users11reset_fieldEv
081f51b0 W _ZN21Item_sum_unique_users12update_fieldEv
081f51c0 W _ZN21Item_sum_unique_users10fix_fieldsEP3THDPP4Item
081f51d0 W _ZNK21Item_sum_unique_users9func_nameEv
081f51e0 W _ZN21Item_sum_unique_users12copy_or_sameEP3THD
081f5230 W _ZN21Item_sum_unique_users5printEP6String
081f5260 W _ZN21Item_sum_unique_usersD0Ev
081f52b0 W _ZN21Item_sum_unique_usersD1Ev
081f5420 T _Z18mysql_print_statusv
081f58f0 T _ZN9MYSQL_LOG4initE13enum_log_type10cache_typebm
081f5920 T _ZN9MYSQL_LOG18start_union_eventsEP3THDy
081f5950 T _ZN9MYSQL_LOG17stop_union_eventsEP3THD
081f5960 T _ZN9MYSQL_LOG17is_query_in_unionEP3THDy
081f59e0 T _ZN11TC_LOG_MMAP5unlogEmy
081f5a90 T _ZN9MYSQL_LOG12next_file_idEv
081f5ae0 T _ZN9MYSQL_LOG5closeEv
081f5b10 T _ZN9MYSQL_LOG20init_pthread_objectsEv
081f5b60 T _ZN9MYSQL_LOG19raw_get_current_logEP11st_log_info
081f5bd0 T _ZN9MYSQL_LOG15get_current_logEP11st_log_info
081f5c10 T _ZN9MYSQL_LOGC1Ev
081f5e10 T _ZN9MYSQL_LOGC2Ev
081f5ee0 T _ZN11TC_LOG_MMAP5closeEv
081f6020 T _ZN11TC_LOG_MMAP4syncEv
081f6100 T _ZN9MYSQL_LOG13signal_updateEv
081f6110 T _ZN11TC_LOG_MMAP8overflowEv
081f6140 T _ZN11TC_LOG_MMAP20get_active_from_poolEv
081f6280 T _ZN11TC_LOG_MMAP7log_xidEP3THDy
081f6470 T _ZN9MYSQL_LOG15wait_for_updateEP3THDb
081f6520 T _Z17vprint_msg_to_log8loglevelPKcPc
081f6620 T _Z21sql_print_informationPKcz
081f6650 T _Z17sql_print_warningPKcz
081f6680 T _Z15sql_print_errorPKcz
081f66b0 T _ZN9MYSQL_LOG7recoverEP11st_io_cacheP28Format_description_log_event
081f6820 T _ZN6TC_LOG23using_heuristic_recoverEv
081f6880 T _ZN11TC_LOG_MMAP7recoverEv
081f69f0 T _ZN11TC_LOG_MMAP4openEPKc
081f6e50 T _Z18check_binlog_magicP11st_io_cachePPKc
081f6f10 T _Z15flush_error_logv
081f6fe0 T _Z10sql_perrorPKc
081f7010 T _ZN9MYSQL_LOG9is_activeEPKc
081f7040 T _ZN9MYSQL_LOG14flush_and_syncEv
081f70c0 T _ZN9MYSQL_LOG13make_log_nameEPcPKc
081f7150 T _ZN9MYSQL_LOG16update_log_indexEP11st_log_infob
081f7340 T _ZN9MYSQL_LOG13find_next_logEP11st_log_infob
081f7440 T _ZN9MYSQL_LOG12find_log_posEP11st_log_infoPKcb
081f75d0 T _ZN9MYSQL_LOG15open_index_fileEPKcS1_
081f76f0 T _Z11open_binlogP11st_io_cachePKcPS2_
081f77f0 T _ZN9MYSQL_LOG13generate_nameEPKcS1_bPc
081f7890 T _ZN9MYSQL_LOG17generate_new_nameEPcPKc
081f7b10 T _ZN9MYSQL_LOG5writeEP3THD19enum_server_commandPKcz
081f7f00 T _ZN9MYSQL_LOG12set_max_sizeEm
081f7f50 T _ZN9MYSQL_LOG5writeEP3THDPKcjl
081f8670 T _ZN9MYSQL_LOG22purge_logs_before_dateEl
081f87a0 T _ZN9MYSQL_LOG10purge_logsEPKcbbbPy
081f8980 T _ZN9MYSQL_LOG15purge_first_logEP17st_relay_log_infob
081f8bf0 T _ZN9MYSQL_LOG5closeEj
081f8eb0 T _ZN9MYSQL_LOG7cleanupEv
081f8f90 T _ZN9MYSQL_LOG4openEPKc13enum_log_typeS1_10cache_typebmb
081f9750 T _ZN9MYSQL_LOG8new_fileEb
081f99b0 T _ZN9MYSQL_LOG16rotate_and_purgeEj
081f9a80 T _ZN9MYSQL_LOG5unlogEmy
081f9ae0 T _ZN9MYSQL_LOG5writeEP3THDP11st_io_cacheP9Log_event
081fa070 T _ZN9MYSQL_LOG7log_xidEP3THDy
081fa2f0 T _ZN9MYSQL_LOG5writeEP9Log_event
081fabb0 T _ZN9MYSQL_LOG7appendvEPKcjz
081fac50 T _ZN9MYSQL_LOG6appendEP9Log_event
081facf0 T _ZN9MYSQL_LOG10reset_logsEP3THD
081faed0 T _ZN9MYSQL_LOG4openEPKc
081fb200 W _ZN12TC_LOG_DUMMY4openEPKc
081fb210 W _ZN12TC_LOG_DUMMY5closeEv
081fb220 W _ZN12TC_LOG_DUMMY7log_xidEP3THDy
081fb230 W _ZN12TC_LOG_DUMMY5unlogEmy
081fb240 W _ZN9Log_event17write_data_headerEP11st_io_cache
081fb250 W _ZN9Log_event15write_data_bodyEP11st_io_cache
081fb260 W _ZN9Log_event19is_artificial_eventEv
081fb270 W _ZN9Log_event13get_data_sizeEv
081fb280 W _ZN15Query_log_event6get_dbEv
081fb290 W _ZN15Query_log_event13get_type_codeEv
081fb2a0 W _ZNK15Query_log_event8is_validEv
081fb2c0 W _ZN15Query_log_event32get_post_header_size_for_derivedEv
081fb2d0 W _ZN21Muted_query_log_event5writeEP11st_io_cache
081fb2e0 W _ZN21Muted_query_log_event29write_post_header_for_derivedEP11st_io_cache
081fb2f0 W _ZN6TC_LOGD0Ev
081fb310 W _ZN6TC_LOGD1Ev
081fb320 W _ZN9MYSQL_LOGD1Ev
081fb330 W _ZN12TC_LOG_DUMMYD0Ev
081fb350 W _ZN12TC_LOG_DUMMYD1Ev
081fb360 W _ZN11TC_LOG_MMAPD0Ev
081fb380 W _ZN11TC_LOG_MMAPD1Ev
081fb390 W _ZN9MYSQL_LOGD0Ev
081fb3b0 W _ZN21Muted_query_log_eventD0Ev
081fb400 W _ZN21Muted_query_log_eventD1Ev
081fb560 T _ZN9Log_event12get_type_strEv
081fb610 T _ZN9Log_eventC2EP3THDtb
081fb660 T _ZN9Log_eventC1EP3THDtb
081fb6b0 T _ZN9Log_eventC2EPKcPK28Format_description_log_event
081fb760 T _ZN9Log_eventC1EPKcPK28Format_description_log_event
081fb850 T _ZN14Load_log_event23get_query_buffer_lengthEv
081fb8a0 T _ZN16Intvar_log_eventC2EPKcPK28Format_description_log_event
081fb900 T _ZN16Intvar_log_eventC1EPKcPK28Format_description_log_event
081fb960 T _ZN16Intvar_log_event17get_var_type_nameEv
081fb990 T _ZN14Rand_log_eventC2EPKcPK28Format_description_log_event
081fb9f0 T _ZN14Rand_log_eventC1EPKcPK28Format_description_log_event
081fba50 T _ZN18User_var_log_eventC2EPKcPK28Format_description_log_event
081fbaf0 T _ZN18User_var_log_eventC1EPKcPK28Format_description_log_event
081fbb90 T _ZN15Slave_log_event13get_data_sizeEv
081fbbb0 T _ZN21Create_file_log_event10write_baseEP11st_io_cache
081fbbe0 T _ZN22Append_block_log_eventC2EP3THDPKcPcjb
081fbc40 T _ZN22Append_block_log_eventC1EP3THDPKcPcjb
081fbca0 T _ZN22Append_block_log_eventC2EPKcjPK28Format_description_log_event
081fbd10 T _ZN22Append_block_log_eventC1EPKcjPK28Format_description_log_event
081fbd80 T _ZNK22Append_block_log_event20get_create_or_appendEv
081fbd90 T _ZN21Delete_file_log_eventC2EP3THDPKcb
081fbde0 T _ZN21Delete_file_log_eventC1EP3THDPKcb
081fbe30 T _ZN21Delete_file_log_eventC2EPKcjPK28Format_description_log_event
081fbe90 T _ZN21Delete_file_log_eventC1EPKcjPK28Format_description_log_event
081fbef0 T _ZN22Execute_load_log_eventC2EP3THDPKcb
081fbf40 T _ZN22Execute_load_log_eventC1EP3THDPKcb
081fbf90 T _ZN22Execute_load_log_eventC2EPKcjPK28Format_description_log_event
081fbff0 T _ZN22Execute_load_log_eventC1EPKcjPK28Format_description_log_event
081fc050 T _ZN26Begin_load_query_log_eventC2EPKcjPK28Format_description_log_event
081fc090 T _ZN26Begin_load_query_log_eventC1EPKcjPK28Format_description_log_event
081fc0d0 T _ZNK26Begin_load_query_log_event20get_create_or_appendEv
081fc0e0 T _ZN28Execute_load_query_log_event32get_post_header_size_for_derivedEv
081fc0f0 T _ZN11sql_ex_info4initEPcS0_b
081fc280 T _ZN28Execute_load_query_log_event29write_post_header_for_derivedEP11st_io_cache
081fc2e0 T _ZN14Load_log_event17write_data_headerEP11st_io_cache
081fc340 T _ZN21Create_file_log_event17write_data_headerEP11st_io_cache
081fc410 T _ZN13Xid_log_eventC1EPKcPK28Format_description_log_event
081fc460 T _ZN13Xid_log_eventC2EPKcPK28Format_description_log_event
081fc4b0 T _ZN18Start_log_event_v3C1EPKcPK28Format_description_log_event
081fc530 T _ZN18Start_log_event_v3C2EPKcPK28Format_description_log_event
081fc600 T _ZN28Execute_load_query_log_event9pack_infoEP8Protocol
081fc720 T _ZN21Create_file_log_event9pack_infoEP8Protocol
081fc820 T _ZN14Rand_log_event9pack_infoEP8Protocol
081fc8e0 T _ZN18Start_log_event_v39pack_infoEP8Protocol
081fc990 T _ZN15Query_log_event9pack_infoEP8Protocol
081fcb50 T _ZN26Begin_load_query_log_eventC1EP3THDPKcPcjb
081fcbb0 T _ZN26Begin_load_query_log_eventC2EP3THDPKcPcjb
081fcc10 T _ZN22Execute_load_log_event9pack_infoEP8Protocol
081fcc60 T _ZN21Delete_file_log_event9pack_infoEP8Protocol
081fccb0 T _ZN22Append_block_log_event9pack_infoEP8Protocol
081fcd10 T _ZN15Query_log_eventC1EPKcjPK28Format_description_log_event14Log_event_type
081fcff0 T _ZN15Query_log_eventC2EPKcjPK28Format_description_log_event14Log_event_type
081fd2d0 T _ZN28Execute_load_query_log_eventC1EPKcjPK28Format_description_log_event
081fd390 T _ZN9Log_event10exec_eventEP17st_relay_log_info
081fd430 T _ZN21Delete_file_log_event10exec_eventEP17st_relay_log_info
081fd4b0 T _ZN22Append_block_log_event10exec_eventEP17st_relay_log_info
081fd750 T _ZN21Create_file_log_event10exec_eventEP17st_relay_log_info
081fdaf0 T _ZN15Slave_log_event10exec_eventEP17st_relay_log_info
081fdb30 T _ZN15Slave_log_event18init_from_mem_poolEi
081fdba0 T _ZN15Slave_log_eventC1EPKcj
081fdc50 T _ZN15Slave_log_eventC2EPKcj
081fdd00 T _ZN14Load_log_event14copy_log_eventEPKcmiPK28Format_description_log_event
081fddf0 T _ZN14Load_log_eventC1EPKcjPK28Format_description_log_event
081fdef0 T _ZN14Load_log_eventC2EPKcjPK28Format_description_log_event
081fdff0 T _ZN15Slave_log_eventC1EP3THDP17st_relay_log_info
081fe150 T _ZN15Slave_log_eventC2EP3THDP17st_relay_log_info
081fe2b0 T _ZN15Slave_log_event9pack_infoEP8Protocol
081fe3a0 T _ZN13Xid_log_event9pack_infoEP8Protocol
081fe430 T _ZN16Intvar_log_event9pack_infoEP8Protocol
081fe4c0 T _ZN14Load_log_event11print_queryEbPcPS0_S1_S1_
081fe840 T _ZN14Load_log_event9pack_infoEP8Protocol
081fe8d0 T _ZN13Xid_log_event10exec_eventEP17st_relay_log_info
081fe940 T _ZN16Rotate_log_event10exec_eventEP17st_relay_log_info
081fea90 T _ZN16Rotate_log_eventC1EPKcjPK28Format_description_log_event
081feb50 T _ZN16Rotate_log_eventC2EPKcjPK28Format_description_log_event
081fec70 T _ZN14Load_log_eventC2EP3THDP12sql_exchangePKcS5_R4ListI4ItemE15enum_duplicatesbb
081fef50 T _ZN21Create_file_log_eventC2EP3THDP12sql_exchangePKcS5_R4ListI4ItemE15enum_duplicatesbPcjb
081feff0 T _ZN15Query_log_eventC2EP3THDPKcmbbNS0_12killed_stateE
081ff210 T _ZN28Execute_load_query_log_eventC1EP3THDPKcmjj22enum_load_dup_handlingbb
081ff290 T _ZN28Execute_load_query_log_eventC2EP3THDPKcmjj22enum_load_dup_handlingbb
081ff310 T _ZN9Log_eventC1Ev
081ff370 T _ZN9Log_eventC2Ev
081ff3d0 T _ZN16Rotate_log_eventC1EP3THDPKcjyj
081ff460 T _ZN16Rotate_log_eventC2EP3THDPKcjyj
081ff4f0 T _ZN18Start_log_event_v3C1Ev
081ff550 T _ZN18Start_log_event_v3C2Ev
081ff5b0 T _ZN15Query_log_eventC1Ev
081ff5e0 T _ZN15Query_log_eventC2Ev
081ff610 T _ZN21Muted_query_log_eventC1Ev
081ff630 T _ZN21Muted_query_log_eventC2Ev
081ff650 T _ZN28Format_description_log_event25calc_server_version_splitEv
081ff6b0 T _ZN28Format_description_log_eventC1EPKcjPKS_
081ff740 T _ZN28Format_description_log_eventC2EPKcjPKS_
081ff7d0 T _ZN28Format_description_log_eventC1EhPKc
081ff9d0 T _ZN28Format_description_log_eventC2EhPKc
081ffbd0 T _ZN18Start_log_event_v310exec_eventEP17st_relay_log_info
081ffd90 T _ZN28Format_description_log_event10exec_eventEP17st_relay_log_info
081ffea0 T _ZN9Log_event14read_log_eventEP11st_io_cacheP6StringP15pthread_mutex_t
081ffff0 T _ZN9Log_event12write_headerEP11st_io_cachem
082000b0 T _ZN22Execute_load_log_event5writeEP11st_io_cache
08200120 T _ZN21Delete_file_log_event5writeEP11st_io_cache
08200190 T _ZN22Append_block_log_event5writeEP11st_io_cache
08200220 T _ZN15Slave_log_event5writeEP11st_io_cache
082002a0 T _ZN18User_var_log_event5writeEP11st_io_cache
08200470 T _ZN13Xid_log_event5writeEP11st_io_cache
082004e0 T _ZN14Rand_log_event5writeEP11st_io_cache
08200560 T _ZN16Intvar_log_event5writeEP11st_io_cache
082005e0 T _ZN16Rotate_log_event5writeEP11st_io_cache
08200670 T _ZN28Format_description_log_event5writeEP11st_io_cache
08200730 T _ZN18Start_log_event_v35writeEP11st_io_cache
082007c0 T _ZN15Query_log_event5writeEP11st_io_cache
08200ac0 T _ZN9Log_event9pack_infoEP8Protocol
08200af0 T _Z10str_to_hexPcPKcj
08200b30 T _ZN15Query_log_eventC1EP3THDPKcmbbNS0_12killed_stateE
08200d50 T _Z19append_query_stringP15charset_info_stPK6StringPS1_
08200e50 T _ZN14Stop_log_event10exec_eventEP17st_relay_log_info
08200ec0 T _ZN14Rand_log_event10exec_eventEP17st_relay_log_info
08200f00 T _ZN16Intvar_log_event10exec_eventEP17st_relay_log_info
08200f70 T _ZN21Create_file_log_eventC1EP3THDP12sql_exchangePKcS5_R4ListI4ItemE15enum_duplicatesbPcjb
08201010 T _ZN28Execute_load_query_log_eventC2EPKcjPK28Format_description_log_event
082010d0 T _ZN14Load_log_eventC1EP3THDP12sql_exchangePKcS5_R4ListI4ItemE15enum_duplicatesbb
082013b0 T _ZN9Log_event8net_sendEP8ProtocolPKcy
082014b0 T _ZN11sql_ex_info10write_dataEP11st_io_cache
08201620 T _ZN14Load_log_event15write_data_bodyEP11st_io_cache
08201700 T _ZN21Create_file_log_event15write_data_bodyEP11st_io_cache
08201790 T _ZN14Load_log_event10set_fieldsEPKcR4ListI4ItemEP23Name_resolution_context
08201850 T _ZN21Create_file_log_eventC1EPKcjPK28Format_description_log_event
08201a50 T _ZN9Log_event14read_log_eventEPKcjPS1_PK28Format_description_log_event
08201e20 T _ZN9Log_event14read_log_eventEP11st_io_cacheP15pthread_mutex_tPK28Format_description_log_event
08202040 T _ZN21Create_file_log_eventC2EPKcjPK28Format_description_log_event
08202240 T _ZN18User_var_log_event9pack_infoEP8Protocol
08202580 T _ZN16Rotate_log_event9pack_infoEP8Protocol
08202660 T _ZN18User_var_log_event10exec_eventEP17st_relay_log_info
08202ad0 T _ZN9Log_event20init_show_field_listEP4ListI4ItemE
08202f10 T _ZN15Query_log_event10exec_eventEP17st_relay_log_infoPKcj
08203810 T _ZN28Execute_load_query_log_event10exec_eventEP17st_relay_log_info
082039d0 T _ZN15Query_log_event10exec_eventEP17st_relay_log_info
08203a00 T _ZN14Load_log_event10exec_eventEP6st_netP17st_relay_log_infob
082042a0 T _ZN22Execute_load_log_event10exec_eventEP17st_relay_log_info
08204540 T _ZN15Slave_log_eventD2Ev
08204580 T _ZN15Slave_log_eventD0Ev
082045d0 T _ZN15Slave_log_eventD1Ev
08204610 W _ZN9Log_event6get_dbEv
08204630 W _ZN15Query_log_event29write_post_header_for_derivedEP11st_io_cache
08204640 W _ZNK15Slave_log_event8is_validEv
08204660 W _ZN15Slave_log_event13get_type_codeEv
08204670 W _ZN14Load_log_event6get_dbEv
08204680 W _ZNK14Load_log_event8is_validEv
082046a0 W _ZN14Load_log_event13get_data_sizeEv
08204760 W _ZN18Start_log_event_v313get_type_codeEv
08204770 W _ZNK18Start_log_event_v38is_validEv
08204780 W _ZN18Start_log_event_v313get_data_sizeEv
08204790 W _ZN18Start_log_event_v319is_artificial_eventEv
082047a0 W _ZN28Format_description_log_event13get_type_codeEv
082047b0 W _ZNK28Format_description_log_event8is_validEv
082047e0 W _ZN28Format_description_log_event13get_data_sizeEv
082047f0 W _ZN16Intvar_log_event13get_type_codeEv
08204800 W _ZN16Intvar_log_event13get_data_sizeEv
08204810 W _ZNK16Intvar_log_event8is_validEv
08204820 W _ZN14Rand_log_event13get_type_codeEv
08204830 W _ZN14Rand_log_event13get_data_sizeEv
08204840 W _ZNK14Rand_log_event8is_validEv
08204850 W _ZN13Xid_log_event13get_type_codeEv
08204860 W _ZN13Xid_log_event13get_data_sizeEv
08204870 W _ZNK13Xid_log_event8is_validEv
08204880 W _ZN18User_var_log_event13get_type_codeEv
08204890 W _ZNK18User_var_log_event8is_validEv
082048a0 W _ZN14Stop_log_event13get_type_codeEv
082048b0 W _ZNK14Stop_log_event8is_validEv
082048c0 W _ZN16Rotate_log_event13get_type_codeEv
082048d0 W _ZN16Rotate_log_event13get_data_sizeEv
082048e0 W _ZNK16Rotate_log_event8is_validEv
08204900 W _ZNK21Create_file_log_event8is_validEv
08204930 W _ZN22Append_block_log_event13get_type_codeEv
08204940 W _ZN22Append_block_log_event13get_data_sizeEv
08204950 W _ZNK22Append_block_log_event8is_validEv
08204970 W _ZN22Append_block_log_event6get_dbEv
08204980 W _ZN21Delete_file_log_event13get_type_codeEv
08204990 W _ZN21Delete_file_log_event13get_data_sizeEv
082049a0 W _ZNK21Delete_file_log_event8is_validEv
082049c0 W _ZN21Delete_file_log_event6get_dbEv
082049d0 W _ZN22Execute_load_log_event13get_type_codeEv
082049e0 W _ZN22Execute_load_log_event13get_data_sizeEv
082049f0 W _ZNK22Execute_load_log_event8is_validEv
08204a10 W _ZN22Execute_load_log_event6get_dbEv
08204a20 W _ZN26Begin_load_query_log_event13get_type_codeEv
08204a30 W _ZN28Execute_load_query_log_event13get_type_codeEv
08204a40 W _ZN9Log_event5writeEP11st_io_cache
08204ab0 W _ZNK28Execute_load_query_log_event8is_validEv
08204ad0 W _ZN14Load_log_event13get_type_codeEv
08204b40 W _ZN9Log_eventD0Ev
08204b80 W _ZN9Log_eventD1Ev
08204bb0 W _ZN21Create_file_log_event13get_type_codeEv
08204c20 W _ZN21Create_file_log_event13get_data_sizeEv
08204d80 W _ZN28Execute_load_query_log_eventD0Ev
08204dd0 W _ZN14Load_log_event10exec_eventEP17st_relay_log_info
08204e00 W _ZN22Execute_load_log_eventD0Ev
08204e40 W _ZN22Execute_load_log_eventD1Ev
08204e70 W _ZN21Delete_file_log_eventD0Ev
08204eb0 W _ZN28Execute_load_query_log_eventD1Ev
08204ef0 W _ZN18Start_log_event_v3D0Ev
08204f30 W _ZN18Start_log_event_v3D1Ev
08204f60 W _ZN28Format_description_log_eventD0Ev
08204fb0 W _ZN14Load_log_eventD0Ev
08205070 W _ZN14Load_log_eventD1Ev
08205130 W _ZN21Create_file_log_eventD1Ev
08205200 W _ZN15Query_log_eventD0Ev
08205250 W _ZN15Query_log_eventD1Ev
08205290 W _ZN21Delete_file_log_eventD1Ev
082052c0 W _ZN22Append_block_log_eventD0Ev
08205300 W _ZN22Append_block_log_eventD1Ev
08205330 W _ZN26Begin_load_query_log_eventD1Ev
08205360 W _ZN16Rotate_log_eventD0Ev
082053b0 W _ZN16Rotate_log_eventD1Ev
08205400 W _ZN14Stop_log_eventD0Ev
08205440 W _ZN14Stop_log_eventD1Ev
08205470 W _ZN18User_var_log_eventD0Ev
082054b0 W _ZN18User_var_log_eventD1Ev
082054e0 W _ZN13Xid_log_eventD0Ev
08205520 W _ZN13Xid_log_eventD1Ev
08205550 W _ZN14Rand_log_eventD0Ev
08205590 W _ZN14Rand_log_eventD1Ev
082055c0 W _ZN16Intvar_log_eventD0Ev
08205600 W _ZN16Intvar_log_eventD1Ev
08205630 W _ZN26Begin_load_query_log_eventD0Ev
08205670 W _ZN28Format_description_log_eventD1Ev
082056b0 W _ZN21Create_file_log_eventD0Ev
08205780 T _Z11unireg_initm
08205800 T _Z15init_errmessagev
08205c70 T _Z17wild_case_compareP15charset_info_stPKcS2_
08205de0 T _Z18get_privilege_descPcjm
08205e50 T _Z14check_acl_userP11st_lex_userPj
08206260 T _Z15get_table_grantP3THDP10TABLE_LIST
082064d0 T _Z11is_acl_userPKcS0_
08206650 T _Z23update_schema_privilegeP8st_tablePcPKcS3_S3_jS3_jS3_
08206830 T _Z28fill_schema_table_privilegesP3THDP10TABLE_LISTP4Item
08206ae0 T _Z27hostname_requires_resolvingPKc
08206b90 T _Z7get_mqhPKcS0_P9user_conn
08206c40 T _Z21check_change_passwordP3THDPKcS2_Pcj
08207780 T _Z14check_grant_dbP3THDPKc
08207880 T _Z16free_grant_tableP11GRANT_TABLE
082079e0 T _ZN10GRANT_NAMEC1EPKcS1_S1_S1_m
08207b30 T _ZN10GRANT_NAMEC2EPKcS1_S1_S1_m
08207c80 T _ZN11GRANT_TABLEC1EPKcS1_S1_S1_mm
08207d10 T _ZN11GRANT_TABLEC2EPKcS1_S1_S1_mm
08207da0 T _Z14acl_check_hostPKcS0_
082083a0 T _ZN10GRANT_NAMEC1EP8st_table
08208570 T _ZN10GRANT_NAMEC2EP8st_table
08208d90 T _Z17open_grant_tablesP3THDP10TABLE_LIST
08208fa0 T _Z10grant_freev
08208ff0 T _Z7acl_getPKcS0_S0_S0_c
08209330 T _Z23acl_getroot_no_passwordP16Security_contextPcS1_S1_S1_
08209530 T _Z11acl_getrootP3THDP14user_resourcesPKcj
08209930 T _Z20sp_revoke_privilegesP3THDPKcS2_b
08209b40 T _ZN11GRANT_TABLED2Ev
08209b70 T _Z29fill_schema_schema_privilegesP3THDP10TABLE_LISTP4Item
08209e40 T _Z27fill_schema_user_privilegesP3THDP10TABLE_LISTP4Item
0820a0e0 T _Z29fill_schema_column_privilegesP3THDP10TABLE_LISTP4Item
0820a3a0 T _ZN11GRANT_TABLED0Ev
0820a3d0 T _ZN11GRANT_TABLED1Ev
0820a400 T _Z23check_routine_level_aclP3THDPKcS2_b
0820a4b0 T _Z19check_grant_routineP3THDmP10TABLE_LISTbb
0820a670 T _Z31fill_effective_table_privilegesP3THDP13st_grant_infoPKcS4_
0820a770 T _Z16get_column_grantP3THDP13st_grant_infoPKcS4_S4_
0820a840 T _Z23check_grant_all_columnsP3THDmP13st_grant_infoPKcS4_P14Field_iterator
0820a9c0 T _Z18check_grant_columnP3THDP13st_grant_infoPKcS4_S4_jP16Security_context
0820aaf0 T _Z31check_column_grant_in_table_refP3THDP10TABLE_LISTPKcj
0820ac50 T _Z11check_grantP3THDmP10TABLE_LISTjjb
0820b720 T _ZN11GRANT_TABLEC1EP8st_tableS1_
0820bb30 T _Z12grant_reloadP3THD
0820c190 T _Z10grant_initv
0820c300 T _ZN11GRANT_TABLEC2EP8st_tableS1_
0820cd30 T _Z17mysql_show_grantsP3THDP11st_lex_user
0820e0e0 T _Z15change_passwordP3THDPKcS2_Pc
0820e5c0 T _Z17mysql_rename_userP3THDR4ListI11st_lex_userE
0820e860 T _Z15mysql_drop_userP3THDR4ListI11st_lex_userE
0820eaa0 T _Z8acl_freeb
0820ebd0 T _Z10acl_reloadP3THD
0820fc40 T _Z8acl_initb
08211310 T _Z16mysql_revoke_allP3THDR4ListI11st_lex_userE
082118e0 T _Z17mysql_create_userP3THDR4ListI11st_lex_userE
08211b70 T _Z11mysql_grantP3THDPKcR4ListI11st_lex_userEmb
08211fc0 T _Z19mysql_routine_grantP3THDP10TABLE_LISTbR4ListI11st_lex_userEmbb
08212580 T _Z19sp_grant_privilegesP3THDPKcS2_b
08212890 T _Z17mysql_table_grantP3THDP10TABLE_LISTR4ListI11st_lex_userERS3_I10LEX_COLUMNEmb
082132c0 W _ZN10GRANT_NAMED1Ev
082132d0 W _ZN10GRANT_NAME2okEv
082132f0 W _ZN11GRANT_TABLE2okEv
08213310 W _ZN13List_iteratorI10LEX_COLUMNEC2ER4ListIS0_E
08213330 W _ZN13List_iteratorI10LEX_COLUMNEC1ER4ListIS0_E
08213350 W _ZN13List_iteratorI10LEX_COLUMNEppEi
08213370 W _ZN13List_iteratorI11st_lex_userEC1ER4ListIS0_E
08213390 W _ZN13List_iteratorI11st_lex_userEppEi
082133b0 W _ZN4ListI10LEX_COLUMNEC2Ev
082133d0 W _ZN4ListI10LEX_COLUMNEC1Ev
082133f0 W _ZN4ListI11st_lex_userEC1Ev
08213410 W _ZN13List_iteratorI10LEX_COLUMNEC2Ev
08213440 W _ZN13List_iteratorI10LEX_COLUMNE4initER4ListIS0_E
08213460 W _ZN13List_iteratorI10LEX_COLUMNE7replaceEPS0_
08213480 W _ZN13List_iteratorI10LEX_COLUMNE7replaceER4ListIS0_E
082134f0 W _ZN13List_iteratorI10LEX_COLUMNE6rewindEv
08213500 W _ZN13List_iteratorI10LEX_COLUMNE6removeEv
08213560 W _ZN13List_iteratorI10LEX_COLUMNE3refEv
08213570 W _ZN4ListI10LEX_COLUMNEC2ERKS1_
082135a0 W _ZN4ListI10LEX_COLUMNE4headEv
082135b0 W _ZN4ListI10LEX_COLUMNE8head_refEv
082135d0 W _ZN4ListI11st_lex_userE3popEv
08213600 W _ZN4ListI11st_lex_userE6concatEPS1_
08213630 W _ZN4ListI11st_lex_userE7disjoinEPS1_
08213680 W _ZN4ListI11st_lex_userE7prepandEPS1_
082136b0 W _ZN13List_iteratorI10LEX_COLUMNE5afterEPS0_
08213710 W _ZN4ListI11st_lex_userE10push_frontEPS0_
08213760 W _ZN4ListI11st_lex_userE9push_backEPS0_P11st_mem_root
082137d0 W _ZN4ListI10LEX_COLUMNEC2ERKS1_P11st_mem_root
08213870 W _ZN4ListI11st_lex_userEC1ERKS1_
082138a0 W _ZN4ListI11st_lex_userEC2ERKS1_
082138d0 W _ZN4ListI10LEX_COLUMNEC1ERKS1_
08213900 W _ZN13List_iteratorI11st_lex_userEC1Ev
08213930 W _ZN13List_iteratorI11st_lex_userEC2Ev
08213960 W _ZN13List_iteratorI10LEX_COLUMNEC1Ev
08213990 W _ZN4ListI11st_lex_userE15delete_elementsEv
082139e0 W _ZN13List_iteratorI11st_lex_userE7replaceEPS0_
08213a00 W _ZN13List_iteratorI11st_lex_userE3refEv
08213a10 W _ZN10GRANT_NAMED0Ev
08213a20 W _ZN4ListI11st_lex_userE4headEv
08213a30 W _ZN13List_iteratorI11st_lex_userE6rewindEv
08213a40 W _ZN4ListI11st_lex_userE8head_refEv
08213a60 W _ZN13List_iteratorI11st_lex_userEC2ER4ListIS0_E
08213a80 W _ZN13List_iteratorI11st_lex_userE4initER4ListIS0_E
08213aa0 W _ZN4ListI11st_lex_userEC2Ev
08213ac0 W _ZN4ListI10LEX_COLUMNE7prepandEPS1_
08213af0 W _ZN4ListI10LEX_COLUMNE6concatEPS1_
08213b20 W _ZN4ListI10LEX_COLUMNE7disjoinEPS1_
08213b70 W _ZN4ListI10LEX_COLUMNE3popEv
08213ba0 W _ZN13List_iteratorI11st_lex_userE7replaceER4ListIS0_E
08213c10 W _ZN13List_iteratorI11st_lex_userE6removeEv
08213c70 W _ZN13List_iteratorI11st_lex_userE5afterEPS0_
08213cd0 W _ZN4ListI10LEX_COLUMNE9push_backEPS0_P11st_mem_root
08213d40 W _ZN4ListI10LEX_COLUMNE10push_frontEPS0_
08213d90 W _ZN4ListI10LEX_COLUMNE9push_backEPS0_
08213e00 W _ZN4ListI11st_lex_userE9push_backEPS0_
08213e70 W _ZN4ListI10LEX_COLUMNE15delete_elementsEv
08213ef0 W _ZN4ListI11st_lex_userEC1ERKS1_P11st_mem_root
08213f90 W _ZN4ListI11st_lex_userEC2ERKS1_P11st_mem_root
08214030 W _ZN4ListI10LEX_COLUMNEC1ERKS1_P11st_mem_root
08214a30 T _Z16mysql_create_frmP3THDPcPKcS3_P24st_ha_create_informationR4ListI12create_fieldEjP6st_keyP7handler
08215ba0 T _Z16rea_create_tableP3THDPcPKcS3_P24st_ha_create_informationR4ListI12create_fieldEjP6st_key
08215c60 T _Z17load_des_key_filePKc
08215f10 T _Z8writefrmPKcPKvj
08215fc0 T _Z7readfrmPKcPPKvPj
082160b0 T _Z12calc_weekdaylb
082160f0 T _Z23convert_period_to_monthm
08216150 T _Z23convert_month_to_periodm
082161a0 T _Z17TIME_to_timestampP3THDPK13st_mysql_timePc
082161d0 T _Z17localtime_to_TIMEP13st_mysql_timeP2tm
08216230 T _Z18calc_time_from_secP13st_mysql_timell
08216290 T _Z22parse_date_time_format25enum_mysql_timestamp_typePKcjP19st_date_time_format
08216750 T _Z24get_date_time_format_strP25st_known_date_time_format25enum_mysql_timestamp_type
08216790 T _Z21date_time_format_copyP3THDP19st_date_time_format
08216820 T _Z21date_time_format_make25enum_mysql_timestamp_typePKcj
08216890 T _Z19get_date_from_daynrlPjS_S_
08216990 T _Z9calc_weekP13st_mysql_timejPj
08216b60 T _Z9make_datePK19st_date_time_formatPK13st_mysql_timeP6String
08216b90 T _Z9make_timePK19st_date_time_formatPK13st_mysql_timeP6String
08216bc0 T _Z13make_datetimePK19st_date_time_formatPK13st_mysql_timeP6String
08216bf0 T _Z28make_truncated_value_warningP3THDN11MYSQL_ERROR18enum_warning_levelEPKcj25enum_mysql_timestamp_typeS4_
08216db0 T _Z21str_to_time_with_warnPKcjP13st_mysql_time
08216e40 T _Z25str_to_datetime_with_warnPKcjP13st_mysql_timej
08216ef0 T _ZN10SQL_SELECTC1Ev
08216f40 T _ZN14QUICK_SELECT_IC2Ev
08216f60 T _ZN14QUICK_SELECT_IC1Ev
08216f80 T _ZN24QUICK_INDEX_MERGE_SELECT4initEv
08216f90 T _ZN26QUICK_ROR_INTERSECT_SELECT4initEv
08216fb0 T _ZN22QUICK_ROR_UNION_SELECT9queue_cmpEPvPcS1_
08216fe0 T _ZN11QUICK_RANGEC1Ev
08217010 T _ZN7SEL_ARGC1ERS_
08217070 T _ZN7SEL_ARGC1EP5FieldPKcS3_
082170e0 T _ZN7SEL_ARGC1EP5FieldhPcS2_hhh
08217160 T _ZN7SEL_ARG5firstEv
08217180 T _ZN7SEL_ARG4lastEv
082173d0 T _Z21sel_trees_can_be_oredP8SEL_TREES0_P13st_qsel_param
08217540 T _ZN7SEL_ARG9rb_insertEPS_
08217640 T _Z15rb_delete_fixupP7SEL_ARGS0_S0_
08217800 T _ZN18QUICK_RANGE_SELECT16unique_key_rangeEv
08217860 T _ZN18QUICK_RANGE_SELECT8get_nextEv
082179c0 T _ZN23QUICK_RANGE_SELECT_GEOM8get_nextEv
08217a70 T _ZN18QUICK_RANGE_SELECT8cmp_nextEP11QUICK_RANGE
08217b90 T _ZN17QUICK_SELECT_DESC21range_reads_after_keyEP11QUICK_RANGE
08217be0 T _ZN26QUICK_GROUP_MIN_MAX_SELECT17update_max_resultEv
08217ce0 T _ZN18QUICK_RANGE_SELECT15add_info_stringEP6String
08217d10 T _ZN26QUICK_GROUP_MIN_MAX_SELECT20add_keys_and_lengthsEP6StringS1_
08217d80 T _ZN18QUICK_RANGE_SELECT20add_keys_and_lengthsEP6StringS1_
08217df0 T _ZN26QUICK_GROUP_MIN_MAX_SELECT15update_key_statEv
08217eb0 T _ZN26QUICK_GROUP_MIN_MAX_SELECT20adjust_prefix_rangesEv
08217f10 T _ZN18QUICK_RANGE_SELECT8cmp_prevEP11QUICK_RANGE
08217f60 T _ZN18QUICK_RANGE_SELECT13row_in_rangesEv
08218000 T _Z17ror_intersect_cpyP18ROR_INTERSECT_INFOPKS_
08218060 T _ZN10SEL_IMERGE11or_sel_treeEP13st_qsel_paramP8SEL_TREE
08218120 T _ZN26QUICK_GROUP_MIN_MAX_SELECT17next_max_in_rangeEv
08218320 T _ZN26QUICK_GROUP_MIN_MAX_SELECT8next_maxEv
08218370 T _ZN26QUICK_GROUP_MIN_MAX_SELECT17next_min_in_rangeEv
08218600 T _ZN26QUICK_GROUP_MIN_MAX_SELECT8next_minEv
08218760 T _ZN22QUICK_ROR_UNION_SELECTC1EP3THDP8st_table
082187f0 T _ZN22QUICK_ROR_UNION_SELECTC2EP3THDP8st_table
08218880 T _ZN26QUICK_GROUP_MIN_MAX_SELECTC1EP8st_tableP4JOINbbP16st_key_part_infojjP6st_keyjdmjPcP11st_mem_root
082189a0 T _ZN26QUICK_GROUP_MIN_MAX_SELECTC2EP8st_tableP4JOINbbP16st_key_part_infojjP6st_keyjdmjPcP11st_mem_root
08218ac0 T _ZN26QUICK_ROR_INTERSECT_SELECTC1EP3THDP8st_tablebP11st_mem_root
08218ba0 T _ZN24QUICK_INDEX_MERGE_SELECTC1EP3THDP8st_table
08218c40 T _ZN24QUICK_INDEX_MERGE_SELECTC2EP3THDP8st_table
08218ce0 T _ZN18QUICK_RANGE_SELECTC1EP3THDP8st_tablejbP11st_mem_root
08218df0 T _ZN18QUICK_RANGE_SELECTC2EP3THDP8st_tablejbP11st_mem_root
08218f00 T _ZN18QUICK_RANGE_SELECT15get_next_prefixEjPc
08219090 T _ZN26QUICK_GROUP_MIN_MAX_SELECT11next_prefixEv
08219180 T _Z11make_selectP8st_tableyyP4ItembPi
082192a0 T _ZN22QUICK_ROR_UNION_SELECT8get_nextEv
082193a0 T _ZN24QUICK_INDEX_MERGE_SELECT8get_nextEv
08219430 T _ZN14QUICK_SELECT_I12is_keys_usedEP4ListI4ItemE
08219460 T _Z19get_sweep_read_costPK13st_qsel_paramm
0821a480 T _ZN22QUICK_ROR_UNION_SELECT4initEv
0821a540 T _ZN10SQL_SELECT7cleanupEv
0821a5a0 T _ZN10SQL_SELECTD2Ev
0821a5b0 T _ZN26QUICK_ROR_INTERSECT_SELECT12is_keys_usedEP4ListI4ItemE
0821a610 T _ZN24QUICK_INDEX_MERGE_SELECT12is_keys_usedEP4ListI4ItemE
0821a670 T _ZN26QUICK_ROR_INTERSECT_SELECT5resetEv
0821a6d0 T _ZN26QUICK_ROR_INTERSECT_SELECT20init_ror_merged_scanEb
0821a7c0 T _ZN7SEL_ARGC2EP5FieldPKcS3_
0821a830 T _ZN7SEL_ARGC2ERS_
0821a890 T _ZN11QUICK_RANGEC2Ev
0821a8c0 T _ZN22QUICK_ROR_UNION_SELECT12is_keys_usedEP4ListI4ItemE
0821a910 T _ZN26QUICK_ROR_INTERSECT_SELECT8get_nextEv
0821aae0 T _ZN10SQL_SELECTC2Ev
0821ab30 T _ZN10SQL_SELECTD1Ev
0821ab40 T _Z19get_index_for_orderP8st_tableP8st_orderm
0821ad30 T _ZN7SEL_ARGC2EP5FieldhPcS2_hhh
0821adb0 T _ZN26QUICK_ROR_INTERSECT_SELECTC2EP3THDP8st_tablebP11st_mem_root
0821ae90 T _ZN17QUICK_SELECT_DESC8get_nextEv
0821b060 T _ZN26QUICK_ROR_INTERSECT_SELECT15push_quick_backEP18QUICK_RANGE_SELECT
0821b0d0 T _ZN26QUICK_GROUP_MIN_MAX_SELECT5resetEv
0821b190 T _ZN18QUICK_RANGE_SELECT5resetEv
0821b310 T _ZN22QUICK_ROR_UNION_SELECT5resetEv
0821b400 T _ZN24QUICK_INDEX_MERGE_SELECT19read_keys_and_mergeEv
0821b680 T _ZN24QUICK_INDEX_MERGE_SELECT5resetEv
0821b690 T _ZN18QUICK_RANGE_SELECT20init_ror_merged_scanEb
0821b860 T _ZN18QUICK_RANGE_SELECT4initEv
0821b8d0 T _ZN22QUICK_ROR_UNION_SELECTD2Ev
0821b970 T _ZN24QUICK_INDEX_MERGE_SELECTD0Ev
0821ba20 T _ZN26QUICK_GROUP_MIN_MAX_SELECTD0Ev
0821bac0 T _ZN26QUICK_GROUP_MIN_MAX_SELECTD1Ev
0821bb60 T _ZN26QUICK_GROUP_MIN_MAX_SELECTD2Ev
0821bc00 T _ZN22QUICK_ROR_UNION_SELECTD0Ev
0821bcb0 T _ZN22QUICK_ROR_UNION_SELECTD1Ev
0821bd50 T _ZN17QUICK_SELECT_DESCC2EP18QUICK_RANGE_SELECTj
0821beb0 T _ZN26QUICK_GROUP_MIN_MAX_SELECT17update_min_resultEv
0821bf20 T _ZN26QUICK_GROUP_MIN_MAX_SELECT8get_nextEv
0821c0b0 T _ZN7SEL_ARG10find_rangeEPS_
0821c1e0 T _ZN7SEL_ARG6insertEPS_
0821c2b0 T _ZN17QUICK_SELECT_DESCC1EP18QUICK_RANGE_SELECTj
0821c410 T _ZN18QUICK_RANGE_SELECT9range_endEv
0821c460 T _ZN18QUICK_RANGE_SELECTD0Ev
0821c560 T _ZN18QUICK_RANGE_SELECTD1Ev
0821c650 T _ZN18QUICK_RANGE_SELECTD2Ev
0821c880 T _ZN22QUICK_ROR_UNION_SELECT15push_quick_backEP14QUICK_SELECT_I
0821c8f0 T _ZN13TRP_ROR_UNION10make_quickEP13st_qsel_parambP11st_mem_root
0821c990 T _ZN24QUICK_INDEX_MERGE_SELECT15push_quick_backEP18QUICK_RANGE_SELECT
0821ca20 T _ZN15TRP_INDEX_MERGE10make_quickEP13st_qsel_parambP11st_mem_root
0821cae0 T _ZN24QUICK_INDEX_MERGE_SELECTD1Ev
0821cb90 T _ZN24QUICK_INDEX_MERGE_SELECTD2Ev
0821cc40 T _ZN26QUICK_ROR_INTERSECT_SELECTD0Ev
0821ccf0 T _ZN26QUICK_ROR_INTERSECT_SELECTD1Ev
0821cda0 T _ZN26QUICK_ROR_INTERSECT_SELECTD2Ev
0821ce50 T _ZN26QUICK_GROUP_MIN_MAX_SELECT9add_rangeEP7SEL_ARG
0821cf80 T _Z24get_quick_select_for_refP3THDP8st_tableP12st_table_refm
0821d200 T _ZN26QUICK_GROUP_MIN_MAX_SELECT4initEv
0821deb0 T _ZN22QUICK_ROR_UNION_SELECT20add_keys_and_lengthsEP6StringS1_
0821dfa0 T _ZN26QUICK_ROR_INTERSECT_SELECT20add_keys_and_lengthsEP6StringS1_
0821e200 T _ZN24QUICK_INDEX_MERGE_SELECT20add_keys_and_lengthsEP6StringS1_
0821e430 T _ZN22QUICK_ROR_UNION_SELECT15add_info_stringEP6String
0821e510 T _ZN26QUICK_ROR_INTERSECT_SELECT15add_info_stringEP6String
0821e690 T _ZN24QUICK_INDEX_MERGE_SELECT15add_info_stringEP6String
0821e7c0 T _ZN7SEL_ARG11tree_deleteEPS_
0821e950 T _ZN7SEL_ARG5cloneEP13st_qsel_paramPS_PS2_
0821eb30 T _ZN7SEL_ARG10clone_treeEP13st_qsel_param
0821fd00 T _ZN10SEL_IMERGE23or_sel_tree_with_checksEP13st_qsel_paramP8SEL_TREE
0821fd90 T _Z19imerge_list_or_treeP13st_qsel_paramP4ListI10SEL_IMERGEEP8SEL_TREE
0821fe10 T _ZN10SEL_IMERGE25or_sel_imerge_with_checksEP13st_qsel_paramPS_
0821fe70 T _Z19imerge_list_or_listP13st_qsel_paramP4ListI10SEL_IMERGEES4_
082214b0 T _Z14get_quick_keysP13st_qsel_paramP18QUICK_RANGE_SELECTP11st_key_partP7SEL_ARGPcjS7_j
08221bf0 T _Z16get_quick_selectP13st_qsel_paramjP7SEL_ARGP11st_mem_root
08221d70 T _ZN17TRP_GROUP_MIN_MAX10make_quickEP13st_qsel_parambP11st_mem_root
08221f20 T _ZN17TRP_ROR_INTERSECT10make_quickEP13st_qsel_parambP11st_mem_root
08222e80 T _ZN10SQL_SELECT17test_quick_selectEP3THD6BitmapILj64EEymb
082251b0 W _ZN14QUICK_SELECT_I9range_endEv
082251c0 W _ZN14QUICK_SELECT_I16unique_key_rangeEv
082251d0 W _ZN14QUICK_SELECT_I20init_ror_merged_scanEb
082251e0 W _ZN14QUICK_SELECT_I13save_last_posEv
082251f0 W _ZN14QUICK_SELECT_I15add_info_stringEP6String
08225200 W _ZN18QUICK_RANGE_SELECT8get_typeEv
08225210 W _ZN24QUICK_INDEX_MERGE_SELECT14reverse_sortedEv
08225220 W _ZN24QUICK_INDEX_MERGE_SELECT16unique_key_rangeEv
08225230 W _ZN24QUICK_INDEX_MERGE_SELECT8get_typeEv
08225240 W _ZN26QUICK_ROR_INTERSECT_SELECT14reverse_sortedEv
08225250 W _ZN26QUICK_ROR_INTERSECT_SELECT16unique_key_rangeEv
08225260 W _ZN26QUICK_ROR_INTERSECT_SELECT8get_typeEv
08225270 W _ZN22QUICK_ROR_UNION_SELECT14reverse_sortedEv
08225280 W _ZN22QUICK_ROR_UNION_SELECT16unique_key_rangeEv
08225290 W _ZN22QUICK_ROR_UNION_SELECT8get_typeEv
082252a0 W _ZN26QUICK_GROUP_MIN_MAX_SELECT14reverse_sortedEv
082252b0 W _ZN26QUICK_GROUP_MIN_MAX_SELECT16unique_key_rangeEv
082252c0 W _ZN26QUICK_GROUP_MIN_MAX_SELECT8get_typeEv
082252d0 W _ZN17QUICK_SELECT_DESC14reverse_sortedEv
082252e0 W _ZN17QUICK_SELECT_DESC8get_typeEv
082252f0 W _ZN13List_iteratorI11QUICK_RANGEE6rewindEv
08225300 W _ZN4ListI11QUICK_RANGEEC2Ev
08225320 W _ZN4ListI11QUICK_RANGEEC1Ev
08225340 W _ZN13List_iteratorI11QUICK_RANGEEC2ER4ListIS0_E
08225360 W _ZN13List_iteratorI11QUICK_RANGEEC1ER4ListIS0_E
08225380 W _ZN13List_iteratorI11QUICK_RANGEEppEi
082253a0 W _ZN13List_iteratorI11QUICK_RANGEE3refEv
082253b0 W _ZN4ListI11QUICK_RANGEEC2ERKS1_
082253e0 W _ZN4ListI11QUICK_RANGEE4headEv
082253f0 W _ZN4ListI11QUICK_RANGEE8head_refEv
08225410 W _ZN4ListI11QUICK_RANGEE3popEv
08225440 W _ZN4ListI11QUICK_RANGEE6concatEPS1_
08225470 W _ZN4ListI11QUICK_RANGEE7disjoinEPS1_
082254c0 W _ZN4ListI11QUICK_RANGEE7prepandEPS1_
082254f0 W _ZN4ListI11QUICK_RANGEE15delete_elementsEv
08225520 W _ZN13List_iteratorI11QUICK_RANGEEC2Ev
08225550 W _ZN13List_iteratorI11QUICK_RANGEE4initER4ListIS0_E
08225570 W _ZN13List_iteratorI11QUICK_RANGEE7replaceEPS0_
08225590 W _ZN13List_iteratorI11QUICK_RANGEE7replaceER4ListIS0_E
08225600 W _ZN13List_iteratorI11QUICK_RANGEE6removeEv
08225660 W _ZN14QUICK_SELECT_ID0Ev
08225680 W _ZN14QUICK_SELECT_ID1Ev
08225690 W _ZN13List_iteratorI11QUICK_RANGEE5afterEPS0_
082256f0 W _ZN4ListI11QUICK_RANGEE10push_frontEPS0_
08225740 W _ZN4ListI11QUICK_RANGEE9push_backEPS0_P11st_mem_root
082257b0 W _ZN4ListI11QUICK_RANGEEC2ERKS1_P11st_mem_root
08225850 W _ZN9TRP_RANGED1Ev
08225860 W _ZN15TABLE_READ_PLAND0Ev
08225870 W _ZN15TABLE_READ_PLAND1Ev
08225880 W _ZN17TRP_GROUP_MIN_MAXD0Ev
08225890 W _ZN17TRP_GROUP_MIN_MAXD1Ev
082258a0 W _ZN15TRP_INDEX_MERGED0Ev
082258b0 W _ZN15TRP_INDEX_MERGED1Ev
082258c0 W _ZN13TRP_ROR_UNIOND0Ev
082258d0 W _ZN13TRP_ROR_UNIOND1Ev
082258e0 W _ZN17TRP_ROR_INTERSECTD0Ev
082258f0 W _ZN17TRP_ROR_INTERSECTD1Ev
08225900 W _ZN9TRP_RANGED0Ev
08225910 W _ZN4ListI11QUICK_RANGEEC1ERKS1_
08225940 W _ZN13List_iteratorI11QUICK_RANGEEC1Ev
08225970 W _ZN17QUICK_SELECT_DESC5resetEv
08225990 W _ZN4ListI11QUICK_RANGEEC1ERKS1_P11st_mem_root
08225a30 W _ZN23QUICK_RANGE_SELECT_GEOMD0Ev
08225a60 W _ZN23QUICK_RANGE_SELECT_GEOMD1Ev
08225a80 W _ZN17QUICK_SELECT_DESCD0Ev
08225ab0 W _ZN17QUICK_SELECT_DESCD1Ev
08225ad0 W _ZN4ListI11QUICK_RANGEE9push_backEPS0_
08225b40 W _ZN7SEL_ARG9free_treeEv
08225d10 W _ZN7SEL_ARG13store_min_keyEP11st_key_partPPcPj
082262a0 W _ZN7SEL_ARG19increment_use_countEl
08226530 W _ZN7SEL_ARG13store_max_keyEP11st_key_partPPcPj
08226dd0 W _ZN9TRP_RANGE10make_quickEP13st_qsel_parambP11st_mem_root
08226e20 T _Z11simple_predP9Item_funcPP4ItemPb
08227800 T _Z13opt_sum_queryP10TABLE_LISTR4ListI4ItemEPS2_
08228330 T _Z13rr_sequentialP14st_read_record
082283c0 T _Z15end_read_recordP14st_read_record
082284d0 T _Z20init_read_record_idxP14st_read_recordP3THDP8st_tablebj
08228910 T _Z16init_read_recordP14st_read_recordP3THDP8st_tableP10SQL_SELECTib
08228db0 T _Z16reuse_freed_buffP8st_queueP10st_buffpekj
08228ef0 T _Z22change_double_for_sortdPc
08228fb0 T _Z14read_to_bufferP11st_io_cacheP10st_buffpekj
08229040 T _Z21filesort_free_buffersP8st_tableb
08229290 T _Z13merge_buffersP13st_sort_paramP11st_io_cacheS2_PhP10st_buffpekS5_S5_i
08229860 T _Z15merge_many_buffP13st_sort_paramPhP10st_buffpekPjP11st_io_cache
08229b20 T _Z8filesortP3THDP8st_tableP13st_sort_fieldjP10SQL_SELECTmPm
0822b500 T _Z21ha_get_storage_engine7db_type
0822b540 T _Z28ha_check_storage_engine_flag7db_typej
0822b590 T _Z28ha_storage_engine_is_enabled7db_type
0822b5d0 T _Z19ha_close_connectionP3THD
0822b620 T _Z28ha_commit_or_rollback_by_xidP5xid_tb
0822b690 T _ZN7handler42adjust_next_insert_id_after_explicit_valueEy
0822b770 T _ZN7handler22restore_auto_incrementEv
0822b7c0 T _ZN7handler17get_error_messageEiP6String
0822b7d0 T _ZN7handler20ha_check_for_upgradeEP15st_ha_check_opt
0822b8a0 T _ZN7handler15check_old_typesEv
0822b900 T _ZN7handler11get_dup_keyEi
0822b970 T _Z13ha_find_filesP3THDPKcS2_S2_bP4ListIcE
0822b980 T _Z25ha_table_exists_in_engineP3THDPKcS2_
0822b990 T _ZN7handler22read_multi_range_firstEPP18st_key_multi_rangeS1_jbP17st_handler_buffer
0822ba40 T _ZN7handler21read_multi_range_nextEPP18st_key_multi_range
0822bb20 T _ZN7handler14index_read_idxEPcjPKcj16ha_rkey_function
0822bbb0 T _ZN7handler11compare_keyEP12st_key_range
0822bbf0 T _ZN7handler15read_range_nextEv
0822bc80 T _ZN7handler16read_range_firstEPK12st_key_rangeS2_bb
0822bd70 T _Z11ha_discoverP3THDPKcS2_PPKvPj
0822bda0 T _Z19ha_change_key_cacheP12st_key_cacheS0_
0822bdc0 T _Z16ha_end_key_cacheP12st_key_cache
0822bde0 T _Z25ha_change_key_cache_paramP12st_key_cache
0822be40 T _Z19ha_resize_key_cacheP12st_key_cache
0822bed0 T _Z17ha_init_key_cachePKcP12st_key_cache
0822bf60 T _Z20ha_release_savepointP3THDP12st_savepoint
0822c000 T _Z12ha_savepointP3THDP12st_savepoint
0822c0f0 T _Z24ha_rollback_to_savepointP3THDP12st_savepoint
0822c200 T _Z12ha_checktypeP3THD7db_typebb
0822c2a0 T _ZN7handler15index_next_sameEPcPKcj
0822c500 T _ZN7handler9ha_repairEP3THDP15st_ha_check_opt
0822c540 T _ZN7handler8ha_checkEP3THDP15st_ha_check_opt
0822c5e0 T _ZN7handler12rename_tableEPKcS1_
0822c650 T _ZN7handler12delete_tableEPKc
0822c6f0 T _Z18ha_resolve_by_namePKcj
0822c840 T _ZN7handler18get_auto_incrementEv
0822c980 T _ZN7handler7ha_openEPKcii
0822cab0 T _Z13ha_flush_logsv
0822cae0 T _Z28ha_start_consistent_snapshotP3THD
0822cb40 T _Z20ha_update_statisticsv
0822cb60 T _Z28ha_release_temporary_latchesP3THD
0822cb80 T _Z17trans_register_haP3THDbP10handlerton
0822cc70 T _Z19ha_commit_one_phaseP3THDb
0822cda0 T _Z16ha_drop_databasePc
0822cdc0 T _Z8ha_panic17ha_panic_function
0822ce40 T _Z7ha_initv
0822d0b0 T _Z27ha_create_table_from_engineP3THDPKcS2_
0822d260 T _ZN7handler21update_auto_incrementEv
0822d600 T _Z17ha_rollback_transP3THDb
0822d7f0 T _Z15ha_commit_transP3THDb
0822dae0 T _Z21ha_enable_transactionP3THDb
0822db30 T _Z25ha_autocommit_or_rollbackP3THDi
0822dbc0 T _Z10ha_prepareP3THD
0822dc90 T _ZN15st_ha_check_opt4initEv
0822dcd0 T _Z15ha_create_tablePKcP24st_ha_create_informationb
0822de00 T _ZN7handler14read_first_rowEPcj
0822dee0 T _Z15get_new_handlerP8st_tableP11st_mem_root7db_type
0822e000 T _ZN7handler5cloneEP11st_mem_root
0822e070 T _Z15ha_delete_tableP3THD7db_typePKcS3_b
0822e2e0 T _ZN7handler11print_errorEii
0822e7e0 T _Z13ha_known_extsv
0822ea00 T _Z16mysql_xa_recoverP3THD
0822eda0 T _Z10ha_recoverP7st_hash
0822f060 W _ZN7handler10index_initEj
0822f080 W _ZN7handler9index_endEv
0822f0a0 W _ZN7handler7rnd_endEv
0822f0b0 W _ZN7handler13external_lockEP3THDi
0822f0c0 W _ZN7handlerD1Ev
0822f0d0 W _ZN7handler9scan_timeEv
0822f100 W _ZN7handler9read_timeEjjm
0822f120 W _ZN7handler24keys_to_use_for_scanningEv
0822f130 W _ZN7handler16has_transactionsEv
0822f140 W _ZN7handler20extra_rec_buf_lengthEv
0822f150 W _ZN7handler25estimate_rows_upper_boundEv
0822f160 W _ZNK7handler12get_row_typeEv
0822f170 W _ZN7handler10index_typeEj
0822f180 W _ZN7handler9write_rowEPc
0822f190 W _ZN7handler10update_rowEPKcPc
0822f1a0 W _ZN7handler10delete_rowEPKc
0822f1b0 W _ZN7handler10index_readEPcPKcj16ha_rkey_function
0822f1c0 W _ZN7handler10index_nextEPc
0822f1d0 W _ZN7handler10index_prevEPc
0822f1e0 W _ZN7handler11index_firstEPc
0822f1f0 W _ZN7handler10index_lastEPc
0822f200 W _ZN7handler7ft_initEv
0822f210 W _ZN7handler11ft_init_extEjjP6String
0822f220 W _ZN7handler7ft_readEPc
0822f230 W _ZN7handler16restart_rnd_nextEPcS0_
0822f240 W _ZN7handler8rnd_sameEPcj
0822f250 W _ZN7handler16records_in_rangeEjP12st_key_rangeS1_
0822f260 W _ZN7handler5extraE17ha_extra_function
0822f270 W _ZN7handler9extra_optE17ha_extra_functionm
0822f290 W _ZN7handler5resetEv
0822f2b0 W _ZN7handler10unlock_rowEv
0822f2c0 W _ZN7handler10start_stmtEP3THD13thr_lock_type
0822f2d0 W _ZN7handler20reset_auto_incrementEy
0822f2e0 W _ZN7handler18update_create_infoEP24st_ha_create_information
0822f2f0 W _ZN7handler5checkEP3THDP15st_ha_check_opt
0822f300 W _ZN7handler17check_for_upgradeEP15st_ha_check_opt
0822f310 W _ZN7handler6backupEP3THDP15st_ha_check_opt
0822f320 W _ZN7handler7restoreEP3THDP15st_ha_check_opt
0822f330 W _ZN7handler6repairEP3THDP15st_ha_check_opt
0822f340 W _ZN7handler8optimizeEP3THDP15st_ha_check_opt
0822f350 W _ZN7handler7analyzeEP3THDP15st_ha_check_opt
0822f360 W _ZN7handler18assign_to_keycacheEP3THDP15st_ha_check_opt
0822f370 W _ZN7handler12preload_keysEP3THDP15st_ha_check_opt
0822f380 W _ZN7handler16check_and_repairEP3THD
0822f390 W _ZN7handler4dumpEP3THDi
0822f3a0 W _ZN7handler15disable_indexesEj
0822f3b0 W _ZN7handler14enable_indexesEj
0822f3c0 W _ZN7handler20indexes_are_disabledEv
0822f3d0 W _ZN7handler17start_bulk_insertEm
0822f3e0 W _ZN7handler15end_bulk_insertEv
0822f3f0 W _ZN7handler28discard_or_import_tablespaceEc
0822f400 W _ZN7handler13net_read_dumpEP6st_net
0822f410 W _ZN7handler20update_table_commentEPKc
0822f420 W _ZN7handler18append_create_infoEP6String
0822f430 W _ZN7handler27get_foreign_key_create_infoEv
0822f440 W _ZN7handler18can_switch_enginesEv
0822f450 W _ZN7handler20get_foreign_key_listEP3THDP4ListI19st_foreign_key_infoE
0822f460 W _ZN7handler25referenced_by_foreign_keyEv
0822f470 W _ZN7handler29init_table_handle_for_HANDLEREv
0822f480 W _ZN7handler28free_foreign_key_create_infoEPc
0822f490 W _ZNK7handler15index_ddl_flagsEP6st_key
0822f4a0 W _ZN7handler9add_indexEP8st_tableP6st_keyj
0822f4b0 W _ZN7handler10drop_indexEP8st_tablePjj
0822f4c0 W _ZNK7handler27max_supported_record_lengthEv
0822f4d0 W _ZNK7handler18max_supported_keysEv
0822f4e0 W _ZNK7handler23max_supported_key_partsEv
0822f4f0 W _ZNK7handler24max_supported_key_lengthEv
0822f500 W _ZNK7handler29max_supported_key_part_lengthEv
0822f510 W _ZNK7handler17min_record_lengthEj
0822f520 W _ZNK7handler14low_byte_firstEv
0822f530 W _ZNK7handler8checksumEv
0822f540 W _ZNK7handler10is_crashedEv
0822f550 W _ZNK7handler11auto_repairEv
0822f560 W _ZNK7handler10lock_countEv
0822f570 W _ZN7handler16table_cache_typeEv
0822f580 W _ZN7handler26register_query_cache_tableEP3THDPcjPPFcS1_S2_jPyES3_
0822f5a0 W _ZN7handler24primary_key_is_clusteredEv
0822f5b0 W _ZN7handler9cond_pushEPK4Item
0822f5c0 W _ZN7handler8cond_popEv
0822f5d0 W _ZN7handler7cmp_refEPKcS1_
0822f610 W _ZN7handler15delete_all_rowsEv
0822f630 W _ZN7handler15index_read_lastEPcPKcj
0822f650 W _ZN7handlerD0Ev
0822f660 T _ZNK7ha_heap7bas_extEv
0822f670 T _ZN7ha_heap21set_keys_for_scanningEv
0822f700 T _ZN7ha_heap16update_key_statsEv
0822f7f0 T _ZN7ha_heap13external_lockEP3THDi
0822f800 T _ZN7ha_heap10store_lockEP3THDPP16st_thr_lock_data13thr_lock_type
0822f840 T _ZN7ha_heap18update_create_infoEP24st_ha_create_information
0822f890 T _ZN7ha_heap6createEPKcP8st_tableP24st_ha_create_information
0822fd30 T _ZN7ha_heap16records_in_rangeEjP12st_key_rangeS1_
0822fde0 T _ZN7ha_heap12rename_tableEPKcS1_
0822fe00 T _ZN7ha_heap12delete_tableEPKc
0822fe60 T _ZN7ha_heap20indexes_are_disabledEv
0822fe80 T _ZN7ha_heap14enable_indexesEj
0822fed0 T _ZN7ha_heap15disable_indexesEj
0822ff20 T _ZN7ha_heap15delete_all_rowsEv
0822ff60 T _ZN7ha_heap5extraE17ha_extra_function
0822ff80 T _ZN7ha_heap4infoEj
08230040 T _ZN7ha_heap18get_auto_incrementEv
08230070 T _ZN7ha_heap8positionEPKc
082300a0 T _ZN7ha_heap7rnd_posEPcS0_
082300f0 T _ZN7ha_heap8rnd_nextEPc
08230140 T _ZN7ha_heap8rnd_initEb
08230160 T _ZN7ha_heap10index_lastEPc
082301b0 T _ZN7ha_heap11index_firstEPc
08230200 T _ZN7ha_heap10index_prevEPc
08230250 T _ZN7ha_heap10index_nextEPc
082302a0 T _ZN7ha_heap14index_read_idxEPcjPKcj16ha_rkey_function
08230300 T _ZN7ha_heap15index_read_lastEPcPKcj
08230370 T _ZN7ha_heap10index_readEPcPKcj16ha_rkey_function
082303e0 T _ZN7ha_heap10delete_rowEPKc
08230460 T _ZN7ha_heap10update_rowEPKcPc
082304e0 T _ZN7ha_heap9write_rowEPc
08230590 T _ZN7ha_heap5cloneEP11st_mem_root
08230610 T _ZN7ha_heap5closeEv
08230630 T _ZN7ha_heap4openEPKcij
08230720 T _ZN7ha_heapC1EP8st_table
08230830 T _ZN7ha_heapC2EP8st_table
08230940 W _ZNK7ha_heap10table_typeEv
08230970 W _ZN7ha_heap10index_typeEj
082309a0 W _ZNK7ha_heap12get_row_typeEv
082309b0 W _ZNK7ha_heap11table_flagsEv
082309c0 W _ZNK7ha_heap11index_flagsEjjb
082309f0 W _ZN7ha_heap24keys_to_use_for_scanningEv
08230a00 W _ZNK7ha_heap18max_supported_keysEv
08230a10 W _ZNK7ha_heap29max_supported_key_part_lengthEv
08230a20 W _ZN7ha_heap9scan_timeEv
08230a50 W _ZN7ha_heap9read_timeEjjm
08230a70 W _ZN7ha_heap7cmp_refEPKcS1_
08230ab0 W _ZN7ha_heapD1Ev
08230ac0 W _ZN7ha_heapD0Ev
08230ad0 T _Z16check_definitionP12st_mi_keydefP12st_columndefjjS0_S2_jjb
08230c90 T killed_ptr
08230cb0 T _ZN9ha_myisamC2EP8st_table
08230dc0 T _ZNK9ha_myisam7bas_extEv
08230dd0 T _ZN9ha_myisam10index_typeEj
08230e20 T _ZNK9ha_myisam10is_crashedEv
08230e60 T _ZN9ha_myisam16restart_rnd_nextEPcS0_
08230e80 T _ZN9ha_myisam10store_lockEP3THDPP16st_thr_lock_data13thr_lock_type
08230ec0 T _ZNK9ha_myisam8checksumEv
08230ee0 T _ZN9ha_myisam26register_query_cache_tableEP3THDPcjPPFcS1_S2_jPyES3_
08230f40 T _ZN9ha_myisam7ft_readEPc
08230fb0 T _ZN9ha_myisam16records_in_rangeEjP12st_key_rangeS1_
08230fd0 T _ZN9ha_myisam15index_read_lastEPcPKcj
08231040 T _ZN9ha_myisam14index_read_idxEPcjPKcj16ha_rkey_function
082310a0 T _ZN9ha_myisam10index_readEPcPKcj16ha_rkey_function
08231110 T _ZN9ha_myisam12rename_tableEPKcS1_
08231130 T _ZN9ha_myisam13external_lockEP3THDi
08231170 T _ZN9ha_myisam12delete_tableEPKc
08231180 T _ZN9ha_myisam15delete_all_rowsEv
082311a0 T _ZN9ha_myisam9extra_optE17ha_extra_functionm
082311e0 T _ZN9ha_myisam5extraE17ha_extra_function
08231220 T _ZN9ha_myisam4infoEj
082314f0 T _ZN9ha_myisam18get_auto_incrementEv
08231660 T _ZN9ha_myisam18update_create_infoEP24st_ha_create_information
082316d0 T _ZN9ha_myisam8positionEPKc
08231710 T _ZN9ha_myisam7rnd_posEPcS0_
08231780 T _ZN9ha_myisam8rnd_nextEPc
082317d0 T _ZN9ha_myisam8rnd_initEb
08231810 T _ZN9ha_myisam15index_next_sameEPcPKcj
08231860 T _ZN9ha_myisam10index_lastEPc
082318b0 T _ZN9ha_myisam11index_firstEPc
08231900 T _ZN9ha_myisam10index_prevEPc
08231950 T _ZN9ha_myisam10index_nextEPc
082319a0 T _ZN9ha_myisam10delete_rowEPKc
082319d0 T _ZN9ha_myisam10update_rowEPKcPc
08231a30 T _ZN9ha_myisam15end_bulk_insertEv
08231aa0 T _ZN9ha_myisam20indexes_are_disabledEv
08231ac0 T _ZN9ha_myisam15disable_indexesEj
08231b30 T _ZN9ha_myisam7analyzeEP3THDP15st_ha_check_opt
08231c50 T _ZN9ha_myisam5checkEP3THDP15st_ha_check_opt
082320e0 T _ZN9ha_myisam9write_rowEPc
08232160 T _ZN9ha_myisam5closeEv
08232180 T _ZN9ha_myisam4openEPKcij
08232260 T _ZN9ha_myisam4dumpEP3THDi
082323f0 T _ZN9ha_myisam13net_read_dumpEP6st_net
08232490 T _ZN9ha_myisam5cloneEP11st_mem_root
08232670 T mi_check_print_warning
082326a0 T mi_check_print_info
082326d0 T mi_check_print_error
08232700 T _ZN9ha_myisam18assign_to_keycacheEP3THDP15st_ha_check_opt
08232800 T _ZN9ha_myisam6repairEP3THDR17st_mi_check_paramb
082331b0 T _ZN9ha_myisam14enable_indexesEj
08233460 T _ZN9ha_myisam8optimizeEP3THDP15st_ha_check_opt
08233540 T _ZN9ha_myisam6repairEP3THDP15st_ha_check_opt
08233730 T _ZN9ha_myisam6backupEP3THDP15st_ha_check_opt
08233900 T _ZN9ha_myisam7restoreEP3THDP15st_ha_check_opt
08233a50 T _Z12table2myisamP8st_tablePP12st_mi_keydefPP12st_columndefPj
082340a0 T _ZN9ha_myisam6createEPKcP8st_tableP24st_ha_create_information
08234280 T _ZN9ha_myisam16check_and_repairEP3THD
08234410 T _ZN9ha_myisam12preload_keysEP3THDP15st_ha_check_opt
08234580 T _ZN9ha_myisam17start_bulk_insertEm
082346e0 T _ZN9ha_myisamC1EP8st_table
082347f0 W _ZNK9ha_myisam10table_typeEv
08234800 W _ZNK9ha_myisam11table_flagsEv
08234810 W _ZNK9ha_myisam11index_flagsEjjb
08234840 W _ZNK9ha_myisam18max_supported_keysEv
08234850 W _ZNK9ha_myisam24max_supported_key_lengthEv
08234860 W _ZNK9ha_myisam29max_supported_key_part_lengthEv
08234870 W _ZN9ha_myisam7ft_initEv
082348a0 W _ZNK9ha_myisam11auto_repairEv
082348c0 W _ZN9ha_myisam11ft_init_extEjjP6String
08234910 W _ZN9ha_myisamD1Ev
08234920 W _ZN9ha_myisamD0Ev
08234930 T _ZN12ha_myisammrgC2EP8st_table
08234a30 T _ZNK12ha_myisammrg7bas_extEv
08234a40 T _ZN12ha_myisammrg10index_typeEj
08234a90 T _ZNK12ha_myisammrg10lock_countEv
08234ab0 T _ZN12ha_myisammrg10store_lockEP3THDPP16st_thr_lock_data13thr_lock_type
08234b00 T _ZN12ha_myisammrg5checkEP3THDP15st_ha_check_opt
08234bc0 T _ZN12ha_myisammrg13external_lockEP3THDi
08234be0 T _ZN12ha_myisammrg9extra_optE17ha_extra_functionm
08234c20 T _ZN12ha_myisammrg5extraE17ha_extra_function
08234c60 T _ZN12ha_myisammrg8rnd_initEb
08234c90 T _ZN12ha_myisammrg4infoEj
08234e80 T _ZN12ha_myisammrg16records_in_rangeEjP12st_key_rangeS1_
08234ea0 T _ZN12ha_myisammrg8positionEPKc
08234ee0 T _ZN12ha_myisammrg7rnd_posEPcS0_
08234f50 T _ZN12ha_myisammrg8rnd_nextEPc
08234fb0 T _ZN12ha_myisammrg15index_next_sameEPcPKcj
08235000 T _ZN12ha_myisammrg10index_lastEPc
08235050 T _ZN12ha_myisammrg11index_firstEPc
082350a0 T _ZN12ha_myisammrg10index_prevEPc
082350f0 T _ZN12ha_myisammrg10index_nextEPc
08235140 T _ZN12ha_myisammrg15index_read_lastEPcPKcj
082351b0 T _ZN12ha_myisammrg14index_read_idxEPcjPKcj16ha_rkey_function
08235210 T _ZN12ha_myisammrg10index_readEPcPKcj16ha_rkey_function
08235280 T _ZN12ha_myisammrg10delete_rowEPKc
082352b0 T _ZN12ha_myisammrg10update_rowEPKcPc
08235310 T _ZN12ha_myisammrg9write_rowEPc
082353b0 T _ZN12ha_myisammrg5closeEv
082353d0 T myrg_print_wrong_table
08235490 T _ZN12ha_myisammrg4openEPKcij
08235720 T _ZN12ha_myisammrg6createEPKcP8st_tableP24st_ha_create_information
08235940 T _ZN12ha_myisammrg18update_create_infoEP24st_ha_create_information
08235a80 T _ZN12ha_myisammrgC1EP8st_table
08235b80 T _ZN12ha_myisammrg18append_create_infoEP6String
08235df0 W _ZNK12ha_myisammrg10table_typeEv
08235e00 W _ZNK12ha_myisammrg11table_flagsEv
08235e10 W _ZNK12ha_myisammrg11index_flagsEjjb
08235e40 W _ZNK12ha_myisammrg18max_supported_keysEv
08235e50 W _ZNK12ha_myisammrg24max_supported_key_lengthEv
08235e60 W _ZNK12ha_myisammrg29max_supported_key_part_lengthEv
08235e70 W _ZN12ha_myisammrg9scan_timeEv
08235eb0 W _ZN12ha_myisammrgD1Ev
08235ec0 W _ZN12ha_myisammrgD0Ev
08235ed0 T innobase_strcasecmp
08235f00 T innobase_casedn_str
08235f20 T _ZN11ha_innobaseC2EP8st_table
08236030 T trx_is_interrupted
08236060 T _ZNK11ha_innobase12get_row_typeEv
08236090 T _ZNK11ha_innobase7bas_extEv
082360a0 T _ZNK11ha_innobase29max_supported_key_part_lengthEv
082360b0 T _ZN11ha_innobase9index_endEv
082360d0 T _ZN11ha_innobase15index_read_lastEPcPKcj
08236110 T _ZN11ha_innobase7rnd_endEv
08236120 T _ZN11ha_innobase9scan_timeEv
08236150 T _ZN11ha_innobase9read_timeEjjm
082361e0 T _ZN11ha_innobase7analyzeEP3THDP15st_ha_check_opt
08236210 T _ZN11ha_innobase8optimizeEP3THDP15st_ha_check_opt
08236240 T _ZN11ha_innobase22get_mysql_bin_log_nameEv
08236250 T _ZN11ha_innobase21get_mysql_bin_log_posEv
08236360 T _ZN11ha_innobase10store_lockEP3THDPP16st_thr_lock_data13thr_lock_type
08236500 T innobase_get_cset_width
082366d0 T innobase_mysql_prepare_print_arbitrary_thd
082366f0 T innobase_mysql_end_print_arbitrary_thd
08236770 T _Z19innobase_xa_recoverP5xid_tj
08236790 T innobase_get_at_most_n_mbchars
08236820 T _ZN11ha_innobase20reset_auto_incrementEy
08236890 T _ZN11ha_innobase28free_foreign_key_create_infoEPc
082368b0 T _Z20innodb_export_statusv
082368c0 T _ZN11ha_innobase5extraE17ha_extra_function
08236970 T _ZN11ha_innobase25referenced_by_foreign_keyEv
082369a0 T _ZN11ha_innobase18can_switch_enginesEv
08236e30 T innobase_mysql_cmp
08236f80 T _Z19innobase_flush_logsv
08237050 T _ZN11ha_innobase10unlock_rowEv
08237140 T _ZN11ha_innobase21store_key_val_for_rowEjPcjPKc
082376f0 T _ZN11ha_innobase8positionEPKc
082377e0 T _Z24innobase_commit_completeP3THD
08237830 T _Z12innobase_endv
082378c0 T _Z13innobase_initv
08237e70 T mysql_get_identifier_quote_char
08237ea0 T innobase_invalidate_query_cache
08237ee0 T innobase_mysql_tmpfile
08237fb0 T innobase_mysql_print_thd
082381d0 T _ZN11ha_innobase7cmp_refEPKcS1_
082382e0 T _ZN11ha_innobaseC1EP8st_table
082383f0 T _ZN11ha_innobase13general_fetchEPcjj
082384d0 T _ZN11ha_innobase10index_prevEPc
08238510 T _ZN11ha_innobase16records_in_rangeEjP12st_key_rangeS1_
082387d0 T _Z24innodb_mutex_show_statusP3THD
08238aa0 T innobase_current_thd
08238ac0 T innobase_query_is_update
08238b20 T _Z26innobase_close_cursor_viewPv
08238b50 T _Z27innobase_create_cursor_viewv
08238b80 T _ZN11ha_innobase17get_error_messageEiP6String
08238bd0 T _ZN11ha_innobase5checkEP3THDP15st_ha_check_opt
08238d20 T _Z24innobase_set_cursor_viewPv
08238d50 T _ZN11ha_innobase4openEPKcij
08239100 T _Z19innobase_commit_lowP10trx_struct
08239180 T _Z22innobase_commit_by_xidP5xid_t
082391b0 T _ZN11ha_innobase31innobase_read_and_init_auto_incEPx
082394c0 T _ZN11ha_innobase18get_auto_incrementEv
08239520 T _ZN11ha_innobase4infoEj
08239a90 T _ZN11ha_innobase18update_create_infoEP24st_ha_create_information
08239ad0 T _ZN11ha_innobase12rename_tableEPKcS1_
08239c40 T _Z22innobase_drop_databasePc
08239f50 T _Z40innobase_report_binlog_offset_and_commitP3THDPvPcy
0823a020 T _ZN11ha_innobase15index_next_sameEPcPKcj
0823a070 T _ZN11ha_innobase10index_nextEPc
0823a0b0 T _ZN11ha_innobase19change_active_indexEj
0823a210 T _ZN11ha_innobase8rnd_initEb
0823a270 T _ZN11ha_innobase14index_read_idxEPcjPKcj16ha_rkey_function
0823a2f0 T _ZN11ha_innobase10index_initEj
0823a300 T _ZN11ha_innobase12delete_tableEPKc
0823a450 T _ZN11ha_innobase15delete_all_rowsEv
0823a4c0 T _ZN11ha_innobase28discard_or_import_tablespaceEc
0823a620 T _ZN11ha_innobase7rnd_posEPcS0_
0823a6d0 T _ZN11ha_innobase8rnd_nextEPc
0823a750 T _ZN11ha_innobase10index_lastEPc
0823a7b0 T _ZN11ha_innobase11index_firstEPc
0823a810 T _ZN11ha_innobase24transactional_table_lockEP3THDi
0823aa20 T _ZN11ha_innobase25estimate_rows_upper_boundEv
0823aae0 T _ZN11ha_innobase20get_foreign_key_listEP3THDP4ListI19st_foreign_key_infoE
0823af30 T _ZN11ha_innobase29init_table_handle_for_HANDLEREv
0823b080 T _ZN11ha_innobase20update_table_commentEPKc
0823b280 T _ZN11ha_innobase27get_foreign_key_create_infoEv
0823b410 T _Z41innobase_query_caching_of_table_permittedP3THDPcjPy
0823b670 T _Z34innobase_release_temporary_latchesP3THD
0823b6e0 T _ZN11ha_innobase5closeEv
0823b740 T _Z19innobase_xa_prepareP3THDb
0823b8a0 T _Z18innodb_show_statusP3THD
0823bca0 T _ZN11ha_innobase13external_lockEP3THDi
0823c060 T _ZN11ha_innobase10start_stmtEP3THD13thr_lock_type
0823c1d0 T _ZN11ha_innobase10index_readEPcPKcj16ha_rkey_function
0823c490 T _ZN11ha_innobase10delete_rowEPKc
0823c5d0 T _ZN11ha_innobase10update_rowEPKcPc
0823cb50 T _ZN11ha_innobase9write_rowEPc
0823d150 T _Z21innobase_rollback_trxP10trx_struct
0823d1c0 T _Z24innobase_rollback_by_xidP5xid_t
0823d390 T _Z39innobase_start_trx_and_assign_read_viewP3THD
0823d910 T _ZN11ha_innobase6createEPKcP8st_tableP24st_ha_create_information
0823e220 W _ZN11ha_innobaseD0Ev
0823e230 W _ZNK11ha_innobase10table_typeEv
0823e240 W _ZN11ha_innobase10index_typeEj
0823e250 W _ZNK11ha_innobase11table_flagsEv
0823e260 W _ZNK11ha_innobase11index_flagsEjjb
0823e270 W _ZNK11ha_innobase18max_supported_keysEv
0823e280 W _ZNK11ha_innobase24max_supported_key_lengthEv
0823e290 W _ZN11ha_innobase24keys_to_use_for_scanningEv
0823e2a0 W _ZN11ha_innobase16has_transactionsEv
0823e2b0 W _ZN11ha_innobase16table_cache_typeEv
0823e2c0 W _ZN11ha_innobase24primary_key_is_clusteredEv
0823e2d0 W _Z31convert_search_mode_to_innobase16ha_rkey_function
0823e340 W _Z33get_innobase_type_from_mysql_typePmP5Field
0823e520 W _ZN11ha_innobaseD1Ev
0823e530 W _ZN11ha_innobase26register_query_cache_tableEP3THDPcjPPFcS1_S2_jPyES3_
0823e5a0 T _Z22check_db_dir_existencePKc
0823f080 T _Z11load_db_optP3THDPKcP24st_ha_create_information
0823f390 T _Z19load_db_opt_by_nameP3THDPKcP24st_ha_create_information
0823f410 T _Z9del_dboptPKc
0823f470 T _Z16my_dbopt_cleanupv
0823f4f0 T _Z13my_dbopt_freev
0823f530 T _Z13my_dbopt_initv
0823f6e0 T _Z15mysql_change_dbP3THDPK13st_lex_stringb
0823fa20 T _Z14mysql_alter_dbP3THDPKcP24st_ha_create_information
0823fc40 T _Z15mysql_create_dbP3THDPcP24st_ha_create_informationb
08240050 T _Z11mysql_rm_dbP3THDPcbb
082406c0 T _Z26calculate_interval_lengthsP15charset_info_stP10st_typelibPjS3_
08240850 T _Z16build_table_pathPcjPKcS1_S1_
08240a70 T _Z24reassign_keycache_tablesP3THDP12st_key_cacheS2_
08240cb0 T _Z18close_cached_tableP3THDP8st_table
082411c0 T _Z23sp_prepare_create_fieldP3THDP12create_field
08241340 T _Z18mysql_rename_table7db_typePKcS1_S1_S1_
082416d0 T _Z14quick_rm_table7db_typePKcS1_
08241780 T _Z28check_duplicates_in_intervalPKcS0_P10st_typelibP15charset_info_stPj
082418c0 T _Z20prepare_create_fieldP12create_fieldPjPiS2_j
082438f0 T _Z20mysql_checksum_tableP3THDP10TABLE_LISTP15st_ha_check_opt
082441e0 T _Z23mysql_create_like_tableP3THDP10TABLE_LISTS2_P24st_ha_create_information
08244760 T _Z18mysql_create_tableP3THDPKcS2_P24st_ha_create_informationP10Alter_infobj
08244d20 T _Z20mysql_rm_table_part2P3THDP10TABLE_LISTbbbb
082453e0 T _Z30mysql_rm_table_part2_with_lockP3THDP10TABLE_LISTbbb
082454a0 T _Z14mysql_rm_tableP3THDP10TABLE_LISTcc
08245600 T _Z17mysql_alter_tableP3THDPcS1_P24st_ha_create_informationP10TABLE_LISTP10Alter_infojP8st_orderb
082483a0 T _Z20mysql_recreate_tableP3THDP10TABLE_LIST
08249830 T _Z17mysql_check_tableP3THDP10TABLE_LISTP15st_ha_check_opt
08249890 T _Z19mysql_analyze_tableP3THDP10TABLE_LISTP15st_ha_check_opt
082498f0 T _Z18mysql_preload_keysP3THDP10TABLE_LIST
08249950 T _Z24mysql_assign_to_keycacheP3THDP10TABLE_LISTP13st_lex_string
08249a20 T _Z20mysql_optimize_tableP3THDP10TABLE_LISTP15st_ha_check_opt
08249a80 T _Z18mysql_repair_tableP3THDP10TABLE_LISTP15st_ha_check_opt
08249af0 T _Z19mysql_restore_tableP3THDP10TABLE_LIST
08249b50 T _Z18mysql_backup_tableP3THDP10TABLE_LIST
08249be0 T _Z9do_renameP3THDP10TABLE_LISTPcS3_S3_b
08249e90 T _Z19mysql_rename_tablesP3THDP10TABLE_LIST
0824a080 T _ZN9SQL_CRYPT6decodeEPcj
0824a100 T _ZN9SQL_CRYPT6encodeEPcj
0824a180 T _ZN9SQL_CRYPT10crypt_initEPm
0824a260 T _ZN9SQL_CRYPTC1EPKc
0824a2a0 T _ZN9SQL_CRYPTC2EPKc
0824a2e0 T _ZN9READ_INFO8unescapeEc
0824a350 T _ZN9READ_INFO20find_start_of_fieldsEv
0824a470 T _ZN9READ_INFOD1Ev
0824a4b0 T _ZN9READ_INFOD2Ev
0824a4f0 T _ZN9READ_INFOC1EijP15charset_info_stR6StringS3_S3_S3_ibb
0824a740 T _ZN9READ_INFOC2EijP15charset_info_stR6StringS3_S3_S3_ibb
0824aa70 T _ZN9READ_INFO9next_lineEv
0824acf0 T _ZN9READ_INFO17read_fixed_lengthEv
0824af60 T _ZN9READ_INFO10read_fieldEv
0824b740 T _Z10mysql_loadP3THDP12sql_exchangeP10TABLE_LISTR4ListI4ItemES8_S8_15enum_duplicatesbb
0824ce80 T _my_b_net_read
0824d280 T _ZN10Copy_field13get_copy_funcEP5FieldS1_
0824db30 T _ZN10Copy_field3setEP5FieldS1_b
0824dcd0 T _ZN10Copy_field3setEPcP5Field
0824e120 T _Z34set_field_to_null_with_conversionsP5Fieldb
0824e210 T _Z17set_field_to_nullP5Field
0824e3a0 T _Z10field_convP5FieldS0_
0824e970 T _Z22get_index_field_valuesP6st_lexP21st_index_field_values
0824e9d0 T _Z20get_schema_table_idxP15st_schema_table
0824e9f0 T _Z17find_schema_tableP3THDPKc
0824ea50 T _Z16get_schema_table18enum_schema_tables
0824eb30 T _Z22store_key_column_usageP8st_tablePKcS2_S2_jS2_jx
0824ec80 T _Z27uses_only_table_name_fieldsP4ItemP10TABLE_LIST
0824ee20 T _Z15make_table_listP3THDP13st_select_lexPcS3_
0824eee0 T _Z24get_schema_tables_resultP4JOIN23enum_schema_table_state
0824f0d0 T _Z25schema_table_store_recordP3THDP8st_table
0824f120 T _Z17store_constraintsP3THDP8st_tablePKcS4_S4_jS4_j
0824f240 T _Z28fill_schema_coll_charset_appP3THDP10TABLE_LISTP4Item
0824f3a0 T _Z20store_schema_shemataP3THDP8st_tablePKcP15charset_info_st
08250140 T _Z15make_lex_stringP3THDP13st_lex_stringPKcjb
082501b0 T _Z18make_schema_selectP3THDP13st_select_lex18enum_schema_tables
082502d0 T _Z22calc_sum_of_all_statusP17system_status_var
08250350 T _Z29get_quote_char_for_identifierP3THDPKcj
08250410 T _Z17append_identifierP3THDP6StringPKcj
08250570 T _Z11fill_statusP3THDP10TABLE_LISTP4Item
08250640 T _Z14fill_variablesP3THDP10TABLE_LISTP4Item
082506c0 T _Z16fill_open_tablesP3THDP10TABLE_LISTP4Item
08250840 T _Z21fill_schema_collationP3THDP10TABLE_LISTP4Item
08250ac0 T _Z20fill_schema_charsetsP3THDP10TABLE_LISTP4Item
08252880 T _Z18mysql_schema_tableP3THDP6st_lexP10TABLE_LIST
08252a10 T _Z15make_old_formatP3THDP15st_schema_table
08252af0 T _Z20make_proc_old_formatP3THDP15st_schema_table
08252be0 T _Z30make_character_sets_old_formatP3THDP15st_schema_table
08252cd0 T _Z23make_columns_old_formatP3THDP15st_schema_table
08252de0 T _Z17schema_tables_addP3THDP4ListIcEPKc
08253290 T _Z12make_db_listP3THDP4ListIcEP21st_index_field_valuesPbb
08253490 T _Z19fill_schema_shemataP3THDP10TABLE_LISTP4Item
08253870 T _Z14get_all_tablesP3THDP10TABLE_LISTP4Item
08254290 T _Z18mysqld_list_fieldsP3THDP10TABLE_LISTPKc
08254480 T _Z17store_schema_procP3THDP8st_tableS2_PKcbS4_
08254c40 T _Z16fill_schema_procP3THDP10TABLE_LISTP4Item
08256130 T _Z27make_table_names_old_formatP3THDP15st_schema_table
08256380 T _Z24make_schemata_old_formatP3THDP15st_schema_table
08256570 T _Z14append_definerP3THDP6StringPK13st_lex_stringS5_
08256650 T _Z18view_store_optionsP3THDP10TABLE_LISTP6String
082578a0 T _Z23mysqld_dump_create_infoP3THDP10TABLE_LISTi
08257940 T _Z19create_schema_tableP3THDP10TABLE_LIST
08257d00 T _Z27mysqld_show_storage_enginesP3THD
08258110 T _Z21mysqld_list_processesP3THDPKcb
08258d10 T _Z16mysqld_show_logsP3THD
08259010 T _Z21mysqld_show_create_dbP3THDPcPK24st_ha_create_information
082595e0 T _Z18mysqld_show_createP3THDP10TABLE_LIST
08259e50 T _Z24mysqld_show_column_typesP3THD
0825aba0 T _Z22mysqld_show_privilegesP3THD
0825af30 W _ZNK13Item_datetime10field_typeEv
0825af40 W _ZN6I_ListI11thread_infoEC2Ev
0825af70 W _ZN6I_ListI11thread_infoEC1Ev
0825afa0 W _ZN6I_ListI11thread_infoE5emptyEv
0825afb0 W _ZN6I_ListI11thread_infoE8is_emptyEv
0825afd0 W _ZN6I_ListI11thread_infoE6appendEPS0_
0825aff0 W _ZN6I_ListI11thread_infoE9push_backEPS0_
0825b020 W _ZN6I_ListI11thread_infoE3getEv
0825b060 W _ZN6I_ListI11thread_infoE4headEv
0825b080 W _ZN4ListIcEC2Ev
0825b0a0 W _ZN4ListIcEC1Ev
0825b0c0 W _ZN18List_iterator_fastIcEC2ER4ListIcE
0825b0e0 W _ZN18List_iterator_fastIcEC1ER4ListIcE
0825b100 W _ZN18List_iterator_fastIcE6rewindEv
0825b110 W _ZN18List_iterator_fastIcEppEi
0825b130 W _ZN18List_iterator_fastIcE7replaceEPc
0825b140 W _ZN18List_iterator_fastIcE7replaceER4ListIcE
0825b150 W _ZN18List_iterator_fastIcE6removeEv
0825b160 W _ZN18List_iterator_fastIcE5afterEPc
0825b170 W _ZN18List_iterator_fastIcE3refEv
0825b180 W _ZN18List_iterator_fastIcEC2Ev
0825b1b0 W _ZN18List_iterator_fastIcE4initER4ListIcE
0825b1d0 W _ZN18List_iterator_fastIcE7sublistER4ListIcEj
0825b1f0 W _ZN4ListIcEC2ERKS0_
0825b220 W _ZN4ListIcE4headEv
0825b230 W _ZN4ListIcE8head_refEv
0825b250 W _ZN4ListIcE3popEv
0825b280 W _ZN4ListIcE6concatEPS0_
0825b2b0 W _ZN4ListIcE7disjoinEPS0_
0825b300 W _ZN4ListIcE7prepandEPS0_
0825b330 W _ZN11thread_infoD1Ev
0825b370 W _ZN4ListIcE15delete_elementsEv
0825b3c0 W _ZN4ListIcE10push_frontEPc
0825b410 W _ZN4ListIcE9push_backEPcP11st_mem_root
0825b480 W _ZN4ListIcEC2ERKS0_P11st_mem_root
0825b520 W _ZN4ListIcEC1ERKS0_
0825b550 W _ZN18List_iterator_fastIcEC1Ev
0825b580 W _ZN4ListIcE9push_backEPc
0825b5f0 W _ZN11thread_infoD0Ev
0825b630 W _ZN4ListIcEC1ERKS0_P11st_mem_root
0825b6d0 W _ZN13Item_datetimeD0Ev
0825b720 W _ZN13Item_datetimeD1Ev
0825b770 T get_hash_key
0825b850 T _Z8free_udfP11st_udf_func
0825bac0 T _Z21mysql_create_functionP3THDP11st_udf_func
0825bee0 T _Z8find_udfPKcjb
0825bfa0 T _Z8udf_freev
0825c090 T _Z8udf_initv
0825c510 T _Z19mysql_drop_functionP3THDPK13st_lex_string
0825c720 T _ZN7analyse8send_rowER4ListI4ItemE
0825c760 T _Z14compare_doublePKdS0_
0825c790 T _Z15compare_double2PvPKdS1_
0825c7b0 T _Z16compare_longlongPKxS0_
0825c820 T _Z17compare_longlong2PvPKxS1_
0825c840 T _Z17compare_ulonglongPKyS0_
0825c8b0 T _Z18compare_ulonglong2PvPKyS1_
0825c8d0 T _Z15check_ulonglongPKcj
0825c980 T _Z15get_ev_num_infoP28st_extreme_value_number_infoP14st_number_infoPKc
0825ca80 T _ZN13field_decimal11get_max_argEP6String
0825cad0 T _ZN13field_decimal11get_min_argEP6String
0825cb20 T _ZN15field_ulonglong12get_opt_typeEP6Stringm
0825cca0 T _ZN14field_longlong12get_opt_typeEP6Stringm
0825cfd0 T _ZN10field_real12get_opt_typeEP6Stringm
0825d3c0 T _ZN9field_str12get_opt_typeEP6Stringm
0825da00 T _ZN15field_ulonglong3addEv
0825dc30 T _ZN14field_longlong3addEv
0825de60 T _ZN10field_real3addEv
0825e130 T _Z14test_if_numberP14st_number_infoPKcj
0825e3d0 T _Z16compare_decimal2PiPKcS1_
0825e410 T _Z8sortcmp2PvPK6StringS2_
0825e430 T _ZN13field_decimal12get_opt_typeEP6Stringm
0825e4f0 T _Z17proc_analyse_initP3THDP8st_orderP13select_resultR4ListI4ItemE
0825ec90 T _ZN7analyse14change_columnsER4ListI4ItemE
0825ef20 T _Z11free_stringP6String
0825ef60 T _ZN9field_str3addEv
0825f390 T _ZN7analyse14end_of_recordsEv
0825fbc0 T _ZN13field_decimal3addEv
08260100 T _ZN13field_decimal3avgEP6Stringm
08260300 T _ZN13field_decimal3stdEP6Stringm
082606b0 T _Z14append_escapedP6StringS0_
082607c0 T _Z17collect_ulonglongPyjP12st_tree_info
08260930 T _Z16collect_longlongPxjP12st_tree_info
08260aa0 T _Z15collect_decimalPcjP12st_tree_info
08260c50 T _Z12collect_realPdjP12st_tree_info
08260dd0 T _Z14collect_stringP6StringjP12st_tree_info
08260ee0 W _ZN9Procedure11update_refsEv
08260ef0 W _ZN9Procedure14end_of_recordsEv
08260f00 W _ZN10field_info8decimalsEv
08260f10 W _ZN9field_str11get_min_argEP6String
08260f20 W _ZN9field_str11get_max_argEP6String
08260f30 W _ZN9field_str12collect_enumEv
08260f40 W _ZN9field_str3stdEP6Stringm
08260f50 W _ZN13field_decimal12collect_enumEv
08260f60 W _ZN10field_real8decimalsEv
08260f80 W _ZN10field_real12collect_enumEv
08260f90 W _ZN14field_longlong12collect_enumEv
08260fa0 W _ZN15field_ulonglong12collect_enumEv
08260fb0 W _ZN7analyse3addEv
08260fc0 W _ZN7analyse9end_groupEv
08260fd0 W _ZN15field_ulonglong3avgEP6Stringm
08261070 W _ZN14field_longlong3avgEP6Stringm
08261100 W _ZN10field_real3avgEP6Stringm
08261190 W _ZN10field_real11get_max_argEP6String
082611d0 W _ZN10field_real11get_min_argEP6String
08261210 W _ZN9field_str3avgEP6Stringm
082612b0 W _ZN15field_ulonglong3stdEP6Stringm
082613e0 W _ZN14field_longlong3stdEP6Stringm
082614d0 W _ZN10field_real3stdEP6Stringm
082615d0 W _ZN14field_longlong11get_max_argEP6String
08261610 W _ZN14field_longlong11get_min_argEP6String
08261650 W _ZN15field_ulonglong11get_max_argEP6String
08261690 W _ZN15field_ulonglong11get_min_argEP6String
082616d0 W _ZN9ProcedureD0Ev
08261700 W _ZN9ProcedureD1Ev
08261730 W _ZN10field_infoD1Ev
08261750 W _ZN15field_ulonglongD1Ev
08261770 W _ZN7analyseD1Ev
082617d0 W _ZN10field_infoD0Ev
082617f0 W _ZN7analyseD0Ev
08261850 W _ZN10field_realD0Ev
08261870 W _ZN14field_longlongD1Ev
08261890 W _ZN15field_ulonglongD0Ev
082618b0 W _ZN10field_realD1Ev
082618d0 W _ZN13field_decimalD0Ev
082618f0 W _ZN13field_decimalD1Ev
08261910 W _ZN14field_longlongD0Ev
08261930 W _ZN9field_strD0Ev
082619e0 W _ZN9field_strD1Ev
08261a90 T _ZN17Query_cache_block4initEm
08261ac0 T _ZN17Query_cache_block7destroyEv
08261ad0 T query_cache_table_get_key
08261b00 T query_cache_query_get_key
08261b30 T _Z22query_cache_init_queryP6st_net
08261b40 T _ZN11Query_cacheC2Emmmjj
08261c00 T _ZN11Query_cacheC1Emmmjj
08261cc0 T _ZN11Query_cache16set_min_res_unitEm
08261cf0 T _ZN11Query_cache13make_disabledEv
08261d50 T _ZN11Query_cache8find_binEm
08261dc0 T _ZN11Query_cache35insert_into_free_memory_sorted_listEP17Query_cache_blockPS1_
08261e50 T _ZN11Query_cache28insert_into_free_memory_listEP17Query_cache_block
08261ec0 T _ZN11Query_cache33double_linked_list_simple_includeEP17Query_cache_blockPS1_
08261ef0 T _ZN11Query_cache26double_linked_list_excludeEP17Query_cache_blockPS1_
08261f30 T _ZN11Query_cache22move_to_query_list_endEP17Query_cache_block
08261f70 T _ZN11Query_cache29exclude_from_free_memory_listEP17Query_cache_block
08261fc0 T _ZN11Query_cache16join_free_blocksEP17Query_cache_blockS1_
08262020 T _ZN11Query_cache17free_memory_blockEP17Query_cache_block
082620b0 T _ZN11Query_cache11split_blockEP17Query_cache_blockm
08262140 T _ZN11Query_cache22append_next_free_blockEP17Query_cache_blockm
082621e0 T _ZN11Query_cache14get_free_blockEmcm
08262390 T _ZN11Query_cache23double_linked_list_joinEP17Query_cache_blockS1_
082623b0 T _ZN11Query_cache24process_and_count_tablesEP3THDP10TABLE_LISTPh
082624f0 T _ZN11Query_cache12is_cacheableEP3THDjPcP6st_lexP10TABLE_LISTPh
08262590 T _ZN11Query_cache21ask_handler_allowanceEP3THDP10TABLE_LIST
08262620 T _ZN11Query_cache6relinkEP17Query_cache_blockS1_S1_S1_S1_S1_
08262680 T _Z5wreckjPKc
08262690 T _Z9bins_dumpv
082626a0 T _Z10cache_dumpv
082626b0 T _Z12queries_dumpv
082626c0 T _Z11tables_dumpv
082626d0 T _Z15check_integrityb
082626e0 T _Z7in_listP17Query_cache_blockS0_PKc
082626f0 T _Z9in_blocksP17Query_cache_block
08262700 T _ZN11Query_cache20filename_2_table_keyEPcPKcPj
082627b0 T _ZN11Query_cache12join_resultsEm
08262960 T _ZN11Query_cache12unlink_tableEP23Query_cache_block_table
082629e0 T _ZN11Query_cache10init_cacheEv
08262e30 T _ZN11Query_cache4initEv
08262e70 T _ZN17Query_cache_query16unlock_n_destroyEv
08262e90 T _ZN11Query_cache12move_by_typeEPPcPP17Query_cache_blockPmS3_
08263570 T _ZN11Query_cache10pack_cacheEv
08263640 T _ZN11Query_cache4packEmj
08263680 T _ZN11Query_cache19free_query_internalEP17Query_cache_block
08263760 T _ZN11Query_cache10free_queryEP17Query_cache_block
082637a0 T _ZN11Query_cache16invalidate_tableEP17Query_cache_block
08263800 T _ZN11Query_cache16invalidate_tableEPcj
08263850 T _ZN11Query_cache16invalidate_tableEP8st_table
08263880 T _ZN11Query_cache10invalidateEP3THDP8st_tablec
08263920 T _ZN11Query_cache10invalidateEP3THDPKcjc
08263a10 T _ZN11Query_cache16invalidate_tableEP10TABLE_LIST
08263aa0 T _ZN11Query_cache10invalidateEP3THDP10TABLE_LISTc
08263b70 T _ZN11Query_cache29invalidate_by_MyISAM_filenameEPKc
08263c00 T query_cache_invalidate_by_MyISAM_filename
08263c20 T _Z17query_cache_abortP6st_net
08263d20 T _ZN11Query_cache11flush_cacheEv
08263dd0 T _ZN11Query_cache10free_cacheEv
08263e40 T _ZN11Query_cache7destroyEv
08263ea0 T _ZN11Query_cache6resizeEm
08263ef0 T _ZN11Query_cache5flushEv
08263f30 T _ZN17Query_cache_query16try_lock_writingEv
08263f50 T _ZN11Query_cache14free_old_queryEv
08263fb0 T _ZN11Query_cache14allocate_blockEmcmc
082640a0 T _ZN11Query_cache19allocate_data_chainEPP17Query_cache_blockmS1_c
082641f0 T _ZN11Query_cache17write_result_dataEPP17Query_cache_blockmPcS1_NS0_10block_typeE
082642c0 T _ZN11Query_cache18append_result_dataEPP17Query_cache_blockmPcS1_
08264450 T _ZN11Query_cache16write_block_dataEmPcmN17Query_cache_block10block_typeEjc
082644f0 T _ZN11Query_cache12insert_tableEjPcP23Query_cache_block_tablejhPFcP3THDS0_jPyEy
08264670 T _ZN11Query_cache25register_tables_from_listEP10TABLE_LISTjP23Query_cache_block_table
08264920 T _ZN11Query_cache19register_all_tablesEP17Query_cache_blockP10TABLE_LISTj
08264950 T _ZN11Query_cache10invalidateEPc
082649f0 T _Z18query_cache_insertP6st_netPKcm
08264b00 T _ZN11Query_cache11store_queryEP3THDP10TABLE_LIST
08264e90 T _ZN11Query_cache21send_result_to_clientEP3THDPcj
08265620 T _ZN11Query_cache27invalidate_locked_for_writeEP10TABLE_LIST
08265710 T _ZN11Query_cache10invalidateEP21st_changed_table_list
08265800 T _Z25query_cache_end_of_resultP3THD
082659c0 T _Z16init_thread_maskPiP14st_master_infob
08265aa0 T _Z19print_slave_db_safePKc
08265ac0 T _Z17clear_slave_errorP17st_relay_log_info
08265ae0 T _Z21clear_until_conditionP17st_relay_log_info
08265b10 T _Z24set_slave_thread_optionsP3THD
08265b70 T _Z20check_expected_errorP3THDP17st_relay_log_infoi
08265bc0 T _Z18lock_slave_threadsP14st_master_info
08265bf0 T _Z16rotate_relay_logP14st_master_info
08265c80 T _Z20unlock_slave_threadsP14st_master_info
08265cb0 T _Z5db_okPKcR6I_ListI8i_stringES4_
08265d50 T _Z29init_master_info_with_optionsP14st_master_info
08265ec0 T _ZN17st_relay_log_info23inc_group_relay_log_posEyb
08265fb0 T _Z20flush_relay_log_infoP17st_relay_log_info
082668c0 T _Z16net_request_fileP6st_netPKc
08266910 T _Z21skip_load_data_infileP6st_net
08266970 T _ZN17st_relay_log_info22cached_charset_compareEPc
082669d0 T _ZN17st_relay_log_info25cached_charset_invalidateEv
082669f0 T _ZN17st_relay_log_info18is_until_satisfiedEv
08266b40 T _Z32set_slave_thread_default_charsetP3THDP17st_relay_log_info
08266b90 T _ZN17st_relay_log_infoD2Ev
08266c20 T _ZN17st_relay_log_infoC2Ev
08266e10 T _Z17flush_master_infoP14st_master_infob
08267000 T _Z21db_ok_with_wild_tablePKc
082670a0 T _Z26table_rule_ent_hash_to_strP6StringP7st_hash
08267140 T _Z24register_slave_on_masterP8st_mysql
082678e0 T _Z18fetch_master_tableP3THDPKcS2_P14st_master_infoP8st_mysqlb
08267b40 T _Z17slave_print_errorP17st_relay_log_infoiPKcz
08267be0 T _Z18rpl_master_has_bugP17st_relay_log_infoj
08267d50 T _Z19add_wild_table_ruleP16st_dynamic_arrayPKc
08267df0 T _Z14add_table_ruleP7st_hashPKc
08267e90 T _Z9tables_okP3THDP10TABLE_LIST
08268010 T _Z21init_table_rule_arrayP16st_dynamic_arrayPb
08268050 T _Z20init_table_rule_hashP7st_hashPb
082680a0 T _Z18start_slave_threadPFPvS_EP15pthread_mutex_tS3_P14pthread_cond_tPVjPVmP14st_master_infob
082682a0 T _Z22terminate_slave_threadP3THDP15pthread_mutex_tS2_P14pthread_cond_tPVj
08268390 T _Z23terminate_slave_threadsP14st_master_infoib
082684b0 T _Z19start_slave_threadsbbP14st_master_infoPKcS2_i
08268620 T _ZN17st_relay_log_info22close_temporary_tablesEv
08268670 T _Z18end_relay_log_infoP17st_relay_log_info
08268750 T _Z15end_master_infoP14st_master_info
082687d0 T _Z22init_slave_skip_errorsPKc
08268a50 T _ZN17st_relay_log_infoC1Ev
08268c40 T _Z18init_relay_log_posP17st_relay_log_infoPKcybPS2_b
082696a0 T _Z16init_master_infoP14st_master_infoPKcS2_bi
08269c80 T _Z10init_slavev
08269eb0 T _Z16purge_relay_logsP17st_relay_log_infoP3THDbPPKc
0826a050 T _Z10next_eventP17st_relay_log_info
0826a610 T handle_slave_sql
0826b110 T _Z35table_rule_ent_dynamic_array_to_strP6StringP16st_dynamic_array
0826b1b0 T _ZN17st_relay_log_infoD1Ev
0826b240 T _Z9end_slavev
0826b3b0 T _Z11queue_eventP14st_master_infoPKcm
0826beb0 T _ZN17st_relay_log_info12wait_for_posEP3THDP6Stringxx
0826c2b0 T handle_slave_io
0826d800 T _Z16show_master_infoP3THDP14st_master_info
0826f810 W _ZN15I_List_iteratorI8i_stringEC2ER6I_ListIS0_E
0826f830 W _ZN15I_List_iteratorI8i_stringEC1ER6I_ListIS0_E
0826f850 W _ZN15I_List_iteratorI8i_stringEppEi
0826f880 W _ZN15I_List_iteratorI13i_string_pairEppEi
0826f8b0 W _ZN15I_List_iteratorI13i_string_pairEC1ER6I_ListIS0_E
0826f8d0 W _ZN15I_List_iteratorI13i_string_pairEC2ER6I_ListIS0_E
0826f8f0 T _Z20adjust_linfo_offsetsy
0826f9a0 T _Z14cmp_master_posPKcyS0_y
0826fa40 T _Z13change_masterP3THDP14st_master_info
08270130 T _Z19purge_error_messageP3THDi
08270200 T _Z11reset_slaveP3THDP14st_master_info
082703b0 T _Z10stop_slaveP3THDP14st_master_infob
082705d0 T _Z11start_slaveP3THDP14st_master_infob
082709a0 T _Z32test_for_non_eof_log_read_errorsiPPKc
08270d40 T _Z17purge_master_logsP3THDPKc
08270df0 T _Z12reset_masterP3THD
08270e50 T _Z29purge_master_logs_before_dateP3THDl
08270ec0 T _Z24kill_zombie_dump_threadsj
08270f50 T _Z10log_in_usePKc
08271000 T _Z24mysql_show_binlog_eventsP3THD
08271470 T _Z16log_loaded_blockP11st_io_cache
082715b0 T _Z17mysql_binlog_sendP3THDPcyt
08272050 T _Z12show_binlogsP3THD
08272460 T _Z16show_binlog_infoP3THD
082728e0 T _ZN12select_union7prepareER4ListI4ItemEP18st_select_lex_unit
082728f0 T _ZN12select_union8send_eofEv
08272900 T _ZN12select_union5flushEv
08272960 T _ZN18st_select_lex_unit28init_prepare_fake_select_lexEP3THD
08272a60 T _ZN18st_select_lex_unit21reinit_exec_mechanismEv
08272a80 T _ZN13st_select_lex17cleanup_all_joinsEb
08272b00 T _ZN12select_union19create_result_tableEP3THDP4ListI4ItemEbyPKc
08272be0 T _ZN12select_union9send_dataER4ListI4ItemE
08272cb0 T _ZN18st_select_lex_unit13change_resultEP16select_subselectS1_
08272d40 T _ZN18st_select_lex_unit21get_unit_column_typesEv
08272d80 T _ZN13st_select_lex7cleanupEv
08272eb0 T _ZN18st_select_lex_unit7cleanupEv
08272fc0 T _ZN18st_select_lex_unit7prepareEP3THDP13select_resultm
08273fc0 T _ZN18st_select_lex_unit4execEv
08274d50 T _Z11mysql_unionP3THDP6st_lexP13select_resultP18st_select_lex_unitm
08274df0 W _ZN12select_unionD1Ev
08274e80 W _ZN12select_unionD0Ev
08274f10 T _Z20mysql_handle_derivedP6st_lexPFbP3THDS0_P10TABLE_LISTE
08274fd0 T _Z21mysql_derived_prepareP3THDP6st_lexP10TABLE_LIST
08275320 T _Z21mysql_derived_fillingP3THDP6st_lexP10TABLE_LIST
08275530 T mysql_detach_stmt_list
08275540 T mysql_send_query
082755a0 T mysql_real_query
082755e0 T mysql_fetch_lengths
08275620 T mysql_num_rows
08275630 T mysql_num_fields
08275640 T mysql_errno
08275650 T mysql_error
08275660 T set_mysql_error
082756b0 T mysql_get_server_version
08275750 T mysql_set_character_set
08275910 T mysql_select_db
082759a0 T mysql_ssl_set
08275ba0 T mysql_store_result
08275dc0 T mysql_options
08275fe0 T mysql_init
08276290 T mysql_init_character_set
08276470 T mysql_get_ssl_cipher
082764a0 T mysql_read_default_options
08276910 T free_old_query
08276980 T free_rows
082769c0 T unpack_fields
08276df0 T mysql_free_result
08276eb0 T end_server
08276f00 T mysql_close
08276ff0 T cli_safe_read
08277140 T mysql_fetch_row
08277340 T cli_read_rows
082777f0 T my_connect
08277920 T mysql_real_connect
08278b30 T mysql_reconnect
08278e00 T cli_advanced_command
08278fc0 T my_net_local_init
08279020 T finish_client_errs
08279040 T init_client_errs
08279070 T net_field_length
082790d0 T net_field_length_ll
08279140 T net_store_length
082791e0 T write_core
08279210 T print_stacktrace
08279400 T check_thread_lib
08279450 T safe_print_str
08279580 T slave_list_key
082795a0 T _Z17connect_to_masterP3THDP8st_mysqlP14st_master_info
082797b0 T slave_info_free
082797c0 T _Z16translate_masterP3THDP18st_lex_master_infoPc
08279f10 T _Z14end_slave_listv
08279f40 T _Z15init_slave_listv
08279fa0 T _Z16unregister_slaveP3THDbb
0827a040 T _Z14register_slaveP3THDPhj
0827a200 T _Z17change_rpl_status10RPL_STATUSS_
0827a260 T _Z17update_slave_listP8st_mysqlP14st_master_info
0827a4e0 T _Z15show_new_masterP3THD
0827a780 T _Z16show_slave_hostsP3THD
0827ade0 T _Z16load_master_dataP3THD
0827b840 T _Z17mysql_rename_viewP3THDPKcP10TABLE_LIST
0827bb40 T _Z13view_checksumP3THDP10TABLE_LIST
0827bbb0 T _Z18insert_view_fieldsP3THDP4ListI4ItemEP10TABLE_LIST
0827bc70 T _Z14mysql_frm_typeP3THDPcP7db_type
0827be80 T _Z21check_duplicate_namesR4ListI4ItemEb
0827bf80 T _Z17check_key_in_viewP3THDP10TABLE_LIST
0827c190 T _Z15mysql_make_viewP3THDP11File_parserP10TABLE_LISTj
0827cdc0 T _Z17mysql_create_viewP3THDP10TABLE_LIST21enum_view_create_mode
0827e3e0 T _Z15mysql_drop_viewP3THDP10TABLE_LIST14enum_drop_mode
0827e870 W _ZN12st_lex_localD1Ev
0827e8b0 W _ZN12st_lex_localD0Ev
0827e8f0 T _ZN15Gis_read_stream13get_next_wordEP13st_lex_string
0827e980 T _ZN15Gis_read_stream13set_error_msgEPKc
0827e9e0 T _ZN15Gis_read_stream17get_next_toc_typeEv
0827ea70 T _ZN15Gis_read_stream17check_next_symbolEc
0827eb00 T _ZN15Gis_read_stream15get_next_numberEPd
0827ebf0 T _ZN8Geometry10find_classEPKcj
0827ed30 T _ZNK8Geometry18get_mbr_for_pointsEP3MBRPKcj
0827ee50 T _ZNK9Gis_point13get_data_sizeEv
0827ee60 T _ZNK9Gis_point14get_class_infoEv
0827ee70 T _ZNK15Gis_line_string13get_data_sizeEv
0827eea0 T _ZNK15Gis_line_string7get_mbrEP3MBRPPKc
0827eee0 T _ZNK15Gis_line_string9is_closedEPi
0827ef80 T _ZNK15Gis_line_string10num_pointsEPj
0827efa0 T _ZNK15Gis_line_string14get_class_infoEv
0827efb0 T _ZNK11Gis_polygon4areaEPdPPKc
0827f0e0 T _ZNK11Gis_polygon11centroid_xyEPdS0_
0827f270 T _ZNK11Gis_polygon14get_class_infoEv
0827f280 T _ZNK15Gis_multi_point7get_mbrEP3MBRPPKc
0827f2c0 T _ZNK15Gis_multi_point14num_geometriesEPj
0827f2e0 T _ZNK15Gis_multi_point14get_class_infoEv
0827f2f0 T _ZNK21Gis_multi_line_string14num_geometriesEPj
0827f310 T _ZNK21Gis_multi_line_string14get_class_infoEv
0827f320 T _ZNK17Gis_multi_polygon14num_geometriesEPj
0827f340 T _ZNK17Gis_multi_polygon14get_class_infoEv
0827f350 T _ZNK23Gis_geometry_collection14get_class_infoEv
0827f360 T _ZN8Geometry10Class_infoC1EPKciPFvPvE
0827f3b0 T _ZN8Geometry10Class_infoC2EPKciPFvPvE
0827f5e0 T _ZNK15Gis_line_string11geom_lengthEPd
0827f6c0 T _ZNK8Geometry13append_pointsEP6StringjPKcj
0827f760 T _ZN8Geometry15create_from_wktEP15Geometry_bufferP15Gis_read_streamP6Stringb
0827f890 T _ZNK23Gis_geometry_collection14num_geometriesEPj
0827f8c0 T _ZNK17Gis_multi_polygon10geometry_nEjP6String
0827f9a0 T _ZNK17Gis_multi_polygon7get_mbrEP3MBRPPKc
0827fa20 T _ZNK17Gis_multi_polygon13get_data_sizeEv
0827faa0 T _ZNK21Gis_multi_line_string7get_mbrEP3MBRPPKc
0827fb10 T _ZNK21Gis_multi_line_string13get_data_sizeEv
0827fb60 T _ZNK15Gis_multi_point13get_data_sizeEv
0827fb90 T _ZNK11Gis_polygon17num_interior_ringEPj
0827fbc0 T _ZNK11Gis_polygon7get_mbrEP3MBRPPKc
0827fc20 T _ZNK11Gis_polygon13get_data_sizeEv
0827fc70 T _ZNK23Gis_geometry_collection7get_mbrEP3MBRPPKc
0827fd50 T _ZNK17Gis_multi_polygon4areaEPdPPKc
0827fe20 T _ZNK21Gis_multi_line_string9is_closedEPi
0827fee0 T _ZNK21Gis_multi_line_string11geom_lengthEPd
0827ff90 T _ZNK17Gis_multi_polygon15get_data_as_wktEP6StringPPKc
08280120 T _ZN23Gis_geometry_collection13init_from_wktEP15Gis_read_streamP6String
08280210 T _ZNK9Gis_point7get_mbrEP3MBRPPKc
082802e0 T _ZNK11Gis_polygon15interior_ring_nEjP6String
082803c0 T _ZN8Geometry9constructEP15Geometry_bufferPKcj
08280430 T _ZN23Gis_geometry_collection13init_from_wkbEPKcjN8Geometry12wkbByteOrderEP6String
08280590 T _ZNK23Gis_geometry_collection13get_data_sizeEv
08280630 T _ZN8Geometry15create_from_wkbEP15Geometry_bufferPKcjP6String
08280700 T _ZNK23Gis_geometry_collection9dimensionEPjPPKc
082807d0 T _ZNK23Gis_geometry_collection10geometry_nEjP6String
082808d0 T _ZNK21Gis_multi_line_string15get_data_as_wktEP6StringPPKc
082809d0 T _ZNK11Gis_polygon13exterior_ringEP6String
08280a70 T _ZNK11Gis_polygon15get_data_as_wktEP6StringPPKc
08280b70 T _ZNK15Gis_line_string15get_data_as_wktEP6StringPPKc
08280c50 T _ZNK9Gis_point15get_data_as_wktEP6StringPPKc
08280d00 T _ZN9Gis_point13init_from_wkbEPKcjN8Geometry12wkbByteOrderEP6String
08280d90 T _ZN15Gis_line_string13init_from_wkbEPKcjN8Geometry12wkbByteOrderEP6String
08280e60 T _ZN21Gis_multi_line_string13init_from_wkbEPKcjN8Geometry12wkbByteOrderEP6String
08280f80 T _ZN11Gis_polygon13init_from_wkbEPKcjN8Geometry12wkbByteOrderEP6String
082810a0 T _ZN17Gis_multi_polygon13init_from_wkbEPKcjN8Geometry12wkbByteOrderEP6String
082811d0 T _ZN9Gis_point13init_from_wktEP15Gis_read_streamP6String
08281270 T _ZN15Gis_multi_point13init_from_wktEP15Gis_read_streamP6String
08281370 T _ZN15Gis_line_string13init_from_wktEP15Gis_read_streamP6String
08281450 T _ZN21Gis_multi_line_string13init_from_wktEP15Gis_read_streamP6String
08281590 T _ZN11Gis_polygon13init_from_wktEP15Gis_read_streamP6String
082816e0 T _ZN17Gis_multi_polygon13init_from_wktEP15Gis_read_streamP6String
08281800 T _ZNK8Geometry12create_pointEP6Stringdd
08281890 T _ZNK17Gis_multi_polygon8centroidEP6String
082819a0 T _ZNK11Gis_polygon8centroidEP6String
08281a00 T _ZNK8Geometry12create_pointEP6StringPKc
08281a80 T _ZNK15Gis_line_string7point_nEjP6String
08281ae0 T _ZNK15Gis_line_string9end_pointEP6String
08281b30 T _ZNK15Gis_line_string11start_pointEP6String
08281b60 T _ZNK8Geometry8envelopeEP6String
08281ce0 T _ZNK15Gis_multi_point10geometry_nEjP6String
08281d80 T _ZNK15Gis_multi_point15get_data_as_wktEP6StringPPKc
08281e10 T _ZN15Gis_multi_point13init_from_wkbEPKcjN8Geometry12wkbByteOrderEP6String
08281ef0 T _ZNK21Gis_multi_line_string10geometry_nEjP6String
08281fa0 T _ZNK23Gis_geometry_collection15get_data_as_wktEP6StringPPKc
08282140 W _ZN8GeometryD1Ev
08282150 W _ZNK8Geometry5get_xEPd
08282160 W _ZNK8Geometry5get_yEPd
08282170 W _ZNK8Geometry11geom_lengthEPd
08282180 W _ZNK8Geometry4areaEPdPPKc
08282190 W _ZNK8Geometry9is_closedEPi
082821a0 W _ZNK8Geometry17num_interior_ringEPj
082821b0 W _ZNK8Geometry10num_pointsEPj
082821c0 W _ZNK8Geometry14num_geometriesEPj
082821d0 W _ZNK8Geometry11start_pointEP6String
082821e0 W _ZNK8Geometry9end_pointEP6String
082821f0 W _ZNK8Geometry13exterior_ringEP6String
08282200 W _ZNK8Geometry8centroidEP6String
08282210 W _ZNK8Geometry7point_nEjP6String
08282220 W _ZNK8Geometry15interior_ring_nEjP6String
08282230 W _ZNK8Geometry10geometry_nEjP6String
08282240 W _ZN9Gis_pointD1Ev
08282250 W _ZNK9Gis_point5get_yEPd
082822a0 W _ZNK9Gis_point9dimensionEPjPPKc
082822c0 W _ZN15Gis_line_stringD1Ev
082822d0 W _ZNK15Gis_line_string9dimensionEPjPPKc
082822f0 W _ZN11Gis_polygonD1Ev
08282300 W _ZNK11Gis_polygon9dimensionEPjPPKc
08282320 W _ZNK15Gis_multi_point9dimensionEPjPPKc
08282340 W _ZNK21Gis_multi_line_string9dimensionEPjPPKc
08282360 W _ZNK17Gis_multi_polygon9dimensionEPjPPKc
08282380 W _ZNK9Gis_point5get_xEPd
082823d0 W _ZN9Gis_pointD0Ev
082823e0 W _ZN8GeometryD0Ev
082823f0 W _ZN23Gis_geometry_collectionD0Ev
08282400 W _ZN23Gis_geometry_collectionD1Ev
08282410 W _ZN17Gis_multi_polygonD0Ev
08282420 W _ZN17Gis_multi_polygonD1Ev
08282430 W _ZN21Gis_multi_line_stringD0Ev
08282440 W _ZN21Gis_multi_line_stringD1Ev
08282450 W _ZN15Gis_multi_pointD0Ev
08282460 W _ZN15Gis_multi_pointD1Ev
08282470 W _ZN11Gis_polygonD0Ev
08282480 W _ZN15Gis_line_stringD0Ev
08282490 T _Z21prepare_simple_selectP3THDP4ItemP8st_tablePi
082825a0 T _Z14search_keywordP3THDP8st_tableP13st_find_fieldP10SQL_SELECTPi
08282640 T string_ptr_cmp
082826c0 T _Z19send_variant_2_listP11st_mem_rootP8ProtocolP4ListI6StringEPKcPS4_
08282800 T _Z17search_categoriesP3THDP8st_tableP13st_find_fieldP10SQL_SELECTP4ListI6StringEPs
08282970 T _Z26get_all_items_for_categoryP3THDP8st_tableP5FieldP10SQL_SELECTP4ListI6StringE
08282a80 T _Z22memorize_variant_topicP3THDP8st_tableiP13st_find_fieldP4ListI6StringEPS6_S9_S9_
08282bf0 T _Z22get_topics_for_keywordP3THDP8st_tableS2_P13st_find_fieldsP4ListI6StringEPS6_S9_S9_
08282ea0 T _Z13search_topicsP3THDP8st_tableP13st_find_fieldP10SQL_SELECTP4ListI6StringEPS8_SB_SB_
08282f60 T _Z23prepare_select_for_nameP3THDPKcjP10TABLE_LISTP8st_tableP5FieldPi
08283230 T _Z13send_header_2P8Protocolb
08283520 T _Z13send_answer_1P8ProtocolP6StringS2_S2_
08283890 T _Z11mysqld_helpP3THDPKc
08284490 T _ZN16Sensitive_cursor9reset_thdEP3THD
082844d0 T _ZN19Materialized_cursor5fetchEm
082845d0 T _ZN18Select_materialize11send_fieldsER4ListI4ItemEj
08284650 T _ZN16Sensitive_cursor5closeEv
08284750 T _ZN19Materialized_cursor5closeEv
082847f0 T _ZN19Materialized_cursorC1EP13select_resultP8st_table
082848c0 T _ZN16Sensitive_cursor4openEP4JOIN
082849f0 T _ZN16Sensitive_cursor9post_openEP3THD
08284b10 T _ZN16Sensitive_cursorC1EP3THDP13select_result
08284bd0 T _ZN16Sensitive_cursorC2EP3THDP13select_result
08284c90 T _ZN18Server_side_cursordlEPvj
08284cd0 T _ZN18Server_side_cursorD1Ev
08284ce0 T _ZN16Sensitive_cursor5fetchEm
08284f30 T _ZN19Materialized_cursorC2EP13select_resultP8st_table
08285000 T _Z17mysql_open_cursorP3THDjP13select_resultPP18Server_side_cursor
08285270 T _ZN19Materialized_cursor4openEP4JOIN
08285380 T _ZN18Server_side_cursorD2Ev
08285390 T _ZN19Materialized_cursorD0Ev
082853e0 T _ZN19Materialized_cursorD1Ev
08285420 T _ZN19Materialized_cursorD2Ev
08285460 T _ZN18Server_side_cursorD0Ev
08285490 T _ZN16Sensitive_cursorD2Ev
08285500 T _ZN16Sensitive_cursorD0Ev
08285580 T _ZN16Sensitive_cursorD1Ev
082855f0 W _ZNK16Sensitive_cursor7is_openEv
08285610 W _ZNK19Materialized_cursor7is_openEv
08285630 W _ZN18Select_materializeD1Ev
082856c0 W _ZN18Select_materializeD0Ev
08285ae0 T _ZNK16Time_zone_system8get_nameEv
08285af0 T _ZNK13Time_zone_utc15TIME_to_gmt_secEPK13st_mysql_timePc
08285b00 T _ZNK13Time_zone_utc8get_nameEv
08285b10 T _ZN12Time_zone_dbC2EP17st_time_zone_infoPK6String
08285b30 T _ZN12Time_zone_dbC1EP17st_time_zone_infoPK6String
08285b50 T _ZNK12Time_zone_db15TIME_to_gmt_secEPK13st_mysql_timePc
08285d10 T _ZNK12Time_zone_db8get_nameEv
08285d20 T _ZNK16Time_zone_offset15TIME_to_gmt_secEPK13st_mysql_timePc
08285df0 T _ZNK16Time_zone_offset15gmt_sec_to_TIMEEP13st_mysql_timel
08285e10 T _ZNK16Time_zone_offset8get_nameEv
08285e20 T my_tz_names_get_key
08285e40 T my_offset_tzs_get_key
08285e60 T _Z13str_to_offsetPKcjPl
08286060 T _Z20my_tz_get_table_listP3THDPPP10TABLE_LIST
082860c0 T _Z10my_tz_freev
08286110 T _ZNK12Time_zone_db15gmt_sec_to_TIMEEP13st_mysql_timel
08286220 T _ZNK13Time_zone_utc15gmt_sec_to_TIMEEP13st_mysql_timel
08286270 T _ZNK16Time_zone_system15gmt_sec_to_TIMEEP13st_mysql_timel
082862c0 T _ZNK16Time_zone_system15TIME_to_gmt_secEPK13st_mysql_timePc
082863e0 T _ZN16Time_zone_offsetC1El
082864f0 T _Z10my_tz_findPK6StringP10TABLE_LIST
08287210 T _Z33my_tz_find_with_opening_tz_tablesP3THDPK6String
082872b0 T _Z10my_tz_initP3THDPKcc
08287840 T _ZN16Time_zone_offsetC2El
08287950 W _ZN9Time_zoneD0Ev
08287960 W _ZN13Time_zone_utcD1Ev
08287970 W _ZN16Time_zone_systemD1Ev
08287980 W _ZN16Time_zone_systemD0Ev
08287990 W _ZN13Time_zone_utcD0Ev
082879a0 W _ZN12Time_zone_dbD0Ev
082879b0 W _ZN12Time_zone_dbD1Ev
082879c0 W _ZN9Time_zoneD1Ev
082879d0 W _ZN16Time_zone_offsetD0Ev
08287a30 W _ZN16Time_zone_offsetD1Ev
08287a90 T calc_days_in_year
08287af0 T check_date
08287b90 T check_time_range
08287c50 T year_2000_handling
08287c70 T calc_daynr
08287d30 T TIME_to_ulonglong_datetime
08287db0 T TIME_to_ulonglong_date
08287df0 T TIME_to_ulonglong_time
08287e30 T TIME_to_ulonglong
08287e70 T number_to_datetime
08288220 T set_zero_time
08288240 T str_to_datetime
08288a60 T my_datetime_to_str
08288ab0 T my_date_to_str
08288af0 T my_time_to_str
08288b50 T my_TIME_to_str
08288bb0 T my_system_gmt_sec
08288e70 T init_time
08288ef0 T str_to_time
08289590 T parse_user
08289640 T _Z25decimal_operation_resultsi
082897b0 T _Z17my_decimal2stringjPK10my_decimaljjcP6String
08289880 T _Z15date2my_decimalP13st_mysql_timeP10my_decimal
08289960 T _Z14str2my_decimaljPKcjP15charset_info_stP10my_decimal
08289ac0 T _Z17my_decimal2binaryjPK10my_decimalPcii
08289b70 T _Z18sp_map_result_type16enum_field_types
08289be0 T _Z16sp_map_item_type16enum_field_types
08289c70 T _Z24sp_get_flags_for_commandP6st_lex
08289cf0 T _Z20sp_prepare_func_itemP3THDPP4Item
08289d70 T _Z12sp_eval_exprP3THDP5FieldPP4Item
08289e20 T _Z18check_routine_name13st_lex_string
08289e50 T _Z21cmp_splocal_locationsPKP12Item_splocalS2_
08289e70 T _ZN7sp_head18reset_thd_mem_rootEP3THD
08289ea0 T _ZN8sp_instr13get_cont_destEv
08289eb0 T _ZN8sp_instr9exec_coreEP3THDPj
08289ec0 T _ZN26sp_instr_set_trigger_field9exec_coreEP3THDPj
08289f10 T _ZN17sp_instr_opt_meta13get_cont_destEv
08289f20 T _ZN13sp_instr_jump7executeEP3THDPj
08289f40 T _ZN20sp_instr_jump_if_not9exec_coreEP3THDPj
08289fa0 T _ZN13sp_instr_hpop7executeEP3THDPj
08289fd0 T _ZN16sp_instr_hreturn7executeEP3THDPj
0828a020 T _ZN16sp_instr_hreturn8opt_markEP7sp_headP4ListI8sp_instrE
0828a040 T _Z27sp_restore_security_contextP3THDP16Security_context
0828a060 T _Z12sp_table_keyPKcPjc
0828a080 T _ZN7sp_head9backpatchEP8sp_label
0828a0d0 T _ZN19sp_instr_hpush_jump7executeEP3THDPj
0828a170 T _ZN7sp_head21recursion_level_errorEP3THD
0828a1c0 T _ZN7sp_head11set_definerEPK13st_lex_stringS2_
0828a240 T _ZN7sp_head8set_infoExxP14st_sp_chisticsm
0828a2e0 T _ZN7sp_head16merge_table_listEP3THDP10TABLE_LISTP6st_lex
0828a5e0 T _Z26sp_change_security_contextP3THDP7sp_headPP16Security_context
0828a6f0 T _ZN14sp_instr_error7executeEP3THDPj
0828a730 T _ZN13sp_instr_cpop7executeEP3THDPj
0828a770 T _ZN16sp_instr_freturn9exec_coreEP3THDPj
0828a7b0 T _ZN26sp_instr_set_trigger_field5printEP6String
0828a820 T _ZN12sp_instr_set9exec_coreEP3THDPj
0828a8e0 T _ZN13sp_instr_stmt9exec_coreEP3THDPj
0828a910 T _ZN7sp_head9add_instrEP8sp_instr
0828a960 T _ZN8sp_instr25exec_open_and_lock_tablesEP3THDP10TABLE_LIST
0828a9d0 T _ZN13sp_lex_keeper23reset_lex_and_exec_coreEP3THDPjbP8sp_instr
0828abf0 T _ZN22sp_instr_set_case_expr7executeEP3THDPj
0828ac30 T _ZN14sp_instr_copen7executeEP3THDPj
0828ace0 T _ZN16sp_instr_freturn7executeEP3THDPj
0828ad20 T _ZN20sp_instr_jump_if_not7executeEP3THDPj
0828ad60 T _ZN26sp_instr_set_trigger_field7executeEP3THDPj
0828ada0 T _ZN12sp_instr_set7executeEP3THDPj
0828ade0 T _Z25check_show_routine_accessP3THDP7sp_headPb
0828aef0 T _ZN7sp_head20restore_thd_mem_rootEP3THD
0828af50 T _ZN7sp_head11restore_lexEP3THD
0828b040 T _ZN7sp_headdlEPvj
0828b080 T _Z24set_routine_security_ctxP3THDP7sp_headbPP16Security_context
0828b130 T _ZN7sp_headnwEj
0828b180 T _ZN7sp_head19create_result_fieldEjPKcP8st_table
0828b210 T _ZN7sp_head7destroyEv
0828b320 T _ZN7sp_head6createEP3THD
0828b350 T _ZN7sp_head12init_stringsEP3THDP6st_lex
0828b430 T _ZN7sp_name10init_qnameEP3THD
0828b4c0 T _ZN7sp_head12init_sp_nameEP3THDP7sp_name
0828b590 T _ZN13sp_instr_stmt5printEP6String
0828b690 T _ZN7sp_headC2Ev
0828b7e0 T _ZN15sp_instr_cclose7executeEP3THDPj
0828b830 T _ZN14sp_instr_copen9exec_coreEP3THDPj
0828b870 T _ZN7sp_head11set_definerEPKcj
0828b8e0 T _ZN7sp_head17do_cont_backpatchEv
0828b960 T _ZN7sp_headC1Ev
0828bab0 T _ZN22sp_instr_set_case_expr9exec_coreEP3THDPj
0828bbf0 T _ZN7sp_head4initEP6st_lex
0828bd10 T _ZN7sp_head18add_cont_backpatchEP17sp_instr_opt_meta
0828bd70 T _ZN7sp_headD0Ev
0828bdd0 T _ZN7sp_headD1Ev
0828be20 T _ZN7sp_headD2Ev
0828be70 T _ZN15sp_instr_cfetch7executeEP3THDPj
0828bed0 T _ZN14sp_instr_cpush7executeEP3THDPj
0828bf50 T _ZN22sp_instr_set_case_expr8opt_moveEjP4ListI8sp_instrE
0828bfd0 T _ZN13sp_instr_jump8opt_moveEjP4ListI8sp_instrE
0828c050 T _ZN20sp_instr_jump_if_not8opt_moveEjP4ListI8sp_instrE
0828c0f0 T _ZN13sp_instr_jump5printEP6String
0828c160 T _ZN12sp_instr_set5printEP6String
0828c240 T _ZN22sp_instr_set_case_expr5printEP6String
0828c2e0 T _ZN14sp_instr_error5printEP6String
0828c350 T _ZN15sp_instr_cfetch5printEP6String
0828c480 T _ZN15sp_instr_cclose5printEP6String
0828c540 T _ZN14sp_instr_copen5printEP6String
0828c600 T _ZN13sp_instr_cpop5printEP6String
0828c670 T _ZN14sp_instr_cpush5printEP6String
0828c730 T _ZN16sp_instr_hreturn5printEP6String
0828c7c0 T _ZN13sp_instr_hpop5printEP6String
0828c830 T _ZN19sp_instr_hpush_jump5printEP6String
0828c980 T _ZN16sp_instr_freturn5printEP6String
0828ca10 T _ZN20sp_instr_jump_if_not5printEP6String
0828cac0 T _ZN7sp_head21fill_field_definitionEP3THDP6st_lex16enum_field_typesP12create_field
0828ce70 T _ZN7sp_head18new_cont_backpatchEP17sp_instr_opt_meta
0828cee0 T _ZN7sp_head14push_backpatchEP8sp_instrP8sp_label
0828cf50 T _ZN7sp_head9reset_lexEP3THD
0828d070 T _Z22sp_add_to_query_tablesP3THDP6st_lexPKcS4_13thr_lock_type
0828d170 T _ZN7sp_head29add_used_tables_to_table_listEP3THDPPP10TABLE_LISTS3_
0828d350 T _ZN7sp_head20show_create_functionEP3THD
0828d750 T _ZN13sp_instr_jump17opt_shortcut_jumpEP7sp_headP8sp_instr
0828d7c0 T _ZN13sp_instr_jump8opt_markEP7sp_headP4ListI8sp_instrE
0828d840 T _ZN7sp_head8opt_markEv
0828d980 T _ZN7sp_head13add_mark_leadEjP4ListI8sp_instrE
0828da00 T _ZN22sp_instr_set_case_expr8opt_markEP7sp_headP4ListI8sp_instrE
0828dac0 T _ZN19sp_instr_hpush_jump8opt_markEP7sp_headP4ListI8sp_instrE
0828db80 T _ZN20sp_instr_jump_if_not8opt_markEP7sp_headP4ListI8sp_instrE
0828dcd0 T _ZN7sp_head8optimizeEv
0828de10 T _ZN7sp_head7executeEP3THD
0828e430 T _ZN7sp_head17execute_procedureEP3THDP4ListI4ItemE
0828e8e0 T _ZN7sp_head15execute_triggerEP3THDPKcS3_P13st_grant_info
0828eb00 T _ZN7sp_head21show_create_procedureEP3THD
0828f030 T _ZN7sp_head16execute_functionEP3THDPP4ItemjP5Field
0828f7c0 T _ZN13sp_instr_stmt7executeEP3THDPj
0828fcb0 W _ZN8sp_instr9backpatchEjP11sp_pcontext
0828fcc0 W _ZN8sp_instr8opt_markEP7sp_headP4ListIS_E
0828fce0 W _ZN8sp_instr17opt_shortcut_jumpEP7sp_headPS_
0828fcf0 W _ZN8sp_instr8opt_moveEjP4ListIS_E
0828fd00 W _ZN13sp_instr_jump9backpatchEjP11sp_pcontext
0828fd20 W _ZN13sp_instr_jump15set_destinationEjj
0828fd40 W _ZN20sp_instr_jump_if_not17opt_shortcut_jumpEP7sp_headP8sp_instr
0828fd50 W _ZN16sp_instr_freturn8opt_markEP7sp_headP4ListI8sp_instrE
0828fd70 W _ZN19sp_instr_hpush_jump17opt_shortcut_jumpEP7sp_headP8sp_instr
0828fd80 W _ZN16sp_instr_hreturn17opt_shortcut_jumpEP7sp_headP8sp_instr
0828fd90 W _ZN14sp_instr_cpush12cleanup_stmtEv
0828fda0 W _ZN14sp_instr_error8opt_markEP7sp_headP4ListI8sp_instrE
0828fdc0 W _ZN22sp_instr_set_case_expr15set_destinationEjj
0828fde0 W _ZN20sp_instr_jump_if_not15set_destinationEjj
0828fe10 W _ZN8sp_instrD0Ev
0828fe40 W _ZN8sp_instrD1Ev
0828fe70 W _ZN14sp_instr_errorD0Ev
0828fea0 W _ZN14sp_instr_errorD1Ev
0828fed0 W _ZN15sp_instr_cfetchD0Ev
0828ff00 W _ZN15sp_instr_cfetchD1Ev
0828ff30 W _ZN15sp_instr_ccloseD0Ev
0828ff60 W _ZN15sp_instr_ccloseD1Ev
0828ff90 W _ZN14sp_instr_copenD0Ev
0828ffc0 W _ZN14sp_instr_copenD1Ev
0828fff0 W _ZN13sp_instr_cpopD0Ev
08290020 W _ZN13sp_instr_cpopD1Ev
08290050 W _ZN13sp_instr_hpopD0Ev
08290080 W _ZN13sp_instr_hpopD1Ev
082900b0 W _ZN17sp_instr_opt_metaD0Ev
082900e0 W _ZN17sp_instr_opt_metaD1Ev
08290110 W _ZN13sp_instr_jumpD1Ev
08290140 W _ZN13sp_instr_jumpD0Ev
08290170 W _ZN12sp_instr_setD1Ev
082901e0 W _ZN13sp_instr_stmtD0Ev
08290250 W _ZN22sp_instr_set_case_exprD1Ev
082902c0 W _ZN14sp_instr_cpushD0Ev
08290330 W _ZN14sp_instr_cpushD1Ev
082903a0 W _ZN16sp_instr_freturnD0Ev
08290410 W _ZN16sp_instr_freturnD1Ev
08290480 W _ZN20sp_instr_jump_if_notD0Ev
082904f0 W _ZN20sp_instr_jump_if_notD1Ev
08290560 W _ZN26sp_instr_set_trigger_fieldD0Ev
082905d0 W _ZN26sp_instr_set_trigger_fieldD1Ev
08290640 W _ZN12sp_instr_setD0Ev
082906b0 W _ZN13sp_instr_stmtD1Ev
08290720 W _ZN22sp_instr_set_case_exprD0Ev
08290790 W _ZN16sp_instr_hreturnD1Ev
082907c0 W _ZN19sp_instr_hpush_jumpD0Ev
08290800 W _ZN16sp_instr_hreturnD0Ev
08290830 W _ZN19sp_instr_hpush_jumpD1Ev
08290870 T _Z13sp_cond_checkP13st_lex_string
082908b0 T _ZN11sp_pcontext11pop_contextEv
082908f0 T _ZN11sp_pcontext13diff_handlersEPS_b
08290960 T _ZN11sp_pcontext10find_labelEPc
082909d0 T _ZN11sp_pcontext11find_cursorEjP13st_lex_string
08290a50 T _ZN11sp_pcontext11find_cursorEP13st_lex_stringPjc
08290b20 T _ZN11sp_pcontext9find_condEP13st_lex_stringc
08290be0 T _ZN11sp_pcontext13find_variableEj
08290c40 T _ZN11sp_pcontext13find_variableEP13st_lex_stringc
08290cf0 T _ZN11sp_pcontext10push_labelEPcj
08290d70 T _ZN11sp_pcontext11push_cursorEP13st_lex_string
08290db0 T _ZN11sp_pcontext9push_condEP13st_lex_stringP12sp_cond_type
08290e00 T _ZN11sp_pcontext13push_variableEP13st_lex_string16enum_field_types15sp_param_mode_t
08290e70 T _ZN11sp_pcontext12find_handlerEP12sp_cond_type
08290f00 T _ZN11sp_pcontext7destroyEv
08290fb0 T _ZN11sp_pcontextC1EPS_16label_scope_type
08291140 T _ZN11sp_pcontext12push_contextE16label_scope_type
082911c0 T _ZN11sp_pcontextC2Ev
08291340 T _ZN11sp_pcontextC2EPS_16label_scope_type
082914d0 T _ZN11sp_pcontextC1Ev
08291650 T _ZN11sp_pcontext12diff_cursorsEPS_b
082916c0 T _ZN11sp_pcontext26retrieve_field_definitionsEP4ListI12create_fieldE
082917a0 T _ZN11sp_rcontextC1EP11sp_pcontextP5FieldPS_
08291800 T _ZN11sp_rcontext11pop_cursorsEj
08291840 T _ZN11sp_rcontext8get_itemEj
08291860 T _ZN11sp_rcontext13get_item_addrEj
08291880 T _ZN9sp_cursor7destroyEv
082918b0 T _ZN11sp_rcontext13get_case_exprEi
082918d0 T _ZN11sp_rcontext18get_case_expr_addrEi
082918f0 T _ZN11sp_rcontext23create_case_expr_holderEP3THD11Item_result
08291960 T _ZN11sp_rcontext13set_case_exprEP3THDiPP4Item
08291a10 T _ZN9sp_cursor5fetchEP3THDP4ListI11sp_variableE
08291b00 T _ZN9sp_cursor5closeEP3THD
08291b50 T _ZN9sp_cursor4openEP3THD
08291bc0 T _ZN11sp_rcontext12set_variableEP3THDP5FieldPP4Item
08291c00 T _ZN11sp_rcontext12set_variableEP3THDjPP4Item
08291c20 T _ZN24Select_fetch_into_spvars9send_dataER4ListI4ItemE
08291c90 T _ZN11sp_rcontext16set_return_valueEP3THDPP4Item
08291cc0 T _ZN11sp_rcontext12find_handlerEP3THDjN11MYSQL_ERROR18enum_warning_levelE
08291ee0 T _ZN11sp_rcontext12handle_errorEjN11MYSQL_ERROR18enum_warning_levelEP3THD
08291f60 T _ZN11sp_rcontext14init_var_itemsEv
08292000 T _ZN11sp_rcontext14init_var_tableEP3THD
08292080 T _ZN11sp_rcontextD1Ev
082920a0 T _ZN11sp_rcontextD2Ev
082920c0 T _ZN11sp_rcontextC2EP11sp_pcontextP5FieldPS_
08292120 T _ZN9sp_cursorC2EP13sp_lex_keeperP14sp_instr_cpush
08292170 T _ZN11sp_rcontext4initEP3THD
082922b0 T _ZN24Select_fetch_into_spvars7prepareER4ListI4ItemEP18st_select_lex_unit
082922d0 T _ZN9sp_cursorC1EP13sp_lex_keeperP14sp_instr_cpush
08292320 T _ZN11sp_rcontext11push_cursorEP13sp_lex_keeperP14sp_instr_cpush
08292380 W _ZN24Select_fetch_into_spvars8send_eofEv
08292390 W _ZN24Select_fetch_into_spvarsD1Ev
082923a0 W _ZN24Select_fetch_into_spvarsD0Ev
082923b0 W _ZN9sp_cursorD0Ev
082923e0 W _ZN9sp_cursorD1Ev
08292410 T sp_sroutine_key
08292430 T _Z22sp_get_prelocking_infoP3THDPbS1_
08292460 T _Z13sp_use_new_dbP3THD13st_lex_stringPS1_bPb
08292620 T _Z19sp_add_used_routineP6st_lexP11Query_arenaP7sp_namec
082926c0 T _Z26sp_update_sp_used_routinesP7st_hashS0_
08292840 T _Z26sp_remove_not_own_routinesP6st_lex
08292910 T _Z19sp_drop_db_routinesP3THDPc
08292bb0 T _Z16sp_drop_functionP3THDP7sp_name
08292be0 T _Z17sp_drop_procedureP3THDP7sp_name
08292cf0 T _Z16close_proc_tableP3THDP17Open_tables_state
08292d30 T _Z24open_proc_table_for_readP3THDP17Open_tables_state
08292e30 T _Z26sp_routine_exists_in_tableP3THDiP7sp_name
08293760 T _Z23sp_show_status_functionP3THDPKc
08293780 T _Z24sp_show_status_procedureP3THDPKc
08294590 T _Z45sp_cache_routines_and_add_tables_for_triggersP3THDP6st_lexP10TABLE_LIST
08294690 T _Z41sp_cache_routines_and_add_tables_for_viewP3THDP6st_lexP10TABLE_LIST
08294720 T _Z32sp_cache_routines_and_add_tablesP3THDP6st_lexbPb
08294750 T _Z15sp_find_routineP3THDiP7sp_namePP8sp_cacheb
082949a0 T _Z23sp_show_create_functionP3THDP7sp_name
08294a00 T _Z24sp_show_create_procedureP3THDP7sp_name
08294a60 T _Z17sp_exist_routinesP3THDP10TABLE_LISTbb
08295320 T _Z18sp_create_functionP3THDP7sp_head
08295340 T _Z19sp_create_procedureP3THDP7sp_head
082955a0 T _Z18sp_update_functionP3THDP7sp_nameP14st_sp_chistics
082955d0 T _Z19sp_update_procedureP3THDP7sp_nameP14st_sp_chistics
08295640 T _ZN8sp_cache7cleanupEv
08295650 T _ZN8sp_cacheD1Ev
08295660 T _ZN8sp_cacheD2Ev
08295670 T _ZN8sp_cache4initEv
082956d0 T _ZN8sp_cacheC1Ev
082956e0 T _ZN8sp_cacheC2Ev
082956f0 T _Z23sp_cache_flush_obsoletePP8sp_cache
08295740 T _Z19sp_cache_invalidatev
08295770 T _Z15sp_cache_lookupPP8sp_cacheP7sp_name
082957a0 T _Z15sp_cache_insertPP8sp_cacheP7sp_head
08295800 T _Z14sp_cache_clearPP8sp_cache
08295840 T _Z13sp_cache_initv
08295860 T _Z19read_escaped_stringPcS_P13st_lex_string
08295900 T _ZN22File_parser_dummy_hook22process_unknown_stringERPcS0_P11st_mem_rootS0_
08295910 T _Z20parse_escaped_stringPcS_P11st_mem_rootP13st_lex_string
08295990 T _Z24get_file_options_ulllistRPcS_S_S_P11File_optionP11st_mem_root
08295ac0 T _Z17sql_parse_preparePK13st_lex_stringP11st_mem_rootb
08295cc0 T _Z21rename_in_schema_filePKcS0_S0_yj
082960d0 T _Z26sql_create_definition_filePK13st_lex_stringS1_S1_PcP11File_optionj
08296830 T _ZN11File_parser5parseEPcP11st_mem_rootP11File_optionjP16Unknown_key_hook
08296d50 W _ZN22File_parser_dummy_hookD1Ev
08296d60 W _ZN22File_parser_dummy_hookD0Ev
08296d80 T _ZN19Table_triggers_listD1Ev
08296df0 T _ZN19Table_triggers_list9set_tableEP8st_table
08296e30 T _ZN19Table_triggers_list16mark_fields_usedEP3THD14trg_event_type
08296eb0 T _ZN19Table_triggers_list36is_updated_in_before_update_triggersEP5Field
08296f30 T _ZN35Handle_old_incorrect_sql_modes_hook22process_unknown_stringERPcS0_P11st_mem_rootS0_
08297020 T _ZN19Table_triggers_list16process_triggersEP3THD14trg_event_type20trg_action_time_typeb
082970f0 T _ZN19Table_triggers_list30change_table_name_in_trignamesEPKcP13st_lex_stringS3_
082973e0 T _ZN19Table_triggers_list16get_trigger_infoEP3THD14trg_event_type20trg_action_time_typeP13st_lex_stringS5_PmS5_
082974a0 T _ZN19Table_triggers_list25prepare_record1_accessorsEP8st_table
08297560 T _ZN19Table_triggers_list12drop_triggerEP3THDP10TABLE_LISTP6String
082977f0 T _ZN19Table_triggers_listD2Ev
08297860 T _ZN39Handle_old_incorrect_trigger_table_hook22process_unknown_stringERPcS0_P11st_mem_rootS0_
08297960 T _ZN19Table_triggers_list29change_table_name_in_triggersEP3THDPKcP13st_lex_stringS5_
08297bb0 T _ZN19Table_triggers_list14create_triggerEP3THDP10TABLE_LISTP6String
082982b0 T _Z21add_table_for_triggerP3THDP7sp_namebPP10TABLE_LIST
082984c0 T _Z28mysql_create_or_drop_triggerP3THDP10TABLE_LISTb
082989e0 T _ZN19Table_triggers_list12check_n_loadEP3THDPKcS3_P8st_tableb
08299330 T _ZN19Table_triggers_list17change_table_nameEP3THDPKcS3_S3_S3_
082994e0 T _ZN19Table_triggers_list17drop_all_triggersEP3THDPcS2_
08299600 W _ZN35Handle_old_incorrect_sql_modes_hookD0Ev
08299620 W _ZN35Handle_old_incorrect_sql_modes_hookD1Ev
08299630 W _ZN39Handle_old_incorrect_trigger_table_hookD0Ev
08299650 W _ZN39Handle_old_incorrect_trigger_table_hookD1Ev
08299660 T srv_release_mysql_thread_if_suspended
08299730 T srv_set_io_thread_op_info
082997b0 T srv_release_threads
08299860 T srv_conc_force_exit_innodb
08299910 T srv_conc_exit_innodb
08299930 T srv_conc_force_enter_innodb
08299980 T srv_conc_enter_innodb
08299c90 T srv_general_init
08299cc0 T srv_free
08299ce0 T srv_init
0829a810 T srv_boot
0829a8a0 T srv_wake_master_thread
0829a990 T srv_get_thread_type
0829aa80 T srv_get_n_threads
0829ab70 T srv_active_wake_master_thread
0829ac80 T srv_export_innodb_status
0829af90 T srv_printf_innodb_monitor
0829b620 T srv_lock_timeout_and_monitor_thread
0829bc20 T srv_error_monitor_thread
0829bfd0 T srv_suspend_mysql_thread
0829c630 T srv_master_thread
0829d510 T srv_normalize_path_for_win
0829d630 T srv_parse_log_group_home_dirs
0829d6e0 T srv_add_path_separator_if_needed
0829d740 T srv_parse_data_file_paths_and_sizes
0829db20 T innobase_shutdown_for_mysql
0829de90 T innobase_start_or_create_for_mysql
0829fae0 T dict_hdr_get
0829fb40 T dict_boot
082a07d0 T dict_hdr_flush_row_id
082a0860 T dict_hdr_get_new_id
082a0960 T dict_create
082a0ee0 T dict_drop_index_tree
082a1030 T dict_truncate_index_tree
082a1450 T dict_create_or_check_foreign_constraint_tables
082a1aa0 T tab_create_graph_create
082a1bb0 T dict_create_add_foreigns_to_dictionary
082a26e0 T ind_create_graph_create
082a2800 T dict_create_table_step
082a3a60 T dict_create_index_step
082a4cf0 T dict_table_autoinc_peek
082a4d20 T dict_index_get_nth_col_pos
082a4d80 T dict_table_copy_types
082a4df0 T dict_table_referenced_by_foreign_key
082a4e10 T dict_tree_find_index_for_tuple
082a4fb0 T dict_index_name_print
082a5040 T dict_tree_check_search_tuple
082a50d0 T dict_tables_have_same_db
082a5170 T dict_get_db_name_len
082a5280 T dict_print_info_on_foreign_key_in_create_format
082a5750 T dict_col_name_is_reserved
082a57a0 T dict_table_get_index_noninline
082a57e0 T dict_update_statistics_low
082a58e0 T dict_table_print_low
082a5b50 T dict_update_statistics
082a5b70 T dict_is_mixed_table_rec
082a5c20 T dict_casedn_str
082a5d50 T dict_scan_to
082a5e20 T dict_accept
082a5ea0 T dict_table_get_nth_col_noninline
082a5ec0 T dict_index_contains_col_or_prefix
082a5f20 T dict_table_get_nth_col_pos
082a5f40 T dict_table_get_first_index_noninline
082a5f50 T dict_table_col_in_clustered_key
082a5fa0 T dict_index_get_nth_field_pos
082a6010 T dict_index_find_on_id_low
082a6080 T dict_table_get_next_index_noninline
082a6090 T dict_table_change_id_in_cache
082a61a0 T dict_table_add_to_cache
082a68b0 T dict_index_copy_types
082a6bb0 T dict_tree_free
082a6c60 T dict_table_remove_from_cache
082a71f0 T dict_table_LRU_trim
082a72a0 T dict_index_add_col
082a7500 T dict_index_calc_min_rec_len
082a80f0 T dict_init
082a8390 T dict_tree_find_index
082a85a0 T dict_tree_copy_rec_order_prefix
082a8880 T dict_tree_build_node_ptr
082a8d40 T dict_tree_build_data_tuple
082a8ff0 T dict_table_rename_in_cache
082a9aa0 T dict_tree_create
082a9c30 T dict_index_add_to_cache
082aa560 T dict_table_autoinc_initialize
082aa680 T dict_mutex_enter_for_mysql
082aa730 T dict_print_info_on_foreign_keys
082aaaa0 T dict_table_print_by_name
082aac90 T dict_table_print
082aad70 T dict_index_get_if_in_cache
082aaed0 T dict_foreign_parse_drop_constraints
082ab640 T dict_create_foreign_constraints
082ad000 T dict_foreign_add_to_cache
082ad4b0 T dict_table_decrement_handle_count
082ad610 T dict_mutex_exit_for_mysql
082ad650 T dict_table_get_and_increment_handle_count
082ad800 T dict_table_get
082ad9a0 T dict_table_get_on_id
082adc10 T dict_table_autoinc_update
082add60 T dict_table_autoinc_read
082ade70 T dict_table_autoinc_decrement
082adf70 T dict_table_autoinc_get
082ae120 T dict_load_table
082af830 T dict_load_table_on_id
082afe40 T dict_print
082b09a0 T dict_get_first_table_name_in_db
082b27a0 T dict_load_foreigns
082b4b50 T dict_load_sys_table
082b4bf0 T dict_check_tablespaces_and_store_max_id
082b5620 T dict_mem_table_make_cluster_member
082b5640 T dict_mem_index_add_field
082b5670 T dict_mem_table_add_col
082b5750 T dict_mem_table_free
082b57b0 T dict_mem_index_free
082b5800 T dict_mem_foreign_create
082b58e0 T dict_mem_index_create
082b5a20 T dict_mem_table_create
082b5cc0 T dict_mem_cluster_create
082b5d00 T que_graph_publish
082b5d40 T que_thr_handle_error
082b5d80 T que_thr_stop
082b5e30 T que_node_print_info
082b5f60 T que_fork_error_handle
082b6000 T que_thr_end_wait
082b60d0 T que_thr_stop_for_mysql_no_error
082b6170 T que_thr_move_to_run_state_for_mysql
082b6220 T que_thr_end_wait_no_next_thr
082b62c0 T que_fork_create
082b6370 T que_fork_start_command
082b6430 T que_thr_create
082b6500 T que_graph_free_recursive
082b6950 T que_graph_free
082b69b0 T que_graph_try_free
082b6ae0 T que_thr_stop_for_mysql
082b6c20 T que_run_threads
082b74b0 T srv_que_task_enqueue_low
082b7500 T srv_que_round_robin
082b7620 T srv_que_task_queue_check
082b7810 T srv_que_task_enqueue
082b7950 T ibuf_count_get
082b7980 T ibuf_validate_low
082b7a10 T ibuf_inside
082b8160 T ibuf_bitmap_page_init
082b81a0 T ibuf_parse_bitmap_init
082b81d0 T ibuf_update_max_tablespace_id
082b83f0 T ibuf_page_low
082b8450 T ibuf_page
082b8660 T ibuf_init_at_db_start
082ba280 T ibuf_set_free_bits
082ba680 T ibuf_reset_free_bits
082ba6b0 T ibuf_reset_free_bits_with_type
082ba6e0 T ibuf_print
082ba820 T ibuf_is_empty
082baab0 T ibuf_update_free_bits_for_two_pages_low
082bb420 T ibuf_data_init_for_space
082bba60 T ibuf_free_excess_pages
082bc200 T ibuf_update_free_bits_low
082bd8b0 T ibuf_contract_for_n_pages
082bd900 T ibuf_contract
082be0a0 T ibuf_delete_for_discarded_space
082befa0 T ibuf_merge_or_delete_for_page
082bff00 T ibuf_get_volume_buffered
082c2590 T ibuf_insert
082c2f80 T ins_node_set_new_row
082c3410 T ins_node_create
082c4a40 T row_ins_index_entry_low
082c6590 T row_ins_check_foreign_constraint
082c7230 T row_ins_index_entry
082c75d0 T row_ins
082c7950 T row_ins_step
082c7ae0 T row_table_got_default_clust_index
082c7b00 T row_get_background_drop_list_len_low
082c7b40 T row_mysql_read_true_varchar
082c7be0 T row_mysql_store_true_var_len
082c7d60 T row_mysql_read_blob_ref
082c7da0 T row_mysql_store_col_in_innobase_format
082c81e0 T row_update_prebuilt_trx
082c8320 T row_prebuild_sel_graph
082c8370 T row_unlock_table_autoinc_for_mysql
082c8390 T row_mysql_handle_errors
082c8600 T row_mysql_store_blob_ref
082c87b0 T row_get_mysql_key_number_for_index
082c88c0 T row_unlock_for_mysql
082c8b20 T row_lock_table_for_mysql
082c8c40 T row_update_cascade_for_mysql
082c8d90 T row_update_for_mysql
082c92d0 T row_insert_for_mysql
082c9690 T row_lock_table_autoinc_for_mysql
082c97a0 T row_create_update_node_for_mysql
082c9920 T row_get_prebuilt_update_vector
082c9990 T row_mysql_prebuilt_free_blob_heap
082c99f0 T row_create_prebuilt
082c9cc0 T row_mysql_lock_data_dictionary
082c9e10 T row_mysql_unfreeze_data_dictionary
082ca030 T row_mysql_freeze_data_dictionary
082ca210 T row_mysql_unlock_data_dictionary
082ca410 T row_truncate_table_for_mysql
082cb290 T row_import_tablespace_for_mysql
082cb7a0 T row_prebuilt_free
082cbf60 T row_check_table_for_mysql
082cc8f0 T row_rename_table_for_mysql
082cd910 T row_drop_table_for_mysql
082cea10 T row_drop_database_for_mysql
082cef10 T row_drop_tables_for_mysql_in_background
082cf450 T row_table_add_foreign_constraints
082cf5b0 T row_create_index_for_mysql
082cf8f0 T row_create_table_for_mysql
082d0140 T row_discard_tablespace_for_mysql
082d09b0 T row_purge_node_create
082d1460 T row_purge_step
082d2080 T row_search_on_row_ref
082d21a0 T row_get_rec_sys_field
082d2270 T row_build_row_ref_from_row
082d2330 T row_search_index_entry
082d23d0 T row_set_rec_sys_field
082d2490 T row_build
082d27d0 T row_build_index_entry
082d2920 T row_build_row_ref_in_tuple
082d2d10 T row_build_row_ref
082d3090 T row_get_clust_rec
082d31e0 T row_rec_to_index_entry
082d36f0 T row_sel_convert_mysql_key_to_innobase
082d3be0 T row_printf_step
082d3f40 T sel_node_create
082d3fb0 T row_search_check_if_query_cache_permitted
082d41b0 T fetch_step
082d5000 T sel_node_free_private
082d51a0 T sel_col_prefetch_buf_free
082d7760 T row_sel_step
082d79c0 T row_search_for_mysql
082db450 T row_undo_node_create
082db540 T row_undo_search_clust_to_pcur
082db880 T row_undo_step
082dbf70 T row_upd_changes_some_index_ord_field_binary
082dc060 T row_upd_changes_ord_field_binary
082dc140 T row_upd_parse_sys_vals
082dc210 T row_upd_rec_in_place
082dc320 T row_upd_changes_field_size_or_external
082dc550 T row_upd_index_entry_sys_field
082dc610 T row_upd_rec_sys_fields_in_recovery
082dc6e0 T row_upd_index_replace_new_col_vals
082dc860 T row_upd_index_replace_new_col_vals_index_pos
082dc9e0 T upd_node_create
082dcb00 T row_upd_index_parse
082dcd50 T row_upd_build_difference_binary
082dd1c0 T row_upd_build_sec_rec_difference_binary
082dd4d0 T row_upd_index_write_log
082dd9d0 T row_upd_write_sys_vals_to_log
082de520 T row_upd_in_place_in_select
082deb30 T row_upd_step
082dfce0 T row_vers_impl_x_locked_off_kernel
082e09d0 T row_vers_old_has_index_entry
082e0ef0 T row_vers_build_for_consistent_read
082e1500 T row_vers_must_preserve_del_marked
082e18d0 T row_undo_ins
082e2930 T row_undo_mod
082e3640 T pars_cursor_declaration
082e3690 T pars_complete_graph_for_exec
082e3700 T pars_stored_procedure_call
082e3740 T pars_sql
082e3870 T yyerror
082e38d0 T pars_get_lex_chars
082e3940 T pars_rollback_statement
082e3960 T pars_commit_statement
082e3d40 T pars_update_statement_start
082e3d70 T pars_create_index
082e3e50 T pars_create_table
082e3f20 T pars_procedure_definition
082e3ff0 T pars_row_printf_statement
082e4050 T pars_order_by
082e4300 T pars_op
082e4350 T pars_func
082e4370 T pars_return_statement
082e43c0 T pars_column_assignment
082e4520 T pars_column_def
082e4540 T pars_variable_declaration
082e4570 T pars_parameter_declaration
082e5120 T pars_open_statement
082e51f0 T pars_assignment_statement
082e52d0 T pars_for_statement
082e53e0 T pars_while_statement
082e5460 T pars_if_statement
082e5530 T pars_elsif_element
082e55d0 T pars_fetch_statement
082e5750 T pars_procedure_call
082e5790 T pars_insert_statement
082e5ab0 T pars_select_statement
082e5e60 T pars_select_list
082e5ea0 T pars_update_statement
082e6730 T sym_tab_free_private
082e67b0 T sym_tab_add_int_lit
082e6970 T sym_tab_create
082e69f0 T sym_tab_add_id
082e6b40 T sym_tab_add_null_lit
082e6c20 T sym_tab_add_str_lit
082e6dd0 T yyparse
082e8690 T yy_load_buffer_state
082e86d0 T yy_switch_to_buffer
082e8720 T yy_flush_buffer
082e8770 T yy_init_buffer
082e87b0 T yy_delete_buffer
082e8870 T yy_create_buffer
082e88e0 T yyrestart
082e89d0 T yylex
082e9bc0 T opt_print_query_plan
082e9ed0 T opt_find_all_cols
082ea180 T opt_search_plan
082eb160 T btr_root_get
082eb230 T btr_insert_on_non_leaf_level
082eb320 T btr_page_alloc
082eb4e0 T btr_free_root
082eb560 T btr_free_but_not_root
082eb6c0 T btr_set_min_rec_mark
082eb7b0 T btr_parse_set_min_rec_mark
082eb880 T btr_get_size
082ec080 T btr_parse_page_reorganize
082ec0b0 T btr_page_reorganize
082ec700 T btr_page_free_low
082ecaa0 T btr_page_free
082ecae0 T btr_page_get_split_rec_to_right
082ecc00 T btr_page_get_split_rec_to_left
082ecd20 T btr_get_prev_user_rec
082ed3d0 T btr_create
082ed9a0 T btr_index_rec_validate
082ef1a0 T btr_node_ptr_delete
082efe00 T btr_get_next_user_rec
082f3070 T btr_validate_tree
082f31d0 T btr_check_node_ptr
082f3670 T btr_discard_page
082f3d20 T btr_compress
082f53a0 T btr_page_split_and_insert
082f6520 T btr_root_raise_and_insert
082f6a50 T btr_push_update_extern_fields
082f6d10 T btr_cur_mark_extern_inherited_fields
082f6da0 T btr_cur_compress
082f6db0 T btr_cur_mark_dtuple_inherited_extern
082f6e40 T btr_cur_unmark_dtuple_extern_fields
082f6e90 T btr_cur_parse_del_mark_set_sec_rec
082f6fa0 T btr_copy_externally_stored_field
082f7370 T btr_rec_copy_externally_stored_field
082f7460 T btr_cur_parse_del_mark_set_clust_rec
082f76c0 T btr_cur_parse_update_in_place
082f7af0 T btr_cur_optimistic_insert
082f8660 T btr_cur_del_mark_set_clust_rec
082f8d40 T btr_cur_update_in_place
082f9570 T btr_cur_del_mark_set_sec_rec
082fa890 T btr_cur_open_at_rnd_pos
082fada0 T btr_cur_search_to_nth_level
082fbe10 T btr_cur_del_unmark_for_ibuf
082fc310 T btr_cur_optimistic_delete
082fc850 T btr_cur_compress_if_useful
082fcae0 T btr_free_externally_stored_field
082fd2d0 T btr_rec_free_externally_stored_fields
082fd360 T btr_store_big_rec_extern_fields
082fdda0 T btr_estimate_number_of_different_key_vals
082fe840 T btr_cur_open_at_index_side
082ff690 T btr_estimate_n_rows_in_range
082ffa80 T btr_cur_pessimistic_delete
08300400 T btr_cur_optimistic_update
083013e0 T btr_cur_pessimistic_insert
08301d00 T btr_cur_pessimistic_update
08303200 T btr_pcur_create_for_mysql
08303320 T btr_pcur_free_for_mysql
083033e0 T btr_pcur_copy_stored_position
083035e0 T btr_pcur_move_to_next_page
08303bb0 T btr_pcur_release_leaf
08303e40 T btr_pcur_store_position
083046e0 T btr_pcur_restore_position
08304e40 T btr_pcur_move_backward_from_page
083054f0 T btr_pcur_move_to_prev
08305970 T btr_pcur_open_on_user_rec
08305d40 T btr_search_info_create
08305df0 T btr_search_sys_create
08306210 T btr_search_validate
08307350 T btr_search_update_hash_on_insert
083083d0 T btr_search_update_hash_node_on_insert
083089c0 T btr_search_update_hash_on_delete
08309010 T btr_search_guess_on_hash
0830a600 T btr_search_drop_page_hash_index
0830d090 T btr_search_move_or_delete_hash_entries
0830dc10 T btr_search_info_update_slow
0830e900 T btr_search_drop_page_hash_when_freed
0830e9c0 T trx_purge_update_undo_must_exist
0830ea70 T trx_purge_sys_print
0830eb50 T trx_purge_sys_create
0830ef00 T trx_purge_add_update_undo_to_history
0830f260 T trx_purge
0830f930 T trx_purge_rec_release
083116d0 T trx_purge_fetch_next_rec
08312420 T trx_undo_parse_erase_page_end
08312440 T trx_undo_parse_add_undo_rec
08312650 T trx_undo_rec_skip_row_ref
083126f0 T trx_undo_rec_get_row_ref
08312830 T trx_undo_get_undo_rec_low
08312a10 T trx_undo_get_undo_rec
08312a60 T trx_undo_rec_get_partial_row
08312c40 T trx_undo_update_rec_get_update
08313550 T trx_undo_update_rec_get_sys_cols
08313820 T trx_undo_rec_get_pars
08313dd0 T trx_undo_prev_version_build
08315f20 T trx_undo_report_row_operation
08317330 T trx_savept_take
08317410 T trx_finish_rollback_off_kernel
08317560 T trx_roll_try_truncate
083176c0 T roll_node_create
08317720 T trx_undo_arr_free
08317770 T trx_roll_graph_build
08317830 T trx_undo_arr_create
08317930 T trx_rollback
08317af0 T trx_savepoint_for_mysql
08318070 T trx_roll_savepoints_free
08318210 T trx_release_savepoint_for_mysql
083183a0 T trx_rollback_or_clean_all_without_sess
08318dd0 T trx_general_rollback_for_mysql
08319110 T trx_rollback_to_savepoint_for_mysql
08319240 T trx_rollback_last_sql_stat_for_mysql
083192a0 T trx_rollback_for_mysql
083193f0 T trx_rollback_step
083195a0 T trx_undo_rec_release
083196e0 T trx_undo_rec_reserve
083197d0 T trx_roll_pop_top_rec_of_trx
0831a6d0 T trx_rseg_get_on_id
0831aa50 T trx_rseg_list_and_array_init
0831ab00 T trx_rseg_header_create
0831ae70 T trx_rseg_create
0831b060 T trx_doublewrite_page_inside
0831b0c0 T trx_in_trx_list
0831b100 T trx_sys_mark_upgraded_to_multiple_tablespaces
0831b1f0 T trx_sys_print_mysql_binlog_offset_from_page
0831b2c0 T trx_sys_print_mysql_binlog_offset
0831b460 T trx_sys_update_mysql_binlog_offset
0831b610 T trx_sys_flush_max_trx_id
0831b6d0 T trx_sysf_rseg_find_free
0831b770 T trx_sys_print_mysql_master_log_pos
0831b990 T trx_sys_init_at_db_start
0831be10 T trx_sys_create
0831c620 T trx_sys_doublewrite_init_or_restore_pages
0831cb10 T trx_sys_create_doublewrite_buf
0831cfa0 T trx_get_error_info
0831d0d0 T trx_mark_sql_stat_end
0831d260 T trx_commit_complete_for_mysql
0831d360 T trx_print
0831d820 T commit_node_create
0831d870 T trx_sig_reply
0831d960 T trx_end_signal_handling
0831d9a0 T trx_end_lock_wait
0831da90 T trx_cleanup_at_db_startup
0831dbb0 T trx_start_low
0831dd20 T trx_set_detailed_error_from_file
0831dd50 T trx_set_detailed_error
0831dd80 T trx_free
0831e590 T trx_sig_remove
0831e690 T trx_create
0831eb00 T trx_lists_init_at_db_start
0831eea0 T trx_start
0831ef90 T trx_start_if_not_started_noninline
0831efc0 T trx_recover_for_mysql
0831f200 T trx_prepare_off_kernel
0831f640 T trx_prepare_for_mysql
0831f7c0 T trx_get_trx_by_xid
0831f930 T trx_search_latch_release_if_reserved
0831fb00 T trx_free_for_background
0831fbe0 T trx_free_for_mysql
0831fe20 T trx_allocate_for_background
0831ff20 T trx_allocate_for_mysql
08320090 T trx_assign_read_view
083201c0 T trx_commit_off_kernel
08320a80 T trx_commit_for_mysql
08320d40 T trx_sig_start_handle
08321030 T trx_sig_send
083213d0 T trx_commit_step
08321720 T trx_undo_update_cleanup
08321860 T trx_undo_parse_discard_latest
08321b40 T trx_undo_set_state_at_finish
08321c80 T trx_undo_set_state_at_prepare
08322560 T trx_undo_add_page
083226f0 T trx_undo_parse_page_init
08322ae0 T trx_undo_parse_page_header
08322b60 T trx_undo_insert_cleanup
08323160 T trx_undo_assign_undo
083246b0 T trx_undo_get_first_rec
08324a20 T trx_undo_get_next_rec
08324cf0 T trx_undo_get_prev_rec
083253c0 T trx_undo_lists_init
08326070 T trx_undo_truncate_start
08326a10 T trx_undo_truncate_end
08327320 T read_view_close
083273f0 T read_view_print
083274e0 T read_view_open_now
083276c0 T read_view_oldest_copy_or_open_new
08327940 T read_view_close_for_mysql
08327b60 T read_cursor_set_for_mysql
08327cf0 T read_cursor_view_close_for_mysql
08327f70 T read_cursor_view_create_for_mysql
08328330 T sess_try_close
08328390 T sess_open
083284c0 T buf_calc_page_new_checksum
08328540 T buf_calc_page_old_checksum
08328590 T buf_page_init_for_backup_restore
08328640 T buf_get_n_pending_ios
08328670 T buf_block_print
083287e0 T buf_refresh_io_stats
08328840 T buf_frame_alloc
08328850 T buf_page_is_corrupted
08328b00 T buf_page_print
083292a0 T buf_pool_check_no_pending_io
083293d0 T buf_get_free_list_len
083294b0 T buf_page_reset_file_page_was_freed
08329660 T buf_page_set_file_page_was_freed
08329810 T buf_page_peek_if_search_hashed
083299c0 T buf_reset_check_index_page_at_flush
08329b70 T buf_page_peek_block
08329d10 T buf_page_peek
08329d40 T buf_page_make_young
08329f40 T buf_awe_map_page_to_frame
0832a2b0 T buf_pool_init
0832aae0 T buf_all_freed
0832ad50 T buf_print_io
0832b0c0 T buf_get_modified_ratio_pct
0832b1e0 T buf_get_latched_pages_number
0832b420 T buf_validate
0832bdc0 T buf_print
0832c460 T buf_print_diagnostic
0832c4f0 T buf_pool_invalidate
0832c5e0 T buf_page_io_complete
0832cd40 T buf_page_optimistic_get_func
0832da90 T buf_page_get_gen
0832e890 T buf_page_create
0832ee90 T buf_page_get_known_nowait
0832f6c0 T buf_page_init_for_read
0832fde0 T buf_frame_free
083300b0 T buf_flush_insert_sorted_into_flush_list
083301a0 T buf_flush_insert_into_flush_list
08330260 T buf_flush_wait_batch_end
08330280 T buf_flush_write_complete
08330440 T buf_flush_ready_for_replace
083304f0 T buf_flush_init_for_writing
08330d40 T buf_flush_validate
08332970 T buf_flush_batch
08332f10 T buf_flush_free_margin
083332a0 T buf_LRU_block_free_non_file_page
08333540 T buf_LRU_get_recent_limit
08333670 T buf_LRU_print
08333950 T buf_LRU_validate
08334280 T buf_LRU_buf_pool_running_out
08334730 T buf_LRU_add_block
08334b90 T buf_LRU_make_block_old
083354f0 T buf_LRU_make_block_young
08336b10 T buf_LRU_search_and_free_block
08337080 T buf_LRU_try_free_flushed_blocks
083371c0 T buf_LRU_get_free_block
08337a80 T buf_LRU_invalidate_tablespace
08338140 T buf_read_recv_pages
08338260 T buf_read_ibuf_merge_pages
08338370 T buf_read_page
08338840 T buf_read_ahead_linear
08338e80 T eval_node_alloc_val_buf
08339000 T eval_node_free_val_buf
083390c0 T eval_cmp
083391b0 T eval_func
08339df0 T return_step
08339e50 T while_step
08339ec0 T if_step
08339fa0 T for_step
0833a120 T assign_step
0833a1c0 T log_group_get_capacity
0833a230 T log_refresh_stats
0833a3b0 T log_group_set_fields
0833a3f0 T log_group_read_checkpoint_info
0833a450 T log_preflush_pool_modified_pages
0833a560 T log_group_read_log_seg
0833a680 T log_calc_where_lsn_is
0833a850 T log_checkpoint_get_nth_group_info
0833a8b0 T log_write_low
0833aa70 T log_group_write_buf
0833ae90 T log_reset_first_header_and_checkpoint
0833b190 T log_groups_write_checkpoint_info
0833b560 T log_check_log_recs
0833b910 T log_print
0833baf0 T log_peek_lsn
0833bb80 T log_write_up_to
0833c320 T log_buffer_flush_to_disk
0833c460 T log_init
0833cb30 T log_group_init
0833d2e0 T log_reserve_and_open
0833d470 T log_close
0833d710 T log_io_complete
0833ddd0 T log_checkpoint
0833e6e0 T log_check_margins
0833ecf0 T log_make_checkpoint_at
0833ed50 T logs_empty_and_mark_files_at_shutdown
0833f600 T log_fsp_current_free_limit_set_and_checkpoint
08340430 T recv_check_incomplete_log_recs
08340770 T recv_scan_log_seg_for_backup
08340b90 T recv_sys_create
08340d10 T recv_read_cp_info_for_backup
08341090 T recv_reset_logs
083415e0 T recv_sys_init
08341950 T recv_recover_page
08342850 T recv_apply_log_recs_for_backup
08342cb0 T recv_apply_hashed_log_recs
08343670 T recv_recovery_from_checkpoint_finish
083438a0 T recv_scan_log_recs
08344650 T recv_recovery_from_checkpoint_start
08345c70 T fsp_get_size_low
08345ca0 T fsp_init
08345cb0 T fsp_header_write_space_id
08346250 T fsp_header_get_space_id
08346b90 T fsp_parse_init_file_page
08346bf0 T fseg_n_reserved_pages
08346dc0 T fsp_header_get_tablespace_size
08346f80 T fsp_header_get_free_limit
08347140 T fseg_print
08348220 T fseg_validate
083483e0 T fsp_get_available_space_in_free_extents
08348620 T fsp_header_inc_size
08348730 T fsp_print
08349370 T fsp_validate
0834b650 T fsp_header_init
0834dfb0 T fseg_free_step_not_header
0834e520 T fseg_free_step
0834ec90 T fseg_free
0834ed50 T fseg_free_page
08350600 T fsp_reserve_free_extents
08350b10 T fseg_alloc_free_page_general
08350ea0 T fseg_alloc_free_page
08350ed0 T fseg_create_general
08351c40 T fseg_create
08351c70 T flst_print
08351fa0 T flst_validate
083529d0 T flst_truncate_end
08352d00 T flst_cut_end
083531a0 T flst_remove
083537f0 T flst_insert_before
08353eb0 T flst_add_first
08354260 T flst_insert_after
08354920 T flst_add_last
08354d10 T fil_addr_is_null
08354d20 T fil_page_set_type
08355c20 T fil_ibuf_init_at_db_start
08355d10 T fil_page_get_type
08355d30 T fil_page_get_next
08355d60 T fil_page_get_prev
08355d90 T fil_read_flushed_lsn_and_arch_log_no
083567a0 T fil_reset_too_high_lsns
08357060 T fil_init
08357350 T fil_validate
08357b60 T fil_space_get_latch
08357cd0 T fil_space_get_version
08357e00 T fil_space_truncate_start
08358020 T fil_space_get_ibuf_data
08358210 T fil_space_get_type
08358380 T fil_decr_pending_ibuf_merges
083584c0 T fil_inc_pending_ibuf_merges
08358630 T fil_set_max_space_id_if_bigger
083587c0 T fil_close_all_files
083588f0 T fil_open_log_and_system_tablespace_files
08358aa0 T fil_space_free
08359220 T fil_flush
083597c0 T fil_flush_file_spaces
08359ee0 T fil_space_get_size
0835a070 T fil_check_adress_in_tablespace
0835a090 T fil_aio_wait
0835a2f0 T fil_io
0835a900 T fil_write
0835a950 T fil_read
0835a9a0 T fil_write_flushed_lsn_to_data_files
0835ae80 T fil_space_get_n_reserved_extents
0835aff0 T fil_space_release_free_extents
0835b1e0 T fil_space_reserve_free_extents
0835b370 T fil_extend_space_to_desired_size
0835b9c0 T fil_space_for_table_exists_in_mem
0835bef0 T fil_tablespace_exists_in_mem
0835c040 T fil_tablespace_deleted_or_being_deleted_in_mem
0835c1c0 T fil_print_orphaned_tablespaces
0835c340 T fil_delete_tablespace
0835cbf0 T fil_discard_tablespace
0835cc40 T fil_space_create
0835d520 T fil_node_create
0835dbc0 T fil_load_single_table_tablespaces
0835e630 T fil_open_single_table_tablespace
0835e8a0 T fil_create_new_single_table_tablespace
0835f690 T fil_rename_tablespace
08360010 T fil_op_log_parse_or_replay
08360370 T lock_get_size
083606c0 T lock_clust_rec_cons_read_sees
08360840 T lock_is_on_table
08360880 T lock_table_print
08360ab0 T lock_check_trx_id_sanity
08360ca0 T lock_sys_create
08360e30 T lock_print_info_summary
08360fa0 T lock_is_table_exclusive
08361000 T lock_get_src_table
083612b0 T lock_table_queue_validate
083615e0 T lock_rec_expl_exist_on_page
08361860 T lock_rec_print
08361d60 T lock_print_info_all_transactions
08362720 T lock_reset_all_on_table
08362ce0 T lock_cancel_waiting_and_release
08363310 T lock_table
08363be0 T lock_release_off_kernel
08363df0 T lock_table_unlock_auto_inc
08363e40 T lock_table_unlock
08364150 T lock_sec_rec_some_has_impl_off_kernel
08364320 T lock_sec_rec_cons_read_sees
083653b0 T lock_move_rec_list_start
083658d0 T lock_move_rec_list_end
08365de0 T lock_move_reorganize_page
083666b0 T lock_rec_inherit_to_gap
08366ac0 T lock_update_split_left
08366fb0 T lock_update_delete
08367000 T lock_update_discard
083673b0 T lock_rec_reset_and_inherit_gap_locks
08367400 T lock_update_merge_right
08368450 T lock_clust_rec_read_check_and_lock
083684e0 T lock_clust_rec_read_check_and_lock_alt
083685c0 T lock_sec_rec_read_check_and_lock
083687a0 T lock_sec_rec_modify_check_and_lock
08368970 T lock_clust_rec_modify_check_and_lock
083689e0 T lock_rec_insert_check_and_lock
08369110 T lock_rec_unlock
08369e80 T lock_rec_restore_from_page_infimum
08369ef0 T lock_rec_store_on_page_infimum
08369f60 T lock_update_merge_left
0836a010 T lock_update_copy_and_discard
0836a080 T lock_update_root_raise
0836a0e0 T lock_update_split_right
0836a190 T lock_update_insert
0836aa50 T lock_rec_queue_validate
0836ba80 T lock_rec_validate_page
0836bec0 T lock_validate
0836c090 T mtr_start_noninline
0836c0e0 T mtr_read_ulint
0836c130 T mtr_read_dulint
0836c1a0 T mtr_print
0836cb50 T mtr_memo_release
0836cc20 T mtr_rollback_to_savepoint
0836ccd0 T mtr_commit
0836d150 T mlog_catenate_string
0836d210 T mlog_parse_initial_log_record
0836d290 T mlog_parse_index
0836d490 T mlog_parse_nbytes
0836d720 T mlog_parse_string
0836d820 T mlog_write_dulint
0836dee0 T mlog_write_ulint
0836e580 T mlog_write_initial_log_record
0836ea10 T mlog_open_and_write_index
0836f5e0 T mlog_write_string
0836fbf0 T page_header_print
0836fd40 T page_rec_write_index_page_no
0836fd80 T page_set_max_trx_id
08370010 T page_create
08370770 T page_parse_create
083707a0 T page_rec_print
08370b80 T page_dir_find_owner_slot
08370fa0 T page_check_dir
083711d0 T page_mem_alloc
08371680 T page_rec_get_n_recs_before
083719c0 T page_dir_print
08371c80 T page_get_middle_rec
083721c0 T page_find_rec_with_heap_no
083723e0 T page_simple_validate
08372ca0 T page_dir_split_slot
08373300 T page_delete_rec_list_start
08373670 T page_dir_balance_slot
083740c0 T page_print_list
083746b0 T page_print
08374700 T page_rec_validate
08374b00 T page_validate
08376310 T page_copy_rec_list_start
08376f10 T page_move_rec_list_start
08376f70 T page_copy_rec_list_end_no_locks
08377830 T page_copy_rec_list_end
083779e0 T page_delete_rec_list_end
08378bf0 T page_move_rec_list_end
08378d10 T page_parse_delete_rec_list
083797c0 T page_cur_delete_rec
0837a280 T page_cur_parse_delete_rec
0837a400 T page_copy_rec_list_end_to_created_page
0837b1c0 T page_cur_insert_rec_low
0837bf60 T page_cur_parse_insert_rec
0837ca00 T page_parse_copy_rec_list_to_created_page
0837cb10 T page_cur_open_on_rnd_user_rec
0837ceb0 T page_cur_search_with_match
0837dcb0 T rec_set_nth_field_null_bit
0837dd40 T rec_get_nth_field_old
0837dee0 T rec_set_nth_field_extern_bit_new
0837e010 T rec_set_nth_field_extern_bit_old
0837e190 T rec_set_field_extern_bits
0837e220 T rec_get_converted_size_new
0837e340 T rec_set_nth_field_sql_null
0837e430 T rec_get_offsets_func
0837e8b0 T rec_copy_prefix_to_dtuple
0837ed40 T rec_print_old
0837ef40 T rec_validate
0837f2d0 T rec_print_new
0837f490 T rec_print
0837f570 T rec_copy_prefix_to_buf
0837fb30 T rec_convert_dtuple_to_rec
083805c0 T cmp_dtuple_rec_with_match
08380880 T cmp_dtuple_is_prefix_of_rec
08380910 T cmp_dtuple_rec
08380950 T cmp_types_are_equal
08380a20 T cmp_data_data_slow
08380c10 T cmp_rec_rec_with_match
08380fd0 T thr_local_init
08381090 T thr_local_free
08381320 T thr_local_create
083816c0 T thr_local_get_in_ibuf_field
083817b0 T thr_local_set_slot_no
083818b0 T thr_local_get_slot_no
08381e60 T sync_array_print_info
08381ee0 T sync_array_object_signalled
08381f00 T sync_array_free_cell
08382000 T sync_array_validate
083820a0 T sync_array_print_long_waits
08382280 T sync_arr_wake_threads_if_sema_free
08382360 T sync_array_wait_event
08382500 T sync_array_reserve_cell
083826e0 T sync_array_free
083827e0 T sync_array_create
08382960 T rw_lock_set_level
08382970 T rw_lock_is_locked
08382ae0 T rw_lock_s_lock_spin
08382de0 T rw_lock_validate
08383170 T rw_lock_free
08383560 T rw_lock_create_func
083837d0 T rw_lock_x_lock_func
08383f20 T rw_lock_x_lock_move_ownership
08384020 T mutex_set_waiters
08384030 T mutex_set_level
083840a0 T sync_print_wait_info
08384100 T sync_print
08384130 T mutex_validate
08384370 T mutex_signal_object
083843b0 T mutex_enter_nowait
08384440 T mutex_spin_wait
083846b0 T mutex_create_func
083848e0 T sync_init
08384a90 T mutex_enter_noninline
08384b30 T mutex_exit_noninline
08384b70 T sync_thread_reset_level
08384d50 T sync_thread_add_level
08386410 T sync_thread_levels_empty_gen
083865d0 T sync_thread_levels_empty
083865f0 T mutex_free
08386990 T sync_close
083869e0 T dfield_set_data_noninline
08386a00 T dfield_get_data_noninline
08386a10 T dfield_get_len_noninline
08386a20 T dtuple_get_nth_field_noninline
08386a40 T dtuple_set_n_fields
08386a60 T dtuple_free_for_mysql
08386ab0 T dfield_check_typed
08386b20 T dtuple_create_for_mysql
08386bf0 T dtuple_print
08386cb0 T dtuple_check_typed_no_assert
08386da0 T dfield_data_is_binary_equal
08386df0 T dtuple_get_n_fields_noninline
08386e00 T dtuple_check_typed
08386ea0 T dtuple_datas_are_ordering_equal
08386f20 T dfield_print
083870c0 T dfield_print_also_hex
083872c0 T dtuple_big_rec_free
08387310 T dtuple_convert_back_big_rec
083873c0 T dtuple_convert_big_rec
08387bf0 T dtype_is_string_type
08387c20 T dtype_is_binary_string_type
08387c50 T dtype_is_non_binary_string_type
08387c90 T dtype_get_charset_coll_noninline
08387ca0 T dtype_validate
08387e60 T dtype_form_prtype
08387f50 T dtype_print
083882e0 T dtype_get_at_most_n_mbchars
08388410 T mach_parse_compressed
08388520 T mach_dulint_parse_compressed
08388670 T ha_print_info
08388700 T ha_validate
083888e0 T ha_create
08388ba0 T ha_search_and_update_if_found
08388e70 T ha_delete_hash_node
08389190 T ha_remove_all_nodes_to_page
08389290 T ha_delete
08389340 T ha_insert_for_fold
083896d0 T hash_create_mutexes
08389900 T hash_table_free
083899b0 T hash_mutex_exit
08389a00 T hash_mutex_enter
08389ab0 T hash_mutex_enter_all
08389b80 T hash_mutex_exit_all
08389be0 T hash0_create
08389d70 T dyn_array_add_block
08389eb0 T mem_field_header_set_len
08389ee0 T mem_field_header_get_len
08389f10 T mem_field_header_set_check
08389f40 T mem_field_trailer_set_check
08389f90 T mem_field_trailer_get_check
08389fd0 T mem_field_init
0838a060 T mem_field_erase
0838a070 T mem_heap_free_block_free
0838a0a0 T mem_heap_check
0838a1b0 T mem_print_new_info
0838a1c0 T mem_print_info
0838a1d0 T mem_analyze_corruption
0838a380 T mem_heap_block_free
0838a480 T mem_heap_create_block
0838a580 T mem_heap_add_block
0838a690 T mem_alloc_func_noninline
0838a7d0 T mem_heap_validate_or_print
0838a8e0 T mem_heap_print
0838a9b0 T mem_heap_validate
0838aa70 T mem_init
0838aa90 T mem_field_header_get_check
0838aac0 T mem_heap_strdup
0838ab40 T mem_pool_mutex_exit
0838add0 T mem_pool_create
0838af80 T mem_pool_mutex_enter
0838b030 T mem_pool_get_reserved
0838b110 T mem_pool_validate
0838b630 T mem_pool_print_info
0838b7d0 T mem_area_free
0838bd20 T mem_area_alloc
0838c110 T ut_dulint_sort
0838c2e0 T ut_dbg_stop_thread
0838c340 T ut_dbg_assertion_failed
0838c3f0 T ut_strcpyq
0838c430 T ut_memcpyq
0838c490 T ut_strlcpy_rev
0838c4f0 T ut_free_all_mem
0838c6f0 T ut_free
0838c8c0 T ut_test_malloc
0838c940 T ut_malloc_low
0838cb00 T ut_malloc
0838cb30 T ut_realloc
0838cc30 T ut_strlcpy
0838cc90 T ut_find_prime
0838cdb0 T ut_get_high32
0838cdd0 T ut_delay
0838ce10 T ut_ulint_sort
0838cf70 T ut_2_power_up
0838cf90 T ut_copy_file
0838d030 T ut_print_namel
0838d0f0 T ut_print_filename
0838d170 T ut_print_name
0838d1b0 T ut_print_buf
0838d2c0 T ut_time
0838d2e0 T ut_get_year_month_day
0838d330 T ut_print_timestamp
0838d3c0 T ut_sprintf_timestamp_without_extra_chars
0838d450 T ut_sprintf_timestamp
0838d4e0 T ut_difftime
0838d4f0 T ut_usectime
0838d520 T ut_clock
0838d550 T os_awe_enable_lock_pages_in_mem
0838d560 T os_awe_allocate_physical_mem
0838d570 T os_awe_allocate_virtual_mem_window
0838d580 T os_awe_map_physical_mem_to_window
0838d590 T os_process_set_priority_boost
0838d5a0 T os_mem_free_large
0838d5e0 T os_mem_alloc_large
0838d720 T os_mem_alloc_nocache
0838d730 T os_proc_get_number
0838d740 T os_fast_mutex_unlock
0838d750 T os_fast_mutex_lock
0838d760 T os_mutex_exit
0838d840 T os_mutex_enter
0838d8c0 T os_fast_mutex_free
0838d9c0 T os_fast_mutex_init
0838da80 T os_event_reset
0838db10 T os_event_free
0838dcf0 T os_mutex_free
0838e030 T os_sync_free
0838e0b0 T os_event_wait
0838e130 T os_event_wait_time
0838e150 T os_event_set
0838e250 T os_event_create
0838e370 T os_mutex_create
0838e430 T os_sync_init
0838e480 T os_thread_eq
0838e4a0 T os_thread_pf
0838e4b0 T os_thread_set_priority
0838e4c0 T os_thread_get_priority
0838e4d0 T os_thread_get_last_error
0838e4e0 T os_thread_sleep
0838e530 T os_thread_yield
0838e540 T os_thread_get_curr
0838e550 T os_thread_get_curr_id
0838e560 T os_thread_exit
0838e5a0 T os_thread_create
0838e650 T os_aio_refresh_stats
0838e690 T os_get_os_version
0838eba0 T os_aio_validate
0838ebe0 T os_aio_print
0838f1c0 T os_aio_simulated_put_read_threads_to_sleep
0838f220 T os_aio_wait_until_no_pending_writes
0838f3b0 T os_aio_simulated_wake_handler_threads
0838f470 T os_aio_wake_all_threads_at_shutdown
0838f630 T os_io_init_simple
0838f670 T os_aio_init
0838f8d0 T os_file_get_last_error
0838fbf0 T os_file_get_status
0838fcd0 T os_file_status
0838fda0 T os_file_write
0838ff40 T os_file_read_string
08390070 T os_file_read_no_error_handling
083900d0 T os_file_read
083901c0 T os_aio
083904f0 T os_file_flush
083905b0 T os_file_set_eof
08390600 T os_file_get_size
08390650 T os_file_get_size_as_iblonglong
083906a0 T os_file_close_no_error_handling
083906c0 T os_file_close
08390700 T os_file_rename
08390740 T os_file_delete
08390770 T os_file_delete_if_exists
083907b0 T os_file_set_nocache
08390940 T os_file_create
08390c60 T os_file_create_simple_no_error_handling
08390dc0 T os_file_create_directory
08390e20 T os_file_closedir
08390e50 T os_file_opendir
08390ea0 T os_file_create_tmpfile
08390f70 T os_file_readdir_next_file
08391250 T os_file_set_size
08391510 T os_aio_simulated_handle
08391ee0 T os_file_dirname
083922a0 T os_file_create_subdirs_if_needed
083923e0 T os_file_create_simple
083925b0 T mi_safe_mul
08392640 T mi_setup_functions
08392880 T my_n_base_info_read
08392c50 T mi_keydef_read
08392d00 T mi_keyseg_read
08392df0 T mi_uniquedef_read
08392e20 T mi_recinfo_read
08392e70 T mi_disable_indexes
08392e90 T mi_indexes_are_disabled
08392f30 T mi_enable_indexes
08392fc0 T mi_open_keyfile
08393000 T mi_open_datafile
08393040 T mi_recinfo_write
083930a0 T mi_uniquedef_write
083930f0 T mi_keyseg_write
083931b0 T mi_keydef_write
08393230 T mi_base_info_write
083934b0 T mi_state_info_read
08393c70 T mi_state_info_read_dsk
08393d20 T mi_state_info_write
08394450 T mi_alloc_rec_buff
08394540 T test_if_reopen
083945a0 T mi_open
08395eb0 T mi_extra
08396960 T mi_position
08396980 T mi_report_error
083969c0 T mi_status
08396c80 T mi_rkey
083971c0 T mi_rnext
08397580 T mi_rnext_same
08397870 T _mi_kpos
08397a00 T _mi_dpos
08397bd0 T _mi_keylength
08397c70 T _mi_keylength_part
08397cf0 T _mi_calc_static_key_length
08397d10 T _mi_calc_var_key_length
08397d40 T _mi_calc_var_pack_key_length
08398500 T _mi_calc_bin_pack_key_length
08398700 T _mi_store_bin_pack_key
083987b0 T _mi_store_static_key
083987d0 T _mi_move_key
08398820 T _mi_get_static_key
08398870 T _mi_store_var_pack_key
08398a70 T _mi_search_first
08398be0 T _mi_get_last_key
08398ce0 T _mi_search_last
08398e80 T _mi_get_key
08398f50 T _mi_get_binary_pack_key
083991a0 T _mi_get_pack_key
08399520 T _mi_dpointer
08399680 T _mi_rec_pos
083998e0 T _mi_kpointer
083999c0 T _mi_prefix_search
0839a220 T _mi_seq_search
0839a3a0 T _mi_bin_search
0839a4f0 T _mi_search
0839aad0 T _mi_search_next
0839adc0 T _mi_check_index
0839ae80 T _mi_new
0839b030 T _mi_dispose
0839b120 T _mi_write_keypage
0839b280 T _mi_fetch_keypage
0839b3c0 T retrieve_auto_increment
0839b530 T _mi_pack_key
0839b950 T _mi_read_key_record
0839be50 T _mi_make_key
0839c3b0 T mi_get_status
0839c3f0 T mi_restore_status
0839c410 T mi_copy_status
0839c430 T mi_check_status
0839c480 T _mi_mark_file_changed
0839c530 T _mi_test_if_changed
0839c5e0 T _mi_writeinfo
0839c700 T _mi_readinfo
0839c840 T mi_update_status
0839c8e0 T mi_lock_database
0839cf50 T _mi_decrement_open_count
0839d030 T mi_rrnd
0839d130 T mi_scan
0839d180 T mi_scan_init
0839d1e0 T _mi_read_static_record
0839d300 T _mi_read_rnd_static_record
0839d720 T _mi_cmp_static_unique
0839d7c0 T _mi_cmp_static_record
0839d8a0 T _mi_delete_static_record
0839d950 T _mi_update_static_record
0839d9b0 T _mi_write_static_record
0839e420 T save_pack_length
0839e480 T read_pack_length
0839e4e0 T calc_pack_length
0839e510 T _mi_unmap_file
0839e540 T _mi_pack_rec_unpack
0839e5f0 T _mi_memmap_file
0839e960 T _mi_pack_get_block_info
0839ead0 T _mi_read_pack_record
0839ec60 T _mi_read_rnd_pack_record
0839ee30 T _mi_read_pack_info
083a05d0 T _mi_calc_blob_length
083a0620 T _my_calc_total_blob_length
083a0680 T _my_store_blob_length
083a06d0 T _mi_get_block_info
083a0ed0 T _mi_rec_check
083a11b0 T _mi_rec_pack
083a1540 T _mi_cmp_dynamic_record
083a18b0 T _mi_rec_unpack
083a1d10 T _mi_read_rnd_dynamic_record
083a22b0 T _mi_read_dynamic_record
083a25a0 T _mi_cmp_dynamic_unique
083a29c0 T _mi_write_part_record
083a33a0 T _mi_write_blob_record
083a3430 T _mi_write_dynamic_record
083a3c00 T _mi_update_blob_record
083a3cb0 T _mi_update_dynamic_record
083a3d00 T _mi_delete_dynamic_record
083a3d20 T mi_update
083a4850 T mi_end_bulk_insert
083a48c0 T mi_flush_bulk_insert
083a48f0 T mi_init_bulk_insert
083a4b90 T _mi_find_half_pos
083a4c80 T _mi_ck_write_tree
083a4cd0 T _mi_enlarge_root
083a4e70 T _mi_split_page
083a5290 T _mi_insert
083a6320 T _mi_ck_real_write_btree
083a63d0 T _mi_ck_write_btree
083a65e0 T _mi_ck_write
083a6650 T mi_write
083a6d70 T mi_unique_hash
083a6f00 T mi_unique_comp
083a7100 T mi_check_unique
083a9710 T _mi_ck_delete
083a9770 T mi_delete
083a9b30 T mi_rprev
083a9eb0 T mi_rfirst
083a9ee0 T mi_rlast
083a9f10 T mi_panic
083aa160 T mi_close
083aa4b0 T mi_get_pointer_length
083aa530 T mi_create
083ac340 T mi_records_in_range
083ac560 T mi_static_checksum
083ac590 T mi_checksum
083ac670 T _myisam_log_record
083ac8c0 T _myisam_log_command
083aca20 T _myisam_log
083acb80 T mi_log
083acc70 T mi_delete_all_rows
083acec0 T mi_delete_table
083acf80 T mi_rename
083ad0a0 T lock_memory
083ad0b0 T update_key_parts
083ad290 T mi_disable_non_unique_index
083ad340 T mi_test_if_sort_rep
083ad440 T update_state_info
083ad620 T update_auto_increment_key
083ad860 T myisamchk_init
083ad920 T write_data_suffix
083ada00 T test_if_almost_full
083adb30 T recreate_table
083ae370 T flush_pending_blocks
083ae910 T sort_ft_buf_flush
083aeaf0 T sort_write_record
083aef70 T chk_status
083b0f50 T filecopy
083b1200 T lock_file
083b12a0 T change_to_newfile
083b1730 T mi_sort_index
083b2570 T flush_blocks
083b2600 T mi_repair_parallel
083b3a70 T mi_repair_by_sort
083b4c30 T movepoint
083b4e70 T mi_repair
083b5e60 T chk_size
083b6300 T chk_data_link
083b7e40 T chk_key
083b8d90 T chk_del
083b9360 T mi_assign_to_key_cache
083b9460 T mi_change_key_cache
083b94f0 T mi_preload
083b97d0 T ft_parse_init
083b9860 T ft_simple_get_word
083b9980 T ft_parse
083b9a50 T ft_get_word
083b9da0 T ft_boolean_check_syntax_string
083b9e50 T ft_linearize
083b9fb0 T ft_free_stopwords
083ba010 T is_stopword
083ba0b0 T ft_init_stopwords
083ba320 T ft_init_search
083ba3a0 T _mi_ft_segiterator_init
083ba3e0 T _mi_ft_segiterator_dummy_init
083ba410 T _mi_ft_convert_to_ft2
083ba640 T _ft_make_key
083ba840 T _mi_ft_segiterator
083ba930 T _mi_ft_cmp
083baa20 T _mi_ft_parse
083baad0 T _mi_ft_parserecord
083bab40 T _mi_ft_del
083babb0 T _mi_ft_add
083bac20 T _mi_ft_update
083baf80 T ft_boolean_get_relevance
083bb3c0 T ft_boolean_reinit_search
083bb560 T ft_boolean_close_search
083bb860 T ft_boolean_find_relevance
083bbb60 T ft_boolean_read_next
083bc0d0 T ft_init_boolean_search
083bc410 T ft_nlq_find_relevance
083bc4e0 T ft_nlq_get_relevance
083bc500 T ft_nlq_reinit_search
083bc510 T ft_nlq_close_search
083bc520 T ft_nlq_read_next
083bc5a0 T ft_init_nlq_search
083bd940 T thr_write_keys
083be2b0 T thr_find_all_keys
083be8c0 T _create_index_by_sort
083bf1e0 T rtree_estimate
083c0040 T rtree_delete
083c0400 T rtree_insert
083c0700 T rtree_get_next
083c0830 T rtree_get_first
083c0bb0 T rtree_find_first
083c0ca0 T rtree_find_next
083c0e20 T rtree_set_key_mbr
083c0ec0 T rtree_delete_key
083c0f80 T rtree_add_key
083c10a0 T rtree_key_cmp
083c2420 T rtree_rect_volume
083c2920 T rtree_d_mbr
083c2ea0 T rtree_combine_rect
083c3c50 T rtree_overlapping_area
083c4750 T rtree_area_increase
083c5300 T rtree_perimeter_increase
083c5f00 T rtree_page_mbr
083c72a0 T rtree_split_page
083c7cd0 T sp_make_key
083c7e60 T _mi_read_cache
083c8150 T _mi_print_key
083c8670 T myrg_open
083c8d20 T myrg_extrafunc
083c8d60 T myrg_extra
083c8e30 T myrg_position
083c8e70 T myrg_status
083c8fb0 T myrg_lock_database
083c9000 T myrg_rrnd
083c91f0 T myrg_update
083c9220 T myrg_delete
083c9250 T myrg_panic
083c92d0 T myrg_close
083c93c0 T myrg_create
083c9590 T myrg_rkey
083c9700 T myrg_rfirst
083c97c0 T myrg_rlast
083c9880 T myrg_rnext
083c9930 T myrg_rprev
083c99e0 T _myrg_mi_read_record
083c9a30 T _myrg_init_queue
083c9bd0 T myrg_write
083c9c30 T myrg_records_in_range
083c9cb0 T myrg_rnext_same
083c9d60 T hp_find_named_heap
083c9db0 T heap_open
083c9ed0 T heap_extra
083c9f60 T hp_close
083c9fe0 T heap_close
083ca020 T heap_panic
083ca0b0 T heap_position
083ca0d0 T heap_info
083ca140 T heap_rrnd
083ca1e0 T heap_scan_init
083ca210 T heap_scan
083ca2e0 T heap_update
083ca5d0 T hp_write_key
083ca990 T hp_rb_write_key
083caa60 T heap_write
083cac90 T hp_delete_key
083caf50 T hp_rb_delete_key
083caff0 T heap_delete
083cb210 T hp_free
083cb280 T heap_delete_table
083cb2f0 T heap_create
083cb8e0 T heap_rename
083cb970 T heap_rfirst
083cba60 T heap_rnext
083cbc30 T heap_rlast
083cbd10 T heap_rprev
083cbec0 T heap_enable_indexes
083cbf00 T heap_indexes_are_disabled
083cbf30 T hp_clear_keys
083cbfe0 T heap_disable_indexes
083cc020 T hp_clear
083cc0a0 T heap_clear_keys
083cc0c0 T heap_clear
083cc0e0 T heap_find
083cc110 T heap_rkey
083cc2d0 T hp_find_block
083cc310 T hp_free_level
083cc3d0 T hp_get_new_block
083cc510 T hp_mask
083cc530 T hp_movelink
083cc550 T hp_hashnr
083cc720 T hp_rec_hashnr
083cc900 T hp_rb_key_length
083cc910 T hp_rb_null_key_length
083cc960 T hp_rb_var_key_length
083cc9d0 T hp_if_null_in_key
083cca20 T heap_update_auto_increment
083ccc20 T hp_rb_pack_key
083cce30 T hp_make_key
083ccf20 T hp_rb_make_key
083cd1f0 T hp_key_cmp
083cd490 T hp_rec_key_cmp
083cd710 T hp_search_next
083cd790 T hp_search
083cd9d0 T hp_rb_records_in_range
083cdaf0 T hp_rectest
083cdb40 T vio_end
083cdb50 T vio_delete
083cdd40 T vio_new
083cdde0 T vio_reset
083cde30 T vio_is_blocking
083cde50 T vio_description
083cde60 T vio_type
083cde70 T vio_fd
083cde80 T vio_timeout
083cded0 T vio_keepalive
083cdf30 T vio_fastsend
083cdfc0 T vio_poll_read
083ce020 T vio_in_addr
083ce040 T vio_peer_addr
083ce0d0 T vio_close
083ce130 T vio_was_interrupted
083ce160 T vio_should_retry
083ce190 T vio_errno
083ce1a0 T vio_blocking
083ce230 T vio_write
083ce250 T vio_read
083ce280 T vio_read_buff
083ce360 T vio_ssl_blocking
083ce3d0 T sslconnect
083ce4c0 T sslaccept
083ce4d0 T vio_ssl_close
083ce520 T vio_ssl_delete
083ce580 T vio_ssl_write
083ce5a0 T vio_ssl_read
083ce8f0 T new_VioSSLAcceptorFd
083cea30 T new_VioSSLConnectorFd
083ceaa0 T my_end
083ceca0 T my_init
083ced70 T test_if_hard_path
083cedc0 T has_path
083cedf0 T my_setwd
083ceef0 T my_getwd
083cefb0 T get_date
083cf160 T my_msync
083cf1a0 T my_load_path
083cf2b0 T my_free_open_file_info
083cf2e0 T my_set_max_open_files
083cf450 T my_close
083cf540 T my_register_filename
083cf660 T my_open
083cf6b0 T my_create
083cf710 T my_tell
083cf780 T my_seek
083cf7d0 T my_read
083cf920 T my_pwrite
083cfaa0 T my_pread
083cfbc0 T my_write
083cff40 T reset_key_cache_counters
083cffa0 T change_key_cache_param
083d0460 T end_key_cache
083d04e0 T init_key_cache
083d1040 T resize_key_cache
083d17c0 T key_cache_read
083d1a80 T flush_key_blocks
083d1b00 T key_cache_write
083d1f80 T key_cache_insert
083d21b0 T multi_key_cache_change
083d2240 T multi_key_cache_set
083d2380 T multi_key_cache_search
083d23f0 T multi_keycache_free
083d2430 T multi_keycache_init
083d24c0 T setup_io_cache
083d2550 T _my_b_get
083d27d0 T my_b_flush_io_cache
083d29d0 T end_io_cache
083d2a70 T my_b_append
083d2b90 T my_b_safe_write
083d2c00 T reinit_io_cache
083d2e30 T _my_b_write
083d2fd0 T my_block_write
083d31e0 T _my_b_seq_read
083d3520 T _my_b_read_r
083d3810 T _my_b_read
083d3af0 T remove_io_thread
083d3bd0 T init_io_cache_share
083d3c90 T init_io_cache
083d4010 T my_b_vprintf
083d4440 T my_b_printf
083d4470 T my_b_filelength
083d44d0 T my_b_fill
083d4600 T my_b_gets
083d46e0 T my_b_seek
083d47e0 T my_b_append_tell
083d4840 T my_b_safe_tell
083d4870 T close_cached_file
083d48e0 T real_open_cached_file
083d4950 T open_cached_file
083d4a20 T create_temp_file
083d4b90 T free_tmpdir
083d4bd0 T my_tmpdir
083d4c20 T init_tmpdir
083d4d40 T my_no_flags_free
083d4d60 T my_malloc
083d4e20 T my_strdup_with_length
083d4e70 T my_strdup
083d4ed0 T my_memdup
083d4f20 T my_realloc
083d4fe0 T my_once_free
083d5010 T my_once_alloc
083d50e0 T my_once_memdup
083d5130 T my_once_strdup
083d5190 T my_multi_malloc
083d5220 T set_prealloc_root
083d5280 T free_root
083d5380 T alloc_root
083d54a0 T memdup_root
083d54f0 T strmake_root
083d5540 T strdup_root
083d5570 T multi_alloc_root
083d5600 T reset_root_defaults
083d56b0 T init_alloc_root
083d5740 W __cxa_pure_virtual
083d5780 T _ZdaPv
083d57a0 T _ZdlPv
083d57c0 T _Znaj
083d57f0 T _Znwj
083d5880 T my_fdopen
083d5960 T my_fclose
083d5a30 T my_fopen
083d5b70 T my_getsystime
083d5bc0 T my_message
083d5bd0 T my_error_unregister
083d5c20 T my_error_register
083d5cb0 T my_printf_error
083d5d10 T my_error
083d5dd0 T init_glob_errs
083d5de0 T my_filename
083d5e20 T my_message_no_curses
083d5ed0 T strlength
083d5f30 T fn_format
083d62a0 T fn_same
083d6320 T dirname_length
083d6360 T convert_dirname
083d63d0 T dirname_part
083d6410 T fn_ext
083d6480 T my_realpath
083d6560 T my_symlink
083d65e0 T my_readlink
083d6680 T my_rename_with_symlink
083d6890 T my_delete_with_symlink
083d6910 T my_create_with_symlink
083d6b20 T intern_filename
083d6b80 T system_filename
083d6bb0 T cleanup_dirname
083d6f10 T unpack_dirname
083d70e0 T unpack_filename
083d7180 T pack_dirname
083d7400 T to_unix_path
083d7410 T strip_sp
083d7470 T wild_compare
083d7630 T my_gethwaddr
083d7720 T qsort
083d8120 T qsort2
083d8ba0 T my_string_ptr_sort
083d8c70 T get_ptr_compare
083d90c0 T my_store_ptr
083d91e0 T my_get_ptr
083d93c0 T radixsort_for_str_ptr
083d94e0 T queue_insert
083d9550 T _downheap
083d9670 T queue_remove
083d96f0 T queue_fix
083d9730 T delete_queue
083d9760 T resize_queue
083d97c0 T reinit_queue
083d9810 T init_queue
083d9880 T tree_search
083d9910 T tree_search_key
083d9a70 T tree_search_edge
083d9ad0 T tree_search_next
083d9ba0 T tree_record_pos
083d9db0 T tree_walk
083d9e30 T tree_delete
083da290 T reset_tree
083da2b0 T tree_insert
083da570 T delete_tree
083da580 T init_tree
083da6c0 T list_add
083da6f0 T list_delete
083da720 T list_reverse
083da750 T list_length
083da770 T list_walk
083da7b0 T list_cons
083da800 T list_free
083da900 T hash_element
083da920 T hash_replace
083da940 T hash_free
083da990 T _hash_init
083dab10 T hash_next
083dab80 T hash_first
083dac50 T hash_search
083dac80 T my_hash_reset
083dacd0 T hash_update
083dae50 T hash_delete
083db130 T my_hash_insert
083db480 T pop_dynamic
083db4a0 T freeze_size
083db500 T alloc_dynamic
083db560 T delete_dynamic_element
083db5b0 T delete_dynamic
083db5e0 T get_dynamic
083db630 T set_dynamic
083db6f0 T insert_dynamic
083db750 T init_dynamic_array
083db800 T get_type
083db830 T copy_typelib
083db970 T make_type
083db9c0 T find_type
083dbb70 T my_copy
083dbdf0 T my_stat
083dbeb0 T my_fstat
083dbed0 T directory_file_name
083dbf30 T my_dirend
083dbf70 T my_dir
083dc260 T my_delete
083dc2e0 T my_rename
083dc360 T my_copystat
083dc490 T my_redel
083dc580 T my_chsize
083dc7d0 T my_clock
083dc7f0 T my_sync
083dc8c0 T my_getopt_register_get_addr
083dc8d0 T getopt_compare_strings
083dc930 T getopt_ull_limit_value
083dcac0 T my_print_variables
083dcfd0 T handle_options
083ddcd0 T my_print_help
083ddfc0 T my_mkdir
083de0c0 T my_print_default_files
083de210 T print_defaults
083de300 T free_defaults
083de3e0 T get_defaults_options
083deef0 T my_search_option_files
083df1d0 T load_defaults
083df570 T my_uncompress
083df620 T my_compress_alloc
083df6c0 T my_compress
083df740 T my_checksum
083df750 T my_inet_ntoa
083df7a0 T my_sleep
083df8a0 T add_compiled_collation
083df8c0 T free_charsets
083df8d0 T escape_string_for_mysql
083dfa70 T escape_quotes_for_mysql
083dfe20 T my_charset_same
083e0310 T get_charsets_dir
083e05f0 T get_charset
083e06b0 T get_charset_name
083e06f0 T get_charset_number
083e0770 T get_charset_by_csname
083e0810 T get_collation_number
083e0830 T get_charset_by_name
083e08d0 T init_compiled_charsets
083e0c20 T bitmap_fast_test_and_set
083e0c50 T bitmap_is_set
083e0c80 T bitmap_set_above
083e0cc0 T bitmap_free
083e0d00 T bitmap_init
083e0da0 T bitmap_set_bit
083e0e00 T bitmap_test_and_set
083e0e50 T bitmap_get_first
083e0ee0 T bitmap_bits_set
083e0f60 T bitmap_union
083e0ff0 T bitmap_subtract
083e1080 T bitmap_intersect
083e1160 T bitmap_cmp
083e1200 T bitmap_is_subset
083e12c0 T bitmap_is_prefix
083e13a0 T bitmap_is_set_all
083e13c0 T bitmap_is_clear_all
083e13e0 T bitmap_set_prefix
083e14a0 T bitmap_set_all
083e14c0 T bitmap_clear_all
083e14e0 T bitmap_clear_bit
083e1540 T bitmap_set_next
083e15d0 T my_bit_log2
083e15f0 T my_count_bits
083e1690 T my_count_bits_ushort
083e16a0 T my_MD5Init
083e1ee0 T my_MD5Update
083e1fd0 T my_MD5Final
083e2070 T my_gethostbyname_r
083e20c0 T my_aes_get_size
083e21b0 T my_aes_decrypt
083e22e0 T my_aes_encrypt
083e23f0 T mysql_sha1_reset
083e2720 T mysql_sha1_input
083e2780 T mysql_sha1_result
083e28f0 T mi_compare_text
083e2a60 T ha_key_cmp
083e3ad0 T ha_find_null
083e3b90 T my_large_free
083e3bd0 T my_large_malloc
083e3d40 T my_get_large_page_size
083e3e30 T thr_alarm_info
083e3ea0 T thr_alarm_kill
083e3fc0 T thr_end_alarm
083e40a0 T resize_thr_alarm
083e40f0 T init_thr_alarm
083e42b0 T thr_alarm
083e44c0 T process_alarm
083e4700 T end_thr_alarm
083e4850 T init_thr_lock
083e4860 T thr_lock_data_init
083e4940 T thr_print_locks
083e4ac0 T thr_abort_locks
083e4b70 T thr_lock_info_init
083e4ba0 T thr_lock_delete
083e4bf0 T thr_lock_init
083e5070 T thr_abort_locks_for_thread
083e5190 T thr_unlock
083e5250 T thr_multi_unlock
083e5450 T thr_upgrade_write_delay_lock
083e5530 T thr_reschedule_write_lock
083e5660 T thr_lock
083e59d0 T thr_multi_lock
083e5b90 T pthread_no_free
083e5ba0 T pthread_dummy
083e5bb0 T my_pthread_attr_setprio
083e5bd0 T my_pthread_getprio
083e5c00 T my_pthread_setprio
083e5c30 T my_thread_name
083e5c40 T my_thread_id
083e5c50 T _my_thread_var
083e5c70 T my_thread_end
083e5d10 T my_thread_init
083e5dd0 T my_thread_global_end
083e5fb0 T my_thread_global_init
083e6220 T rijndaelKeySetupEnc
083e65b0 T rijndaelKeySetupDec
083e67f0 T rijndaelEncrypt
083e6ca0 T rijndaelDecrypt
083e7170 T my_regerror
083e9020 T my_regcomp
083eb890 T my_regexec
083ec8d0 T my_regfree
083ec950 T my_regex_end
083ec9a0 T my_regex_init
083ecbb0 T bmove_align
083ecbdf T bmove_upp
083ecc05 T strappend
083ecc38 T strcont
083ecc5f T strend
083ecc72 T strfill
083ecc9e T strcend
083eccb7 T is_prefix
083eccd4 T strstr
083ecd0b T strinstr
083ecd26 T strmake
083ecd56 T strnmov
083ecd76 T strmov
083ecd91 T strxmov
083ecdbc T longlong2str_with_dig_vector
083ece60 T longlong10_to_str
083ecef0 T my_strtoll10
083ed200 T bmove512
083ed780 T bchange
083ed7f0 T strxnmov
083ed860 T int2str
083ed940 T int10_to_str
083ed9f0 T str2int
083edc80 T my_strtod
083ee030 T my_atof
083ee060 T llstr
083ee0a0 T my_string_repertoire
083ee130 T my_charset_is_ascii_based
083ee170 T my_charset_is_8bit_pure_ascii
083ee1a0 T my_parse_charset_xml
083ee850 T my_strnxfrmlen_simple
083ee880 T my_strnncoll_simple
083ee910 T my_strnncollsp_simple
083eea00 T my_caseup_str_8bit
083eea40 T my_casedn_str_8bit
083eea80 T my_caseup_8bit
083eeac0 T my_casedn_8bit
083eeb00 T my_strcasecmp_8bit
083eeb60 T my_mb_wc_8bit
083eeba0 T my_wc_mb_8bit
083eec20 T my_hash_sort_simple
083eec90 T my_strntol_8bit
083eeea0 T my_strntoul_8bit
083ef060 T my_strntoll_8bit
083ef390 T my_strntoull_8bit
083ef640 T my_wildcmp_8bit
083ef800 T my_like_range_simple
083ef930 T my_scan_8bit
083ef9b0 T my_numchars_8bit
083ef9c0 T my_numcells_8bit
083ef9d0 T my_charpos_8bit
083ef9e0 T my_well_formed_len_8bit
083efa10 T my_lengthsp_8bit
083efa40 T my_instr_simple
083efc20 T my_strntoull10rnd_8bit
083f02c0 T my_propagate_simple
083f02d0 T my_propagate_complex
083f0530 T my_strtoll10_8bit
083f0550 T my_fill_8bit
083f0570 T my_strnxfrm_simple
083f0630 T my_longlong10_to_str_8bit
083f07a0 T my_long10_to_str_8bit
083f0860 T my_strntod_8bit
083f08b0 T my_snprintf_8bit
083f4a60 T my_strnncoll_gbk_internal
083f4ba0 T my_strnncoll_gbk
083f7b40 T my_wildcmp_unicode
083f9230 T my_strntol_ucs2
083f9480 T my_strntoul_ucs2
083f9680 T my_strntoll_ucs2
083f99b0 T my_strntoull_ucs2
083f9c80 T my_l10tostr_ucs2
083f9d70 T my_ll10tostr_ucs2
083f9f10 T my_strtoll10_ucs2
083fa6b0 T my_like_range_ucs2
083fa9d0 T my_scan_ucs2
083fadc0 T my_strntoull10rnd_ucs2
083fae90 T my_strntod_ucs2
083fc940 T my_lengthsp_binary
083fca20 T my_mbcharlen_8bit
083fca80 T my_hash_sort_8bit_bin
083fcae0 T my_hash_sort_bin
083fcb50 T my_wildcmp_bin
083fd300 T my_hash_sort_latin1_de
083fd450 T my_vsnprintf
083fd850 T my_snprintf
083fd930 T my_xml_parser_free
083fd940 T my_xml_set_value_handler
083fd960 T my_xml_set_enter_handler
083fd980 T my_xml_set_leave_handler
083fd9a0 T my_xml_set_user_data
083fd9c0 T my_xml_error_string
083fd9d0 T my_xml_error_pos
083fda10 T my_xml_error_lineno
083fda50 T my_xml_parser_create
083fdf40 T my_xml_parse
083fe2c0 T max_decimal
083fe440 T decimal_actual_fraction
083fe530 T do_mini_left_shift
083fe640 T do_mini_right_shift
083fe740 T decimal2double
083fe7f0 T decimal_size
083fe840 T decimal_bin_size
083fe8b0 T decimal_result_size
083fe9e0 T decimal_intg
083fea00 T decimal_is_zero
083fefe0 T decimal_cmp
083ff370 T decimal_sub
083ff3a0 T decimal_add
083ff3d0 T decimal_round
083ff940 T decimal_shift
083fffc0 T decimal2bin
084003a0 T decimal2longlong
084004e0 T decimal2ulonglong
08400710 T longlong2decimal
08400750 T ulonglong2decimal
08400770 T decimal2string
08400af0 T bin2decimal
08401b40 T decimal_mod
08401b60 T decimal_div
08401b90 T decimal_mul
084020a0 T internal_str2dec
084024d0 T double2decimal
08402570 T longlong2str
084025b0 T my_caseup_str_mb
08402620 T my_casedn_str_mb
08402690 T my_caseup_mb
084026f0 T my_casedn_mb
08402750 T my_strcasecmp_mb
084027f0 T my_numchars_mb
08402840 T my_charpos_mb
084028d0 T my_well_formed_len_mb
08402950 T my_instr_mb
08402b90 T my_numcells_mb
084030b0 T my_wildcmp_mb
084034e0 T my_like_range_mb
08404050 T __libc_csu_fini
08404060 T __libc_csu_init
08404104 T _fini
08404120 R _fp_hw
08404124 R _IO_stdin_used
08405ae0 V _ZTV13st_select_lex
08405b40 V _ZTV18st_select_lex_unit
08405ba0 V _ZTV18st_select_lex_node
08405c00 V _ZTV16sys_var_long_ptr
08405c40 V _ZTV14sys_var_global
08405c78 V _ZTV6st_lex
08406060 V _ZTV17Item_result_field
084061e0 V _ZTV16Item_type_holder
08406340 V _ZTV14Item_cache_row
084064c0 V _ZTV14Item_cache_str
08406640 V _ZTV18Item_cache_decimal
084067c0 V _ZTV15Item_cache_real
08406940 V _ZTV14Item_cache_int
08406ac0 V _ZTV10Item_cache
08406c40 V _ZTV18Item_trigger_field
08406dc0 V _ZTV17Item_insert_value
08406f20 V _ZTV18Item_default_value
08407080 V _ZTV14Item_outer_ref
08407200 V _ZTV20Item_direct_view_ref
08407380 V _ZTV15Item_direct_ref
08407500 V _ZTV8Item_ref
08407680 V _ZTV15Item_hex_string
084077e0 V _ZTV10Item_float
08407960 V _ZTV17Item_int_with_ref
08407ae0 V _ZTV17Item_empty_string
08407c40 V _ZTV20Item_ref_null_helper
08407dc0 V _ZTV16Item_copy_string
08407f20 V _ZTV10Item_param
08408080 V _ZTV9Item_null
084081e0 V _ZTV11Item_string
08408340 V _ZTV12Item_decimal
084084c0 V _ZTV9Item_uint
08408640 V _ZTV8Item_int
084087c0 V _ZTV10Item_field
08408920 V _ZTV10Item_ident
08408a80 V _ZTV19Item_ident_for_show
08408be0 V _ZTV15Item_name_const
08408d40 V _ZTV14Item_case_expr
08408ea0 V _ZTV12Item_splocal
08409020 V _ZTV16Item_sp_variable
08409180 V _ZTV23Item_static_string_func
084092e0 V _ZTV22Item_static_float_func
08409460 V _ZTV8Item_num
084095e0 V _ZTV4Item
08409740 V _ZTV26Hybrid_type_traits_integer
08409780 V _ZTV26Hybrid_type_traits_decimal
084097c0 V _ZTV18Hybrid_type_traits
084097f8 V _ZTV26Settable_routine_parameter
08409820 V _ZTV15Item_bin_string
08409980 V _ZTV18Item_aggregate_ref
08409ba0 V _ZTV22Item_func_group_concat
08409d40 V _ZTV16Item_sum_udf_str
08409ee0 V _ZTV16Item_sum_udf_int
0840a080 V _ZTV20Item_sum_udf_decimal
0840a220 V _ZTV18Item_sum_udf_float
0840a3c0 V _ZTV12Item_udf_sum
0840a560 V _ZTV23Item_sum_count_distinct
0840a700 V _ZTV19Item_variance_field
0840a880 V _ZTV14Item_std_field
0840aa00 V _ZTV14Item_avg_field
0840ab80 V _ZTV12Item_sum_and
0840ad20 V _ZTV12Item_sum_xor
0840aec0 V _ZTV11Item_sum_or
0840b060 V _ZTV12Item_sum_bit
0840b200 V _ZTV12Item_sum_max
0840b3a0 V _ZTV12Item_sum_min
0840b540 V _ZTV17Item_sum_variance
0840b6e0 V _ZTV12Item_sum_std
0840b880 V _ZTV12Item_sum_avg
0840ba20 V _ZTV14Item_sum_count
0840bbc0 V _ZTV21Item_sum_avg_distinct
0840bd60 V _ZTV17Item_sum_distinct
0840bf00 V _ZTV12Item_sum_sum
0840c0a0 V _ZTV15Item_sum_hybrid
0840c240 V _ZTV12Item_sum_num
0840c3e0 V _ZTV12Item_sum_int
0840c580 V _ZTV8Item_sum
0840c720 V _ZTV31Hybrid_type_traits_fast_decimal
0840c758 V _ZTV19Cached_item_decimal
0840c770 V _ZTV17Cached_item_field
0840c788 V _ZTV15Cached_item_int
0840c7a0 V _ZTV16Cached_item_real
0840c7b8 V _ZTV15Cached_item_str
0840c7d0 V _ZTV11Cached_item
0840cac0 V _ZTV12Item_func_sp
0840cc40 V _ZTV20Item_func_found_rows
0840cdc0 V _ZTV19Item_func_row_count
0840cf40 V _ZTV22Item_func_is_used_lock
0840d0c0 V _ZTV22Item_func_is_free_lock
0840d240 V _ZTV17Item_func_bit_xor
0840d3c0 V _ZTV15Item_func_match
0840d540 V _ZTV19Item_func_inet_aton
0840d6c0 V _ZTV24Item_func_get_system_var
0840d840 V _ZTV26Item_user_var_as_out_param
0840d9a0 V _ZTV22Item_func_get_user_var
0840db40 V _ZTV22Item_func_set_user_var
0840dcc0 V _ZTV15Item_func_sleep
0840de40 V _ZTV19Item_func_benchmark
0840dfc0 V _ZTV24Item_func_last_insert_id
0840e140 V _ZTV22Item_func_release_lock
0840e2c0 V _ZTV18Item_func_get_lock
0840e440 V _ZTV20Item_master_pos_wait
0840e5c0 V _ZTV17Item_func_udf_str
0840e740 V _ZTV21Item_func_udf_decimal
0840e8c0 V _ZTV17Item_func_udf_int
0840ea40 V _ZTV19Item_func_udf_float
0840ebc0 V _ZTV13Item_udf_func
0840ed40 V _ZTV19Item_func_bit_count
0840eec0 V _ZTV21Item_func_find_in_set
0840f040 V _ZTV13Item_func_ord
0840f1c0 V _ZTV15Item_func_ascii
0840f340 V _ZTV15Item_func_field
0840f4c0 V _ZTV16Item_func_locate
0840f640 V _ZTV22Item_func_coercibility
0840f7c0 V _ZTV21Item_func_char_length
0840f940 V _ZTV16Item_func_length
0840fac0 V _ZTV17Item_func_min_max
0840fc40 V _ZTV15Item_func_units
0840fdc0 V _ZTV14Item_func_sign
0840ff40 V _ZTV14Item_func_rand
084100c0 V _ZTV15Item_func_round
08410260 V _ZTV15Item_func_floor
08410400 V _ZTV17Item_func_ceiling
084105a0 V _ZTV17Item_func_int_val
08410740 V _ZTV17Item_func_integer
084108c0 V _ZTV17Item_func_bit_neg
08410a40 V _ZTV21Item_func_shift_right
08410bc0 V _ZTV20Item_func_shift_left
08410d40 V _ZTV13Item_func_tan
08410ec0 V _ZTV13Item_func_sin
08411040 V _ZTV13Item_func_cos
084111c0 V _ZTV14Item_func_atan
08411340 V _ZTV14Item_func_asin
084114c0 V _ZTV14Item_func_acos
08411640 V _ZTV13Item_func_pow
084117c0 V _ZTV14Item_func_sqrt
08411940 V _ZTV13Item_func_exp
08411ac0 V _ZTV15Item_func_log10
08411c40 V _ZTV14Item_func_log2
08411dc0 V _ZTV13Item_func_log
08411f40 V _ZTV12Item_func_ln
084120c0 V _ZTV13Item_func_abs
08412260 V _ZTV13Item_func_neg
08412400 V _ZTV13Item_func_mod
084125a0 V _ZTV17Item_func_int_div
08412720 V _ZTV13Item_func_div
084128c0 V _ZTV13Item_func_mul
08412a60 V _ZTV15Item_func_minus
08412c00 V _ZTV21Item_func_additive_op
08412da0 V _ZTV14Item_func_plus
08412f40 V _ZTV21Item_decimal_typecast
084130c0 V _ZTV18Item_func_unsigned
08413240 V _ZTV16Item_func_signed
084133c0 V _ZTV19Item_func_numhybrid
08413560 V _ZTV14Item_func_num1
08413700 V _ZTV11Item_num_op
084138a0 V _ZTV23Item_func_connection_id
08413a20 V _ZTV13Item_int_func
08413ba0 V _ZTV14Item_real_func
08413d20 V _ZTV9Item_func
08413ea0 V _ZTV13Item_dec_func
08414020 V _ZTV13Item_func_bit
084141a0 V _ZTV12set_var_base
08414300 V _ZTV10Item_equal
08414480 V _ZTV24Item_bool_rowready_func2
08414620 V _ZTV13Item_cond_xor
084147a0 V _ZTV15Item_func_regex
08414920 V _ZTV14Item_func_like
08414ac0 V _ZTV19Item_func_isnotnull
08414c40 V _ZTV21Item_is_not_null_test
08414dc0 V _ZTV16Item_func_isnull
08414f40 V _ZTV12Item_cond_or
084150c0 V _ZTV13Item_cond_and
08415240 V _ZTV9Item_cond
084153c0 V _ZTV17Item_func_bit_and
08415540 V _ZTV16Item_func_bit_or
084156c0 V _ZTV12Item_func_in
08415840 V _ZTV17cmp_item_datetime
08415880 V _ZTV16cmp_item_decimal
084158c0 V _ZTV12cmp_item_row
08415900 V _ZTV13cmp_item_real
08415940 V _ZTV12cmp_item_int
08415980 V _ZTV20cmp_item_sort_string
084159c0 V _ZTV10in_decimal
084159e0 V _ZTV9in_double
08415a00 V _ZTV11in_datetime
08415a20 V _ZTV11in_longlong
08415a40 V _ZTV6in_row
08415a60 V _ZTV9in_string
08415a80 V _ZTV18Item_func_coalesce
08415c20 V _ZTV14Item_func_case
08415da0 V _ZTV16Item_func_nullif
08415f40 V _ZTV12Item_func_if
084160c0 V _ZTV16Item_func_ifnull
08416260 V _ZTV17Item_func_between
084163e0 V _ZTV18Item_func_interval
08416560 V _ZTV17Item_func_opt_neg
084166e0 V _ZTV16Item_func_strcmp
08416880 V _ZTV12Item_func_lt
08416a20 V _ZTV12Item_func_le
08416bc0 V _ZTV12Item_func_gt
08416d60 V _ZTV12Item_func_ge
08416f00 V _ZTV12Item_func_ne
084170a0 V _ZTV15Item_func_equal
08417240 V _ZTV12Item_func_eq
084173e0 V _ZTV17Item_in_optimizer
08417560 V _ZTV15Item_func_truth
084176e0 V _ZTV15Item_bool_func2
08417880 V _ZTV17Item_func_nop_all
08417a00 V _ZTV17Item_func_not_all
08417b80 V _ZTV13Item_func_not
08417d00 V _ZTV10Le_creator
08417d20 V _ZTV10Ge_creator
08417d40 V _ZTV10Lt_creator
08417d60 V _ZTV10Gt_creator
08417d80 V _ZTV10Ne_creator
08417da0 V _ZTV10Eq_creator
08417dc0 V _ZTV12Comp_creator
08417de0 V _ZTV14Item_bool_func
08417f60 V _ZTV9in_vector
08417f80 V _ZTV15cmp_item_string
08417fc0 V _ZTV8cmp_item
08418000 V _ZTV30cmp_item_sort_string_in_static
08418260 V _ZTV14Item_func_uuid
084183e0 V _ZTV20Item_func_uncompress
08418560 V _ZTV18Item_func_compress
084186e0 V _ZTV15Item_func_crc32
08418860 V _ZTV29Item_func_uncompressed_length
084189e0 V _ZTV15Item_func_quote
08418b60 V _ZTV19Item_func_inet_ntoa
08418ce0 V _ZTV20Item_func_export_set
08418e60 V _ZTV14Item_load_file
08418fe0 V _ZTV16Item_func_binary
08419160 V _ZTV15Item_func_unhex
084192e0 V _ZTV13Item_func_hex
08419460 V _ZTV19Item_func_collation
084195e0 V _ZTV17Item_func_charset
08419760 V _ZTV23Item_func_set_collation
084198e0 V _ZTV22Item_func_conv_charset
08419a60 V _ZTV14Item_func_conv
08419be0 V _ZTV14Item_func_lpad
08419d60 V _ZTV14Item_func_rpad
08419ee0 V _ZTV16Item_func_repeat
0841a060 V _ZTV14Item_func_char
0841a1e0 V _ZTV18Item_func_make_set
0841a360 V _ZTV13Item_func_elt
0841a4e0 V _ZTV16Item_func_format
0841a660 V _ZTV17Item_func_soundex
0841a7e0 V _ZTV22Item_func_current_user
0841a980 V _ZTV14Item_func_user
0841ab20 V _ZTV18Item_func_database
0841acc0 V _ZTV18Item_func_sysconst
0841ae60 V _ZTV16Item_func_decode
0841afe0 V _ZTV16Item_func_encode
0841b160 V _ZTV17Item_func_encrypt
0841b2e0 V _ZTV22Item_func_old_password
0841b460 V _ZTV18Item_func_password
0841b5e0 V _ZTV14Item_func_trim
0841b780 V _ZTV15Item_func_rtrim
0841b920 V _ZTV15Item_func_ltrim
0841bac0 V _ZTV22Item_func_substr_index
0841bc40 V _ZTV16Item_func_substr
0841bdc0 V _ZTV15Item_func_right
0841bf40 V _ZTV14Item_func_left
0841c0c0 V _ZTV13Item_str_conv
0841c240 V _ZTV16Item_func_insert
0841c3c0 V _ZTV17Item_func_replace
0841c540 V _ZTV17Item_func_reverse
0841c6c0 V _ZTV19Item_func_concat_ws
0841c840 V _ZTV21Item_func_des_decrypt
0841c9c0 V _ZTV21Item_func_des_encrypt
0841cb40 V _ZTV16Item_func_concat
0841ccc0 V _ZTV21Item_func_aes_decrypt
0841ce40 V _ZTV21Item_func_aes_encrypt
0841cfc0 V _ZTV13Item_func_sha
0841d140 V _ZTV13Item_func_md5
0841d2c0 V _ZTV13Item_str_func
0841dd00 V _ZTV18Item_func_last_day
0841de80 V _ZTV21Item_func_str_to_date
0841e000 V _ZTV20Item_func_get_format
0841e180 V _ZTV24Item_func_timestamp_diff
0841e300 V _ZTV21Item_func_microsecond
0841e480 V _ZTV18Item_func_maketime
0841e600 V _ZTV18Item_func_timediff
0841e780 V _ZTV18Item_func_add_time
0841e900 V _ZTV18Item_func_makedate
0841ea80 V _ZTV18Item_date_typecast
0841ec20 V _ZTV18Item_time_typecast
0841edc0 V _ZTV22Item_datetime_typecast
0841ef60 V _ZTV13Item_typecast
0841f100 V _ZTV18Item_char_typecast
0841f2a0 V _ZTV12Item_extract
0841f420 V _ZTV22Item_date_add_interval
0841f5a0 V _ZTV20Item_func_convert_tz
0841f720 V _ZTV23Item_func_from_unixtime
0841f8a0 V _ZTV21Item_func_date_format
0841fa20 V _ZTV21Item_func_sec_to_time
0841fba0 V _ZTV23Item_func_sysdate_local
0841fd40 V _ZTV13Item_func_now
0841fee0 V _ZTV17Item_func_now_utc
08420080 V _ZTV19Item_func_now_local
08420220 V _ZTV21Item_func_curtime_utc
084203c0 V _ZTV23Item_func_curtime_local
08420560 V _ZTV17Item_func_curtime
08420700 V _ZTV21Item_func_curdate_utc
084208a0 V _ZTV23Item_func_curdate_local
08420a40 V _ZTV17Item_func_curdate
08420be0 V _ZTV19Item_func_from_days
08420d60 V _ZTV9Item_date
08420ee0 V _ZTV21Item_func_time_to_sec
08421060 V _ZTV24Item_func_unix_timestamp
084211e0 V _ZTV14Item_func_year
08421360 V _ZTV17Item_func_dayname
084214e0 V _ZTV17Item_func_weekday
08421660 V _ZTV18Item_func_yearweek
084217e0 V _ZTV14Item_func_week
08421960 V _ZTV16Item_func_second
08421ae0 V _ZTV16Item_func_minute
08421c60 V _ZTV14Item_func_hour
08421de0 V _ZTV17Item_func_quarter
08421f60 V _ZTV19Item_func_monthname
084220e0 V _ZTV15Item_func_month
08422260 V _ZTV20Item_func_dayofmonth
084223e0 V _ZTV19Item_func_dayofyear
08422560 V _ZTV17Item_func_to_days
084226e0 V _ZTV21Item_func_period_diff
08422860 V _ZTV20Item_func_period_add
084229e0 V _ZTV17Item_str_timefunc
08422b60 V _ZTV14Item_date_func
08422ce0 V _ZTV24Item_typecast_maybe_null
08422ec0 V _ZTV15Item_func_ucase
08423040 V _ZTV20Item_func_bit_length
084231c0 V _ZTV15Item_func_lcase
08423420 V _ZTV30subselect_indexsubquery_engine
08423480 V _ZTV31subselect_uniquesubquery_engine
084234e0 V _ZTV22subselect_union_engine
08423540 V _ZTV30subselect_single_select_engine
084235a0 V _ZTV21Item_allany_subselect
08423720 V _ZTV17Item_in_subselect
084238a0 V _ZTV21Item_exists_subselect
08423a20 V _ZTV21Item_maxmin_subselect
08423ba0 V _ZTV24Item_singlerow_subselect
08423d20 V _ZTV14Item_subselect
08423ea0 V _ZTV16subselect_engine
08423f00 V _ZTV19Item_func_trig_cond
08424080 V _ZTV8Item_row
084243a0 V _ZTV14Item_func_srid
08424520 V _ZTV17Item_func_glength
084246a0 V _ZTV14Item_func_area
08424820 V _ZTV11Item_func_y
084249a0 V _ZTV11Item_func_x
08424b20 V _ZTV19Item_func_numpoints
08424ca0 V _ZTV23Item_func_numgeometries
08424e20 V _ZTV25Item_func_numinteriorring
08424fa0 V _ZTV19Item_func_dimension
08425120 V _ZTV18Item_func_isclosed
084252a0 V _ZTV18Item_func_issimple
08425420 V _ZTV17Item_func_isempty
084255a0 V _ZTV21Item_func_spatial_rel
08425740 V _ZTV28Item_func_spatial_collection
084258e0 V _ZTV15Item_func_point
08425a80 V _ZTV26Item_func_spatial_decomp_n
08425c20 V _ZTV24Item_func_spatial_decomp
08425dc0 V _ZTV18Item_func_centroid
08425f60 V _ZTV18Item_func_envelope
08426100 V _ZTV23Item_func_geometry_type
08426280 V _ZTV16Item_func_as_wkb
08426420 V _ZTV16Item_func_as_wkt
084265a0 V _ZTV27Item_func_geometry_from_wkb
08426740 V _ZTV28Item_func_geometry_from_text
084268e0 V _ZTV18Item_geometry_func
08426c6c R _ZN15Field_varstring8MAX_SIZEE
084278a0 V _ZTV17Field_bit_as_char
084279c0 V _ZTV9Field_bit
08427ae0 V _ZTV9Field_set
08427c00 V _ZTV10Field_enum
08427d20 V _ZTV10Field_geom
08427e40 V _ZTV10Field_blob
08427f60 V _ZTV15Field_varstring
08428080 V _ZTV13Field_longstr
084281a0 V _ZTV9Field_str
084282c0 V _ZTV12Field_string
084283e0 V _ZTV14Field_datetime
08428500 V _ZTV13Field_newdate
08428620 V _ZTV10Field_date
08428740 V _ZTV10Field_year
08428860 V _ZTV10Field_time
08428980 V _ZTV15Field_timestamp
08428aa0 V _ZTV10Field_real
08428bc0 V _ZTV12Field_double
08428ce0 V _ZTV11Field_float
08428e00 V _ZTV14Field_longlong
08428f20 V _ZTV10Field_long
08429040 V _ZTV12Field_medium
08429160 V _ZTV11Field_short
08429280 V _ZTV10Field_tiny
084293a0 V _ZTV17Field_new_decimal
084294c0 V _ZTV13Field_decimal
084295e0 V _ZTV10Field_null
08429700 V _ZTV5Field
08429820 V _ZTV9Field_num
084299e4 R _ZN3THD13DEFAULT_WHEREE
08429a00 V _ZTV9Statement
08429a30 V _ZTV11Query_arena
08429a60 V _ZTV14select_dumpvar
08429aa0 V _ZTV23select_exists_subselect
08429ae0 V _ZTV31select_max_min_finder_subselect
08429b20 V _ZTV26select_singlerow_subselect
08429b60 V _ZTV11select_dump
08429ba0 V _ZTV13select_export
08429be0 V _ZTV14select_to_file
08429c20 V _ZTV11select_send
08429c60 V _ZTV13select_result
08429ca0 V _ZTV3THD
08429ce0 V _ZTV16select_subselect
08429d20 V _ZTV25select_result_interceptor
08429d60 V _ZTV5ilink
08429d70 V _ZTV18Item_change_record
08429d80 V _ZTV15Item_return_int
08429f20 V _ZTV13Protocol_prep
08429f80 V _ZTV15Protocol_simple
08429fe0 V _ZTV8Protocol
0842a200 V _ZTV12mapped_files
08434f40 V _ZTV16Unknown_key_hook
08434f58 V _ZTV13i_string_pair
08434f68 V _ZTV8i_string
084357c0 V _ZTV30sys_var_trust_routine_creators
08435800 V _ZTV20sys_var_thd_sql_mode
08435840 V _ZTV22sys_var_thd_table_type
08435880 V _ZTV26sys_var_thd_storage_engine
084358c0 V _ZTV16set_var_password
084358e0 V _ZTV12set_var_user
08435900 V _ZTV7set_var
08435920 V _ZTV25sys_var_thd_lc_time_names
08435960 V _ZTV21sys_var_max_user_conn
084359a0 V _ZTV21sys_var_thd_time_zone
084359e0 V _ZTV18sys_var_rand_seed2
08435a20 V _ZTV18sys_var_rand_seed1
08435a60 V _ZTV26sys_var_sync_binlog_period
08435aa0 V _ZTV26sys_var_slave_skip_counter
08435ae0 V _ZTV17sys_var_insert_id
08435b20 V _ZTV22sys_var_last_insert_id
08435b60 V _ZTV17sys_var_timestamp
08435ba0 V _ZTV24set_var_collation_client
08435bc0 V _ZTV22sys_var_key_cache_long
08435c00 V _ZTV23sys_var_key_buffer_size
08435c40 V _ZTV23sys_var_key_cache_param
08435c80 V _ZTV24sys_var_collation_server
08435cc0 V _ZTV26sys_var_collation_database
08435d00 V _ZTV28sys_var_collation_connection
08435d40 V _ZTV30sys_var_character_set_database
08435d80 V _ZTV28sys_var_character_set_server
08435dc0 V _ZTV29sys_var_character_set_results
08435e00 V _ZTV32sys_var_character_set_filesystem
08435e40 V _ZTV28sys_var_character_set_client
08435e80 V _ZTV32sys_var_character_set_connection
08435ec0 V _ZTV21sys_var_character_set
08435f00 V _ZTV17sys_var_collation
08435f40 V _ZTV28sys_var_thd_date_time_format
08435f80 V _ZTV15sys_var_thd_bit
08435fc0 V _ZTV16sys_var_thd_enum
08436000 V _ZTV16sys_var_thd_bool
08436040 V _ZTV21sys_var_thd_ulonglong
08436080 V _ZTV19sys_var_thd_ha_rows
084360c0 V _ZTV17sys_var_thd_ulong
08436100 V _ZTV12sys_var_enum
08436140 V _ZTV16sys_var_bool_ptr
08436180 V _ZTV21sys_var_ulonglong_ptr
084361c0 V _ZTV23sys_var_long_ptr_global
08436200 V _ZTV11sys_var_str
08436240 V _ZTV7sys_var
08436280 V _ZTV11sys_var_thd
084362c0 V _ZTV21sys_var_const_str_ptr
08436300 V _ZTV16sys_var_readonly
08436340 V _ZTV17sys_var_const_str
08436378 V _ZTV10NAMED_LIST
0846b938 V _ZTV13sp_lex_keeper
0846b960 V _ZTV16Item_func_istrue
0846bae0 V _ZTV19Item_func_isnottrue
0846bc60 V _ZTV17Item_func_isfalse
0846bde0 V _ZTV20Item_func_isnotfalse
0846bf60 V _ZTV13Item_func_max
0846c0e0 V _ZTV13Item_func_min
0846c260 V _ZTV22Item_func_unique_users
0846c3e0 V _ZTV21Item_sum_sum_distinct
0846c758 V _ZTV21Prelock_error_handler
0846c770 V _ZTV22Internal_error_handler
0846c7e0 V _ZTV14Field_iterator
0846ca20 V _ZTV24Field_iterator_table_ref
0846ca60 V _ZTV27Field_iterator_natural_join
0846caa0 V _ZTV20Field_iterator_table
0846cae0 V _ZTV19Field_iterator_view
0846d140 V _ZTV16Item_null_result
0846d2a0 V _ZTV22Item_func_rollup_const
0846d420 V _ZTV14store_key_item
0846d438 V _ZTV9store_key
0846d450 V _ZTV20store_key_const_item
0846d468 V _ZTV15store_key_field
0846d480 V _ZTV9FT_SELECT
0846d4c0 V _ZTV8COND_CMP
0846d5e0 V _ZTV13select_create
0846d620 V _ZTV13select_insert
0846d6d0 V _ZTV14Delayed_insert
0846d6e0 V _ZTV11delayed_row
0846d940 V _ZTV18Prepared_statement
0846d980 V _ZTV26Select_fetch_protocol_prep
084715e0 V _ZTV12multi_update
08471680 V _ZTV12multi_delete
08471720 V _ZTV14Item_proc_real
084718a0 V _ZTV13Item_proc_int
08471a20 V _ZTV16Item_proc_string
08471ba0 V _ZTV9Item_proc
08471d40 V _ZTV21Item_sum_unique_users
08472d00 V _ZTV9MYSQL_LOG
08472d20 V _ZTV11TC_LOG_MMAP
08472d40 V _ZTV6TC_LOG
08472d60 V _ZTV12TC_LOG_DUMMY
08472d80 V _ZTV21Muted_query_log_event
08473720 V _ZTV28Execute_load_query_log_event
08473760 V _ZTV26Begin_load_query_log_event
084737a0 V _ZTV22Execute_load_log_event
084737e0 V _ZTV21Delete_file_log_event
08473820 V _ZTV22Append_block_log_event
08473860 V _ZTV21Create_file_log_event
084738a0 V _ZTV14Stop_log_event
084738e0 V _ZTV15Slave_log_event
08473920 V _ZTV18User_var_log_event
08473960 V _ZTV13Xid_log_event
084739a0 V _ZTV14Rand_log_event
084739e0 V _ZTV16Intvar_log_event
08473a20 V _ZTV16Rotate_log_event
08473a60 V _ZTV14Load_log_event
08473aa0 V _ZTV28Format_description_log_event
08473ae0 V _ZTV18Start_log_event_v3
08473b20 V _ZTV15Query_log_event
08473b60 V _ZTV9Log_event
08474680 V _ZTV11GRANT_TABLE
08474698 V _ZTV10GRANT_NAME
08474900 V _ZTV26QUICK_GROUP_MIN_MAX_SELECT
08474940 V _ZTV17TRP_GROUP_MIN_MAX
08474960 V _ZTV17QUICK_SELECT_DESC
084749a0 V _ZTV23QUICK_RANGE_SELECT_GEOM
084749e0 V _ZTV14QUICK_SELECT_I
08474a20 V _ZTV13TRP_ROR_UNION
08474a38 V _ZTV17TRP_ROR_INTERSECT
08474a50 V _ZTV15TRP_INDEX_MERGE
08474a80 V _ZTV22QUICK_ROR_UNION_SELECT
08474ac0 V _ZTV26QUICK_ROR_INTERSECT_SELECT
08474b00 V _ZTV24QUICK_INDEX_MERGE_SELECT
08474b40 V _ZTV18QUICK_RANGE_SELECT
08474b80 V _ZTV15TABLE_READ_PLAN
08474b98 V _ZTV9TRP_RANGE
08475320 V _ZTV7handler
08475520 V _ZTV7ha_heap
08475b60 V _ZTV9ha_myisam
08475da0 V _ZTV12ha_myisammrg
084777c0 V _ZTV11ha_innobase
08479480 V _ZTV13Item_datetime
084795e0 V _ZTV11thread_info
08479860 V _ZTV7analyse
084798a0 V _ZTV15field_ulonglong
084798e0 V _ZTV14field_longlong
08479920 V _ZTV13field_decimal
08479960 V _ZTV10field_real
084799a0 V _ZTV9field_str
084799e0 V _ZTV10field_info
08479a20 V _ZTV9Procedure
0847c3a0 V _ZTV12select_union
0847d8e0 R view_type
0847d918 V _ZTV12st_lex_local
0847d9e0 V _ZTV23Gis_geometry_collection
0847da60 V _ZTV17Gis_multi_polygon
0847dae0 V _ZTV21Gis_multi_line_string
0847db60 V _ZTV15Gis_multi_point
0847dbe0 V _ZTV11Gis_polygon
0847dc60 V _ZTV15Gis_line_string
0847dce0 V _ZTV9Gis_point
0847dd60 V _ZTV8Geometry
0847de80 V _ZTV18Select_materialize
0847dec0 V _ZTV19Materialized_cursor
0847df00 V _ZTV16Sensitive_cursor
0847df40 V _ZTV18Server_side_cursor
0847e458 V _ZTV16Time_zone_offset
0847e478 V _ZTV12Time_zone_db
0847e498 V _ZTV13Time_zone_utc
0847e4b8 V _ZTV16Time_zone_system
0847e4d8 V _ZTV9Time_zone
0847ea00 V _ZTV22sp_instr_set_case_expr
0847ea40 V _ZTV14sp_instr_error
0847ea80 V _ZTV15sp_instr_cfetch
0847eac0 V _ZTV15sp_instr_cclose
0847eb00 V _ZTV14sp_instr_copen
0847eb40 V _ZTV13sp_instr_cpop
0847eb80 V _ZTV14sp_instr_cpush
0847ebc0 V _ZTV16sp_instr_hreturn
0847ec00 V _ZTV13sp_instr_hpop
0847ec40 V _ZTV19sp_instr_hpush_jump
0847ec80 V _ZTV16sp_instr_freturn
0847ecc0 V _ZTV20sp_instr_jump_if_not
0847ed00 V _ZTV13sp_instr_jump
0847ed40 V _ZTV17sp_instr_opt_meta
0847ed80 V _ZTV26sp_instr_set_trigger_field
0847edc0 V _ZTV12sp_instr_set
0847ee00 V _ZTV13sp_instr_stmt
0847ee40 V _ZTV8sp_instr
0847ee78 V _ZTV7sp_head
0847eec0 V _ZTV24Select_fetch_into_spvars
0847ef00 V _ZTV9sp_cursor
0847f020 V _ZTV22File_parser_dummy_hook
0847f0b0 R triggers_file_ext
0847f0b4 R trigname_file_ext
0847f0b8 R trg_action_time_type_names
0847f0c8 R trg_event_type_names
0847f0f0 V _ZTV39Handle_old_incorrect_trigger_table_hook
0847f108 V _ZTV35Handle_old_incorrect_sql_modes_hook
0849d720 R ft_keysegs
0849d750 R _ft_vft_nlq
0849d764 R _ft_vft_boolean
0849fa40 R sha_const_key
084a2cc0 R log_10
085729e0 D __data_start
085729e0 W data_start
08572a00 D sym_group_common
08572a08 D sym_group_geom
08572a10 D sym_group_rtree
0857cb70 D _ZN10Field_null4nullE
0857cb74 D internal_table_name
0857cb80 D sqlstate_map
0857d4e0 D show_comp_option_name
0857d4ec D sql_mode_typelib
0857d4fc D first_keyword
0857d500 D binary_keyword
0857d504 D my_localhost
0857d508 D delayed_user
0857d50c D opt_large_files
0857d520 D _ZN14Arg_comparator17comparator_matrixE
0857d570 D opt_character_set_client_handshake
0857d571 D sp_automatic_privileges
0857d574 D thread_id
0857d578 D mysql_data_home
0857d57c D myisam_recover_options_str
0857d580 D myisam_stats_method_str
0857d584 D in_left_expr_name
0857d588 D in_additional_cond
0857d58c D in_having_cond
0857d590 D master_port
0857d594 D master_connect_retry
0857d598 D report_port
0857d59c D query_cache_min_res_unit
0857d5a0 D my_long_options
08582580 D status_vars
08582f40 D have_berkeley_db
08582f44 D have_innodb
08582f48 D have_ndbcluster
08582f4c D have_example_db
08582f50 D have_archive_db
08582f54 D have_csv_db
08582f58 D have_federated_db
08582f5c D have_partition_db
08582f60 D have_blackhole_db
08583040 D bool_type_names
0858304c D bool_typelib
0858305c D delay_key_write_type_names
0858306c D delay_key_write_typelib
08583080 D sys_auto_increment_increment
085830a0 D sys_auto_increment_offset
085830c0 D sys_bulk_insert_buff_size
085830e0 D sys_completion_type
08583100 D sys_interactive_timeout
08583120 D sys_join_buffer_size
08583140 D sys_log_warnings
08583160 D sys_long_query_time
08583180 D sys_low_priority_updates
0858319c D sys_sql_low_priority_updates
085831c0 D sys_max_allowed_packet
085831e0 D sys_max_insert_delayed_threads
08583200 D sys_max_delayed_threads
08583220 D sys_max_error_count
08583240 D sys_max_heap_table_size
08583260 D sys_pseudo_thread_id
08583280 D sys_max_join_size
085832a0 D sys_max_seeks_for_key
085832c0 D sys_max_length_for_sort_data
085832e0 D sys_sql_max_join_size
08583300 D sys_max_sort_length
08583320 D sys_max_sp_recursion_depth
08583340 D sys_max_tmp_tables
08583360 D sys_multi_range_count
08583380 D sys_myisam_max_sort_file_size
085833a0 D sys_myisam_repair_threads
085833c0 D sys_myisam_sort_buffer_size
085833e0 D sys_myisam_stats_method
08583400 D sys_net_buffer_length
08583420 D sys_net_read_timeout
08583440 D sys_net_write_timeout
08583460 D sys_net_retry_count
08583480 D sys_new_mode
0858349c D sys_old_passwords
085834c0 D sys_optimizer_prune_level
085834e0 D sys_optimizer_search_depth
08583500 D sys_preload_buff_size
08583520 D sys_read_buff_size
08583540 D sys_read_rnd_buff_size
08583560 D sys_div_precincrement
08583580 D sys_range_alloc_block_size
085835a0 D sys_query_alloc_block_size
085835c0 D sys_query_prealloc_size
085835e0 D sys_trans_alloc_block_size
08583600 D sys_trans_prealloc_size
08583620 D sys_query_cache_type
08583640 D sys_query_cache_wlock_invalidate
08583660 D sys_sort_buffer
08583680 D sys_updatable_views_with_limit
085836a0 D sys_storage_engine
085836c0 D sys_tx_isolation
085836e0 D sys_tmp_table_size
08583700 D sys_net_wait_timeout
08583720 D sys_innodb_table_locks
0858373c D sys_innodb_support_xa
08583758 D sys_engine_condition_pushdown
08583780 D sys_time_format
085837a0 D sys_date_format
085837c0 D sys_datetime_format
085837e0 D sys_group_concat_max_len
08583800 D sys_keep_files_on_create
08583820 D sys_variables
08583b00 D init_vars
085845a4 D default_key_cache_base
08584680 D any_db
085846a0 D command_name
08584718 D xa_state_names
08584728 D not_found_field
0858472c D view_ref_found
08584730 D not_found_item
08584740 D join_type_str
08584778 D warning_level_names
08584788 D warning_level_length
085847a0 D my_locales
08588260 D query_profile_statistics_info
08588440 D binlog_hton
08588494 D opt_tc_log_size
085884a0 D known_date_time_formats
08588520 D berkeley_hton
08588580 D blackhole_hton
085885e0 D example_hton
08588640 D archive_hton
085886a0 D tina_hton
08588700 D ndbcluster_hton
08588760 D federated_hton
085887c0 D isam_hton
08588820 D sys_table_types
08588860 D sys_table_aliases
085888a0 D ha_row_type
085888c4 D tx_isolation_names
085888d8 D tx_isolation_typelib
08588900 D heap_hton
08588960 D myisam_recover_names
08588974 D myisam_recover_typelib
08588984 D myisam_stats_method_names
08588994 D myisam_stats_method_typelib
085889c0 D myisam_hton
08588a20 D myisammrg_hton
08588a80 D innobase_fast_shutdown
08588a84 D innobase_use_doublewrite
08588a85 D innobase_use_checksums
08588aa0 D innobase_hton
08588b00 D innodb_status_variables
08588d18 D del_exts
08588d3c D primary_key_name
08588d40 D INFORMATION_SCHEMA_NAME
08588d60 D schema_fields_info
08588e00 D tables_fields_info
08589020 D columns_fields_info
08589200 D charsets_fields_info
08589280 D collation_fields_info
08589340 D coll_charset_app_fields_info
085893a0 D proc_fields_info
085895a0 D stat_fields_info
08589720 D view_fields_info
08589800 D user_privileges_fields_info
08589880 D schema_privileges_fields_info
08589920 D table_privileges_fields_info
085899e0 D column_privileges_fields_info
08589aa0 D table_constraints_fields_info
08589b60 D key_column_usage_fields_info
08589ca0 D table_names_fields_info
08589d20 D open_tables_fields_info
08589da0 D triggers_fields_info
08589f80 D variables_fields_info
08589fe0 D schema_tables
0858a498 D query_cache_type_names
0858a4a8 D query_cache_type_typelib
0858a4b8 D events_till_abort
0858a4e0 D unknown_sqlstate
0858a4e4 D not_error_sqlstate
0858a4e8 D default_client_charset_info
0858a4ec D sql_protocol_names_lib
0858a500 D sql_protocol_typelib
0858a5e0 D client_errors
0858a6e0 D rpl_status
0858a6e4 D rpl_role_type
0858a6f0 D rpl_role_typelib
0858a700 D rpl_status_type
0858a720 D rpl_status_typelib
0858a740 D updatable_views_with_limit_names
0858a74c D updatable_views_with_limit_typelib
0858a8d0 D my_tz_UTC
0858a8d4 D my_tz_SYSTEM
0858a8e0 D log_10_int
0858a980 D days_in_month
0858aa40 D sql_modes_parameters
0858aac0 D srv_fatal_semaphore_wait_threshold
0858aac4 D srv_main_thread_op_info
0858aac8 D srv_auto_extend_increment
0858aacc D srv_n_log_groups
0858aad0 D srv_n_log_files
0858aad4 D srv_log_file_size
0858aad8 D srv_log_buffer_size
0858aadc D srv_flush_log_at_trx_commit
0858aae0 D srv_latin1_ordering
0858abe0 D srv_pool_size
0858abe4 D srv_mem_pool_size
0858abe8 D srv_lock_table_size
0858abec D srv_n_file_io_threads
0858abf0 D srv_lock_wait_timeout
0858abf4 D srv_unix_file_flush_method
0858abf8 D srv_win_file_flush_method
0858abfc D srv_max_n_open_files
0858ac00 D srv_max_buf_pool_modified_pct
0858ac04 D srv_use_doublewrite_buf
0858ac08 D srv_use_checksums
0858ac0c D srv_set_thread_priorities
0858ac10 D srv_use_adaptive_hash_indexes
0858ac14 D srv_n_spin_wait_rounds
0858ac18 D srv_n_free_tickets_to_enter
0858ac1c D srv_thread_sleep_delay
0858ac20 D srv_spin_wait_delay
0858ac24 D srv_priority_boost
0858ac28 D srv_print_verbose_log
0858ac2c D srv_sim_disk_wait_pct
0858ac30 D srv_sim_disk_wait_len
0858ac34 D srv_test_n_threads
0858ac38 D srv_test_n_loops
0858ac3c D srv_test_n_free_rnds
0858ac40 D srv_test_n_reserved_rnds
0858ac44 D srv_test_array_size
0858ac48 D srv_test_n_mutexes
0858ac58 D pars_to_char_token
0858ac5c D pars_to_number_token
0858ac60 D pars_to_binary_token
0858ac64 D pars_binary_to_number_token
0858ac68 D pars_substr_token
0858ac6c D pars_replstr_token
0858ac70 D pars_concat_token
0858ac74 D pars_instr_token
0858ac78 D pars_length_token
0858ac7c D pars_sysdate_token
0858ac80 D pars_printf_token
0858ac84 D pars_assert_token
0858ac88 D pars_rnd_token
0858ac8c D pars_rnd_str_token
0858ac90 D pars_count_token
0858ac94 D pars_sum_token
0858ac98 D pars_distinct_token
0858ac9c D pars_int_token
0858aca0 D pars_char_token
0858aca4 D pars_float_token
0858aca8 D pars_update_token
0858acac D pars_asc_token
0858acb0 D pars_desc_token
0858acb4 D pars_open_token
0858acb8 D pars_close_token
0858acbc D pars_consistent_token
0858acc0 D pars_unique_token
0858acc4 D pars_clustered_token
0858acc8 D pars_star_denoter
0858acd0 D trx_sys_mysql_master_log_pos
0858acd8 D trx_sys_mysql_bin_log_pos
0858ace0 D eval_rnd
0858ace4 D recv_previous_parsed_rec_type
0858ace8 D recv_n_pool_free_frames
0858acec D fil_path_to_mysql_datadir
0858acf0 D fil_addr_null
0858acfc D data_mysql_default_charset_coll
0858ad00 D dtype_binary_val
0858ad18 D dtype_binary
0858ad1c D ut_dulint_max
0858ad24 D ut_rnd_ulint_counter
0858ad28 D os_innodb_umask
0858ad40 D myisam_file_magic
0858ad44 D myisam_pack_file_magic
0858ad48 D myisam_log_filename
0858ad4c D myisam_log_file
0858ad50 D myisam_quick_table_bits
0858ad54 D myisam_block_size
0858ad58 D myisam_concurrent_insert
0858ad60 D myisam_max_temp_length
0858ad68 D myisam_bulk_insert_tree_size
0858ad6c D myisam_data_pointer_size
0858ad80 D myisam_read_vec
0858adc0 D myisam_readnext_vec
0858ade0 D ft_min_word_len
0858ade4 D ft_max_word_len
0858ade8 D ft_query_expansion_limit
0858adec D ft_boolean_syntax
0858ae00 D ft_precompiled_stopwords
0858b758 D merge_insert_method
0858b7c4 D dflt_key_cache
0858b7e0 D globerrs
0858b854 D wild_many
0858b855 D wild_one
0858b858 D my_umask
0858b85c D my_umask_dir
0858b860 D my_file_limit
0858b864 D my_file_info
0858b868 D my_default_record_cache_size
0858b86c D soundex_map
0858b870 D my_once_extra
0858b874 D sf_min_adress
0858b878 D my_time_to_wait_for_lock
0858b87c D raid_type_string
0858b884 D my_abort_hook
0858b888 D error_handler_hook
0858b88c D fatal_error_handler_hook
0858b890 D my_getopt_error_reporter
0858b894 D disabled_my_option
0858b898 D my_getopt_print_errors
0858b8a4 D default_charset_info
0858b904 D thr_upgraded_concurrent_insert_lock
0858b908 D max_write_lock_count
0858b90c D my_pthread_create_detached
0858b910 D my_thread_end_wait_time
0858ba00 D cclasses
0858bde0 D _dig_vec_upper
0858be20 D _dig_vec_lower
0858bf60 D my_charset_8bit_handler
0858bfe0 D my_collation_8bit_simple_ci_handler
0858c020 D my_charset_big5_chinese_ci
0858c0a0 D my_charset_big5_bin
0858c600 D my_charset_cp932_japanese_ci
0858c680 D my_charset_cp932_bin
0858cbe0 D my_charset_latin2_czech_ci
0858d480 D my_charset_eucjpms_japanese_ci
0858d500 D my_charset_eucjpms_bin
0858da60 D my_charset_euckr_korean_ci
0858dae0 D my_charset_euckr_bin
0858e040 D my_charset_gb2312_chinese_ci
0858e0c0 D my_charset_gb2312_bin
0858e620 D my_charset_gbk_chinese_ci
0858e6a0 D my_charset_gbk_bin
0858ec00 D my_charset_sjis_japanese_ci
0858ec80 D my_charset_sjis_bin
0858f1e0 D my_charset_tis620_thai_ci
0858f260 D my_charset_tis620_bin
08590ec0 D my_charset_ujis_japanese_ci
08590f40 D my_charset_ujis_bin
085914a0 D my_unicase_default
085918a0 D my_unicase_turkish
08591ca0 D my_charset_utf8_handler
08591d20 D my_charset_utf8_general_ci
08591da0 D my_charset_utf8_bin
08596980 D my_charset_ucs2_handler
08596a00 D my_charset_ucs2_general_ci
08596a80 D my_charset_ucs2_bin
08596ea0 D page000data
085976a0 D page001data
08597ca0 D page002data
085982a0 D page003data
08598aa0 D page004data
085990a0 D page005data
085996a0 D page006data
08599ca0 D page007data
0859a2a0 D page009data
0859a8a0 D page00Adata
0859aea0 D page00Bdata
0859b4a0 D page00Cdata
0859baa0 D page00Ddata
0859c0a0 D page00Edata
0859c6a0 D page00Fdata
0859cca0 D page010data
0859d2a0 D page011data
0859d8a0 D page012data
0859dea0 D page013data
0859e4a0 D page014data
0859eaa0 D page015data
0859eea0 D page016data
0859f4a0 D page017data
0859faa0 D page018data
085a00a0 D page019data
085a06a0 D page01Ddata
085a0ca0 D page01Edata
085a12a0 D page01Fdata
085a18a0 D page020data
085a22a0 D page021data
085a2ca0 D page022data
085a34a0 D page023data
085a3aa0 D page024data
085a44a0 D page025data
085a48a0 D page026data
085a4ea0 D page027data
085a54a0 D page028data
085a58a0 D page029data
085a5ca0 D page02Adata
085a66a0 D page02Bdata
085a6ca0 D page02Edata
085a72a0 D page02Fdata
085a78a0 D page030data
085a7ea0 D page031data
085a84a0 D page032data
085a94a0 D page033data
085aa6a0 D page04Ddata
085aaca0 D page0A0data
085ab0a0 D page0A1data
085ab4a0 D page0A2data
085ab8a0 D page0A3data
085abca0 D page0A4data
085ac2a0 D page0F9data
085ac8a0 D page0FAdata
085acea0 D page0FBdata
085ad6a0 D page0FCdata
085adca0 D page0FDdata
085aeea0 D page0FEdata
085af4a0 D page0FFdata
085afaa0 D uca_length
085afba0 D uca_weight
085affa0 D my_collation_ucs2_uca_handler
085affe0 D my_charset_ucs2_unicode_ci
085b0060 D my_charset_ucs2_icelandic_uca_ci
085b00e0 D my_charset_ucs2_latvian_uca_ci
085b0160 D my_charset_ucs2_romanian_uca_ci
085b01e0 D my_charset_ucs2_slovenian_uca_ci
085b0260 D my_charset_ucs2_polish_uca_ci
085b02e0 D my_charset_ucs2_estonian_uca_ci
085b0360 D my_charset_ucs2_spanish_uca_ci
085b03e0 D my_charset_ucs2_swedish_uca_ci
085b0460 D my_charset_ucs2_turkish_uca_ci
085b04e0 D my_charset_ucs2_czech_uca_ci
085b0560 D my_charset_ucs2_danish_uca_ci
085b05e0 D my_charset_ucs2_lithuanian_uca_ci
085b0660 D my_charset_ucs2_slovak_uca_ci
085b06e0 D my_charset_ucs2_spanish2_uca_ci
085b0760 D my_charset_ucs2_roman_uca_ci
085b07e0 D my_charset_ucs2_persian_uca_ci
085b0860 D my_charset_ucs2_esperanto_uca_ci
085b08e0 D my_charset_ucs2_hungarian_uca_ci
085b0960 D my_collation_any_uca_handler
085b09a0 D my_charset_utf8_unicode_ci
085b0a20 D my_charset_utf8_icelandic_uca_ci
085b0aa0 D my_charset_utf8_latvian_uca_ci
085b0b20 D my_charset_utf8_romanian_uca_ci
085b0ba0 D my_charset_utf8_slovenian_uca_ci
085b0c20 D my_charset_utf8_polish_uca_ci
085b0ca0 D my_charset_utf8_estonian_uca_ci
085b0d20 D my_charset_utf8_spanish_uca_ci
085b0da0 D my_charset_utf8_swedish_uca_ci
085b0e20 D my_charset_utf8_turkish_uca_ci
085b0ea0 D my_charset_utf8_czech_uca_ci
085b0f20 D my_charset_utf8_danish_uca_ci
085b0fa0 D my_charset_utf8_lithuanian_uca_ci
085b1020 D my_charset_utf8_slovak_uca_ci
085b10a0 D my_charset_utf8_spanish2_uca_ci
085b1120 D my_charset_utf8_roman_uca_ci
085b11a0 D my_charset_utf8_persian_uca_ci
085b1220 D my_charset_utf8_esperanto_uca_ci
085b12a0 D my_charset_utf8_hungarian_uca_ci
085b1440 D my_charset_cp1250_czech_ci
085b1da0 D my_collation_8bit_bin_handler
085b1de0 D my_charset_bin
085b2140 D cs_to_uni
085b2340 D pl00
085b2440 D pl01
085b2540 D pl02
085b2640 D pl20
085b2740 D pl21
085b2840 D uni_to_cs
085b2c40 D my_charset_latin1
085b2cc0 D combo1map
085b2dc0 D combo2map
085b2ee0 D my_charset_latin1_german2_ci
085b2f60 D my_charset_latin1_bin
085b35c0 D ctype_latin1_german1_ci
085b36e0 D to_lower_latin1_german1_ci
085b37e0 D to_upper_latin1_german1_ci
085b38e0 D sort_order_latin1_german1_ci
085b39e0 D to_uni_latin1_german1_ci
085b3be0 D ctype_latin2_general_ci
085b3d00 D to_lower_latin2_general_ci
085b3e00 D to_upper_latin2_general_ci
085b3f00 D sort_order_latin2_general_ci
085b4000 D to_uni_latin2_general_ci
085b4200 D ctype_latin1_danish_ci
085b4320 D to_lower_latin1_danish_ci
085b4420 D to_upper_latin1_danish_ci
085b4520 D sort_order_latin1_danish_ci
085b4620 D to_uni_latin1_danish_ci
085b4820 D ctype_latin2_hungarian_ci
085b4940 D to_lower_latin2_hungarian_ci
085b4a40 D to_upper_latin2_hungarian_ci
085b4b40 D sort_order_latin2_hungarian_ci
085b4c40 D to_uni_latin2_hungarian_ci
085b4e40 D ctype_cp1250_general_ci
085b4f60 D to_lower_cp1250_general_ci
085b5060 D to_upper_cp1250_general_ci
085b5160 D sort_order_cp1250_general_ci
085b5260 D to_uni_cp1250_general_ci
085b5460 D ctype_latin2_croatian_ci
085b5580 D to_lower_latin2_croatian_ci
085b5680 D to_upper_latin2_croatian_ci
085b5780 D sort_order_latin2_croatian_ci
085b5880 D to_uni_latin2_croatian_ci
085b5a80 D ctype_cp1250_croatian_ci
085b5ba0 D to_lower_cp1250_croatian_ci
085b5ca0 D to_upper_cp1250_croatian_ci
085b5da0 D sort_order_cp1250_croatian_ci
085b5ea0 D to_uni_cp1250_croatian_ci
085b60a0 D ctype_latin1_general_ci
085b61c0 D to_lower_latin1_general_ci
085b62c0 D to_upper_latin1_general_ci
085b63c0 D sort_order_latin1_general_ci
085b64c0 D to_uni_latin1_general_ci
085b66c0 D ctype_latin1_general_cs
085b67e0 D to_lower_latin1_general_cs
085b68e0 D to_upper_latin1_general_cs
085b69e0 D sort_order_latin1_general_cs
085b6ae0 D to_uni_latin1_general_cs
085b6ce0 D ctype_cp1250_bin
085b6e00 D to_lower_cp1250_bin
085b6f00 D to_upper_cp1250_bin
085b7000 D to_uni_cp1250_bin
085b7200 D ctype_latin2_bin
085b7320 D to_lower_latin2_bin
085b7420 D to_upper_latin2_bin
085b7520 D to_uni_latin2_bin
085b7720 D ctype_latin1_spanish_ci
085b7840 D to_lower_latin1_spanish_ci
085b7940 D to_upper_latin1_spanish_ci
085b7a40 D sort_order_latin1_spanish_ci
085b7b40 D to_uni_latin1_spanish_ci
085b7d40 D compiled_charsets
085b82bc D my_str_malloc
085b82c0 D my_str_free
085b82e0 D my_collation_mb_bin_handler
085b9120 A __bss_start
085b9120 B __tzname
085b9120 A _edata
085b9120 V tzname
085b9128 B stderr
085b912c B stdin
085b9140 B stdout
085b9160 B trg_new_row_fake_var
085b9180 B my_null_string
085b91c0 B LOCK_user_locks
085b9218 B my_empty_string
085b9250 B unknown_table_name
085b9260 B empty_c_string
085b9264 B LOCK_xid_cache
085b9280 B xid_cache
085b92f0 B end_of_list
085b92f8 B global_read_lock
085b92fc B global_read_lock_blocks_commit
085b9320 B manager_status
085b9324 B manager_thread_in_use
085b9328 B manager_thread
085b932c B LOCK_manager
085b9360 B COND_manager
085b93a0 B opt_log
085b93a1 B opt_update_log
085b93a2 B opt_bin_log
085b93a3 B opt_slow_log
085b93a4 B opt_log_queries_not_using_indexes
085b93a5 B opt_error_log
085b93a6 B opt_disable_networking
085b93a7 B opt_skip_show_db
085b93a8 B server_id_supplied
085b93a9 B opt_endinfo
085b93aa B using_udf_functions
085b93ab B locked_in_memory
085b93ac B opt_using_transactions
085b93ad B using_update_log
085b93ae B abort_loop
085b93af B shutdown_in_progress
085b93b0 B grant_option
085b93b1 B opt_skip_slave_start
085b93b2 B opt_reckless_slave
085b93b3 B opt_enable_named_pipe
085b93b4 B opt_local_infile
085b93b5 B opt_slave_compressed_protocol
085b93b6 B opt_safe_user_create
085b93b7 B opt_no_mix_types
085b93b8 B opt_show_slave_auth_info
085b93b9 B opt_sql_bin_update
085b93ba B opt_log_slave_updates
085b93bb B opt_innodb
085b93bc B slave_warning_issued
085b93bd B opt_readonly
085b93be B use_temp_pool
085b93bf B relay_log_purge
085b93c0 B opt_sync_frm
085b93c1 B opt_allow_suspicious_udfs
085b93c2 B opt_secure_auth
085b93c4 B opt_secure_file_priv
085b93c8 B opt_log_slow_admin_statements
085b93c9 B lower_case_file_system
085b93ca B opt_large_pages
085b93cc B opt_large_page_size
085b93d0 B opt_old_style_user_limits
085b93d1 B trust_function_creators
085b93d2 B mqh_used
085b93d3 B opt_noacl
085b93d4 B mysqld_port
085b93d8 B test_flags
085b93dc B select_errors
085b93e0 B dropping_tables
085b93e4 B ha_open_options
085b93e8 B mysqld_port_timeout
085b93ec B delay_key_write_options
085b93f0 B protocol_version
085b93f4 B lower_case_table_names
085b93f8 B tc_heuristic_recover
085b93fc B thread_count
085b9400 B thread_running
085b9408 B thd_startup_options
085b9410 B back_log
085b9414 B connect_timeout
085b9418 B concurrency
085b941c B server_id
085b9420 B table_cache_size
085b9424 B thread_stack
085b9428 B what_to_log
085b942c B query_buff_size
085b9430 B slow_launch_time
085b9434 B slave_open_temp_tables
085b9438 B open_files_limit
085b943c B max_binlog_size
085b9440 B max_relay_log_size
085b9444 B slave_net_timeout
085b9448 B slave_trans_retries
085b944c B thread_cache_size
085b9450 B binlog_cache_size
085b9454 B max_binlog_cache_size
085b9458 B query_cache_size
085b945c B refresh_version
085b9460 B flush_version
085b9468 B global_query_id
085b9470 B aborted_threads
085b9474 B aborted_connects
085b9478 B delayed_insert_timeout
085b947c B delayed_insert_limit
085b9480 B delayed_queue_size
085b9484 B delayed_insert_threads
085b9488 B delayed_insert_writes
085b948c B delayed_rows_in_use
085b9490 B delayed_insert_errors
085b9494 B flush_time
085b9498 B specialflag
085b949c B binlog_cache_use
085b94a0 B binlog_cache_disk_use
085b94a4 B max_connections
085b94a8 B max_connect_errors
085b94ac B max_user_connections
085b94b0 B max_prepared_stmt_count
085b94b4 B prepared_stmt_count
085b94b8 B current_pid
085b94bc B slow_launch_threads
085b94c0 B sync_binlog_period
085b94c4 B expire_logs_days
085b94c8 B rpl_recovery_rank
085b94cc B server_start_time
085b94d0 B flush_status_time
085b94e0 B mysql_home
085b96e0 B pidfile_name
085b98e0 B system_time_zone
085b9900 B default_tz_name
085b9920 B log_error_file
085b9b20 B glob_hostname
085b9d20 B mysql_real_data_home
085b9f20 B language
085ba120 B reg_ext
085ba140 B mysql_charsets_dir
085ba340 B opt_init_file
085ba344 B opt_tc_log_file
085ba348 B def_ft_boolean_syntax
085ba358 B key_map_empty
085ba360 B key_map_full
085ba368 B opt_date_time_formats
085ba380 B server_version
085ba3bc B mysqld_unix_port
085ba3c0 B opt_mysql_tmpdir
085ba3c4 B errmesg
085ba3e0 B decimal_zero
085ba418 B eq_creator
085ba41c B ne_creator
085ba420 B gt_creator
085ba424 B lt_creator
085ba428 B ge_creator
085ba42c B le_creator
085ba430 B bootstrap_file
085ba434 B bootstrap_error
085ba438 B stderror_file
085ba43c B replicate_rewrite_db
085ba44c B replicate_do_db
085ba45c B replicate_ignore_db
085ba46c B binlog_do_db
085ba47c B binlog_ignore_db
085ba48c B threads
085ba49c B key_caches
085ba4c0 B global_system_variables
085ba5e0 B max_system_variables
085ba700 B global_status_var
085ba9c0 B mysql_tmpdir_list
085ba9f8 B temp_pool
085baa04 B system_charset_info
085baa08 B files_charset_info
085baa0c B national_charset_info
085baa10 B table_alias_charset
085baa14 B character_set_filesystem
085baa18 B my_default_lc_time_names
085baa1c B have_isam
085baa20 B have_raid
085baa24 B have_ssl
085baa28 B have_symlink
085baa2c B have_query_cache
085baa30 B have_geometry
085baa34 B have_rtree_keys
085baa38 B have_dlopen
085baa3c B have_crypt
085baa40 B have_compress
085baa44 B THR_MALLOC
085baa48 B THR_THD
085baa4c B LOCK_mysql_create_db
085baa64 B LOCK_Acl
085baa7c B LOCK_open
085baa94 B LOCK_thread_count
085baaac B LOCK_mapped_file
085baac4 B LOCK_status
085baadc B LOCK_global_read_lock
085baaf4 B LOCK_error_log
085bab0c B LOCK_uuid_generator
085bab24 B LOCK_delayed_insert
085bab3c B LOCK_delayed_status
085bab54 B LOCK_delayed_create
085bab6c B LOCK_crypt
085bab84 B LOCK_bytes_sent
085bab9c B LOCK_bytes_received
085babb4 B LOCK_global_system_variables
085babcc B LOCK_user_conn
085babe4 B LOCK_slave_list
085babfc B LOCK_active_mi
085bac14 B LOCK_prepared_stmt_count
085bac2c B LOCK_des_key_file
085bac60 B LOCK_grant
085bac80 B LOCK_sys_init_connect
085baca0 B LOCK_sys_init_slave
085bacc0 B COND_refresh
085bad00 B COND_thread_count
085bad40 B COND_global_read_lock
085bad70 B signal_thread
085bad80 B connection_attrib
085bada4 B file_parser_dummy_hook
085bada8 B master_retry_count
085badac B master_user
085badb0 B master_password
085badb4 B master_host
085badb8 B master_info_file
085badbc B relay_log_info_file
085badc0 B report_user
085badc4 B report_password
085badc8 B report_host
085badcc B opt_relay_logname
085badd0 B opt_relaylog_index_name
085badd4 B master_ssl
085badd8 B master_ssl_key
085baddc B master_ssl_cert
085bade0 B master_ssl_ca
085bade4 B master_ssl_capath
085bade8 B master_ssl_cipher
085badec B sql_rand
085bae00 B mysqld_embedded
085bae20 B query_cache
085baf30 B opt_use_ssl
085baf34 B opt_ssl_ca
085baf38 B opt_ssl_capath
085baf3c B opt_ssl_cert
085baf40 B opt_ssl_cipher
085baf44 B opt_ssl_key
085baf48 B des_key_file
085baf4c B ssl_acceptor_fd
085bb0c0 B sys_automatic_sp_privileges
085bb0dc B sys_basedir
085bb100 B sys_binlog_cache_size
085bb120 B sys_character_set_server
085bb138 B sys_charset_system
085bb154 B sys_character_set_database
085bb16c B sys_character_set_client
085bb184 B sys_character_set_connection
085bb19c B sys_character_set_results
085bb1b4 B sys_character_set_filesystem
085bb1cc B sys_collation_connection
085bb1e4 B sys_collation_database
085bb1fc B sys_collation_server
085bb220 B sys_concurrent_insert
085bb240 B sys_connect_timeout
085bb260 B sys_datadir
085bb280 B sys_delay_key_write
085bb2a0 B sys_delayed_insert_limit
085bb2c0 B sys_delayed_insert_timeout
085bb2e0 B sys_delayed_queue_size
085bb300 B sys_expire_logs_days
085bb320 B sys_flush
085bb340 B sys_flush_time
085bb360 B sys_ft_boolean_syntax
085bb3a0 B sys_init_connect
085bb3e0 B sys_init_slave
085bb40c B sys_key_buffer_size
085bb428 B sys_key_cache_block_size
085bb444 B sys_key_cache_division_limit
085bb460 B sys_key_cache_age_threshold
085bb47c B sys_local_infile
085bb498 B sys_trust_routine_creators
085bb4b4 B sys_trust_function_creators
085bb4d0 B sys_log_queries_not_using_indexes
085bb500 B sys_max_binlog_cache_size
085bb520 B sys_max_binlog_size
085bb540 B sys_max_connections
085bb560 B sys_max_connect_errors
085bb580 B sys_max_relay_log_size
085bb5a0 B sys_max_user_connections
085bb5c0 B sys_max_write_lock_count
085bb5e0 B sys_myisam_data_pointer_size
085bb600 B sys_readonly
085bb61c B sys_relay_log_purge
085bb640 B sys_rpl_recovery_rank
085bb660 B sys_query_cache_size
085bb680 B sys_tmpdir
085bb6c0 B sys_query_cache_limit
085bb6e0 B sys_query_cache_min_res_unit
085bb700 B sys_secure_auth
085bb71c B sys_secure_file_priv
085bb740 B sys_server_id
085bb760 B sys_slave_compressed_protocol
085bb780 B sys_slave_net_timeout
085bb7a0 B sys_slave_trans_retries
085bb7c0 B sys_slow_launch_time
085bb7e0 B sys_sql_mode
085bb800 B sys_ssl_ca
085bb81c B sys_ssl_capath
085bb838 B sys_ssl_cert
085bb854 B sys_ssl_cipher
085bb870 B sys_ssl_key
085bb88c B sys_table_type
085bb8c0 B sys_sync_binlog_period
085bb8e0 B sys_sync_frm
085bb8fc B sys_system_time_zone
085bb920 B sys_table_cache_size
085bb940 B sys_table_lock_wait_timeout
085bb960 B sys_thread_cache_size
085bb980 B sys_timed_mutexes
085bb99c B sys_version
085bb9b8 B sys_version_comment
085bb9d4 B sys_version_compile_machine
085bb9f0 B sys_version_compile_os
085bba20 B sys_innodb_fast_shutdown
085bba40 B sys_innodb_max_dirty_pages_pct
085bba60 B sys_innodb_max_purge_lag
085bba80 B sys_innodb_autoextend_increment
085bbaa0 B sys_innodb_sync_spin_loops
085bbac0 B sys_innodb_concurrency_tickets
085bbae0 B sys_innodb_thread_sleep_delay
085bbb00 B sys_innodb_thread_concurrency
085bbb20 B sys_innodb_commit_concurrency
085bbb40 B sys_innodb_flush_log_at_trx_commit
085bbb60 B sys_autocommit
085bbb8c B sys_time_zone
085bbbc0 B sys_have_innodb
085bbbe4 B sys_license
085bbc00 B sys_hostname
085bc660 B uc_update_queries
085bc720 B unused_tables
085bc740 B open_cache
085bc774 B delayed_threads
085bc7a0 B my_locale_ar_AE
085bc7c0 B my_locale_ar_BH
085bc7e0 B my_locale_ar_JO
085bc800 B my_locale_ar_SA
085bc820 B my_locale_ar_SY
085bc840 B my_locale_be_BY
085bc860 B my_locale_bg_BG
085bc880 B my_locale_ca_ES
085bc8a0 B my_locale_cs_CZ
085bc8c0 B my_locale_da_DK
085bc8e0 B my_locale_de_AT
085bc900 B my_locale_de_DE
085bc920 B my_locale_en_US
085bc940 B my_locale_es_ES
085bc960 B my_locale_et_EE
085bc980 B my_locale_eu_ES
085bc9a0 B my_locale_fi_FI
085bc9c0 B my_locale_fo_FO
085bc9e0 B my_locale_fr_FR
085bca00 B my_locale_gl_ES
085bca20 B my_locale_gu_IN
085bca40 B my_locale_he_IL
085bca60 B my_locale_hi_IN
085bca80 B my_locale_hr_HR
085bcaa0 B my_locale_hu_HU
085bcac0 B my_locale_id_ID
085bcae0 B my_locale_is_IS
085bcb00 B my_locale_it_CH
085bcb20 B my_locale_ja_JP
085bcb40 B my_locale_ko_KR
085bcb60 B my_locale_lt_LT
085bcb80 B my_locale_lv_LV
085bcba0 B my_locale_mk_MK
085bcbc0 B my_locale_mn_MN
085bcbe0 B my_locale_ms_MY
085bcc00 B my_locale_nb_NO
085bcc20 B my_locale_nl_NL
085bcc40 B my_locale_pl_PL
085bcc60 B my_locale_pt_BR
085bcc80 B my_locale_pt_PT
085bcca0 B my_locale_ro_RO
085bccc0 B my_locale_ru_RU
085bcce0 B my_locale_ru_UA
085bcd00 B my_locale_sk_SK
085bcd20 B my_locale_sl_SI
085bcd40 B my_locale_sq_AL
085bcd60 B my_locale_sr_YU
085bcd80 B my_locale_sv_SE
085bcda0 B my_locale_ta_IN
085bcdc0 B my_locale_te_IN
085bcde0 B my_locale_th_TH
085bce00 B my_locale_tr_TR
085bce20 B my_locale_uk_UA
085bce40 B my_locale_ur_PK
085bce60 B my_locale_vi_VN
085bce80 B my_locale_zh_CN
085bcea0 B my_locale_zh_TW
085bcec0 B my_locale_ar_DZ
085bcee0 B my_locale_ar_EG
085bcf00 B my_locale_ar_IN
085bcf20 B my_locale_ar_IQ
085bcf40 B my_locale_ar_KW
085bcf60 B my_locale_ar_LB
085bcf80 B my_locale_ar_LY
085bcfa0 B my_locale_ar_MA
085bcfc0 B my_locale_ar_OM
085bcfe0 B my_locale_ar_QA
085bd000 B my_locale_ar_SD
085bd020 B my_locale_ar_TN
085bd040 B my_locale_ar_YE
085bd060 B my_locale_de_BE
085bd080 B my_locale_de_CH
085bd0a0 B my_locale_de_LU
085bd0c0 B my_locale_en_AU
085bd0e0 B my_locale_en_CA
085bd100 B my_locale_en_GB
085bd120 B my_locale_en_IN
085bd140 B my_locale_en_NZ
085bd160 B my_locale_en_PH
085bd180 B my_locale_en_ZA
085bd1a0 B my_locale_en_ZW
085bd1c0 B my_locale_es_AR
085bd1e0 B my_locale_es_BO
085bd200 B my_locale_es_CL
085bd220 B my_locale_es_CO
085bd240 B my_locale_es_CR
085bd260 B my_locale_es_DO
085bd280 B my_locale_es_EC
085bd2a0 B my_locale_es_GT
085bd2c0 B my_locale_es_HN
085bd2e0 B my_locale_es_MX
085bd300 B my_locale_es_NI
085bd320 B my_locale_es_PA
085bd340 B my_locale_es_PE
085bd360 B my_locale_es_PR
085bd380 B my_locale_es_PY
085bd3a0 B my_locale_es_SV
085bd3c0 B my_locale_es_US
085bd3e0 B my_locale_es_UY
085bd400 B my_locale_es_VE
085bd420 B my_locale_fr_BE
085bd440 B my_locale_fr_CA
085bd460 B my_locale_fr_CH
085bd480 B my_locale_fr_LU
085bd4a0 B my_locale_it_IT
085bd4c0 B my_locale_nl_BE
085bd4e0 B my_locale_no_NO
085bd500 B my_locale_sv_FI
085bd520 B my_locale_zh_HK
085bd540 B mysql_log
085bdbc0 B mysql_slow_log
085be240 B mysql_bin_log
085be8b8 B sync_binlog_counter
085be8bc B tc_log_page_waits
085be8c0 B tc_log_max_pages_used
085be8c4 B tc_log_page_size
085be8c8 B tc_log_cur_pages_used
085be8cc B tc_log
085be8d0 B tc_log_dummy
085be8e0 B tc_log_mmap
085bee00 B des_keyschedule
085bfd00 B des_default_key
085bfd58 B total_ha
085bfd5c B total_ha_2pc
085bfd60 B savepoint_alloc_size
085bfd64 B known_extensions_id
085bfd6c B myisam_recover_options
085bfd80 B innobase_share_mutex
085bfd98 B prepare_commit_mutex
085bfdb0 B commit_threads
085bfdb4 B commit_threads_m
085bfde0 B commit_cond
085bfe10 B commit_cond_m
085bfe28 B innodb_inited
085bfe40 B innobase_repl_cond
085bfe70 B innobase_repl_cond_mutex
085bfe88 B innobase_repl_state
085bfe8c B innobase_repl_file_name_inited
085bfe90 B innobase_repl_file_name
085bfe98 B innobase_repl_pos
085bfea0 B innobase_repl_n_wait_threads
085bfea4 B innobase_repl_wait_file_name_inited
085bfea8 B innobase_repl_wait_file_name
085bfeb0 B innobase_repl_wait_pos
085bfeb8 B innobase_large_page_size
085bfebc B innobase_mirrored_log_groups
085bfec0 B innobase_log_files_in_group
085bfec4 B innobase_log_buffer_size
085bfec8 B innobase_buffer_pool_awe_mem_mb
085bfecc B innobase_additional_mem_pool_size
085bfed0 B innobase_file_io_threads
085bfed4 B innobase_lock_wait_timeout
085bfed8 B innobase_force_recovery
085bfedc B innobase_open_files
085bfee0 B innobase_buffer_pool_size
085bfee8 B innobase_log_file_size
085bfef0 B innobase_data_home_dir
085bfef4 B innobase_data_file_path
085bfef8 B innobase_log_group_home_dir
085bfefc B innobase_log_arch_dir
085bff00 B innobase_unix_file_flush_method
085bff04 B innobase_log_archive
085bff05 B innobase_use_large_pages
085bff06 B innobase_use_native_aio
085bff07 B innobase_file_per_table
085bff08 B innobase_locks_unsafe_for_binlog
085bff09 B innobase_rollback_on_timeout
085bff0a B innobase_create_status_file
085bff0c B innobase_active_counter
085c0060 B use_slave_mask
085c0064 B slave_error_mask
085c0070 B slave_sql_running
085c0071 B slave_io_running
085c0074 B slave_load_tmpdir
085c0078 B active_mi
085c0080 B replicate_do_table
085c00c0 B replicate_ignore_table
085c00f4 B replicate_wild_do_table
085c0108 B replicate_wild_ignore_table
085c011c B do_table_inited
085c011d B ignore_table_inited
085c011e B wild_do_table_inited
085c011f B wild_ignore_table_inited
085c0120 B table_rules_on
085c0121 B replicate_same_server_id
085c0128 B relay_log_space_limit
085c0130 B disconnect_slave_event_count
085c0134 B abort_slave_event_count
085c013c B max_binlog_dump_events
085c0140 B opt_sporadic_binlog_dump_fail
085c0144 B mysql_port
085c0148 B mysql_unix_port
085c0160 B LOCK_rpl_status
085c0180 B COND_rpl_status
085c01c0 B slave_list
085c0200 B _ZN8Geometry17bad_geometry_dataE
085c0220 B _ZN8Geometry13ci_collectionE
085c02c0 B fake_time_zone_tables_list
085c0560 B srv_lower_case_table_names
085c0564 B srv_activity_count
085c0568 B srv_dml_needed_delay
085c056c B srv_lock_timeout_and_monitor_active
085c0570 B srv_error_monitor_active
085c0574 B srv_data_home
085c0578 B srv_file_per_table
085c057c B srv_locks_unsafe_for_binlog
085c0580 B srv_n_data_files
085c0584 B srv_data_file_names
085c0588 B srv_data_file_sizes
085c058c B srv_auto_extend_last_data_file
085c0590 B srv_last_file_size_max
085c0594 B srv_data_file_is_raw_partition
085c0598 B srv_created_new_raw
085c059c B srv_log_group_home_dirs
085c05a0 B srv_awe_window_size
085c05a4 B srv_file_flush_method_str
085c05a8 B srv_data_read
085c05ac B srv_data_written
085c05b0 B srv_log_write_requests
085c05b4 B srv_log_writes
085c05b8 B srv_os_log_written
085c05bc B srv_os_log_pending_writes
085c05c0 B srv_log_waits
085c05c4 B srv_dblwr_writes
085c05c8 B srv_dblwr_pages_written
085c05cc B srv_buf_pool_write_requests
085c05d0 B srv_buf_pool_wait_free
085c05d4 B srv_buf_pool_flushed
085c05d8 B srv_buf_pool_reads
085c05dc B srv_read_ahead_seq
085c05e0 B srv_read_ahead_rnd
085c05e4 B srv_force_recovery
085c05e8 B srv_max_n_threads
085c05ec B srv_thread_concurrency
085c05f0 B srv_commit_concurrency
085c05f4 B srv_conc_n_threads
085c05f8 B srv_conc_n_waiting_threads
085c05fc B srv_fast_shutdown
085c0600 B srv_innodb_status
085c0604 B srv_query_thread_priority
085c0608 B srv_use_awe
085c060c B srv_print_thread_releases
085c0610 B srv_print_lock_waits
085c0614 B srv_print_buf_io
085c0618 B srv_print_log_io
085c061c B srv_print_latch_waits
085c0620 B srv_n_rows_inserted
085c0624 B srv_n_rows_updated
085c0628 B srv_n_rows_deleted
085c062c B srv_n_rows_read
085c0630 B srv_n_lock_wait_count
085c0634 B srv_n_lock_wait_current_count
085c0638 B srv_n_lock_wait_time
085c0640 B srv_n_lock_max_wait_time
085c0644 B srv_print_innodb_monitor
085c0648 B srv_print_innodb_lock_monitor
085c064c B srv_print_innodb_tablespace_monitor
085c0650 B srv_print_innodb_table_monitor
085c0654 B srv_print_parsed_sql
085c0658 B srv_sim_disk_wait_by_yield
085c065c B srv_sim_disk_wait_by_wait
085c0660 B srv_measure_contention
085c0664 B srv_measure_by_spin
085c0668 B srv_test_extra_mutexes
085c066c B srv_test_nocache
085c0670 B srv_test_cache_evict
085c0674 B srv_test_sync
085c0678 B srv_main_thread_process_no
085c067c B srv_main_thread_id
085c0680 B srv_mysql_table
085c0684 B srv_sys
085c0688 B srv_max_purge_lag
085c06a0 B srv_start_raw_disk_in_use
085c06a4 B srv_startup_is_before_trx_rollback_phase
085c06a8 B srv_is_being_started
085c06ac B srv_shutdown_state
085c06b0 B measure_cont
085c1a40 B dict_sys
085c1a44 B dict_foreign_err_file
085c1a48 B que_trace_on
085c1a4c B que_always_false
085c1a60 B ibuf
085c1a64 B ibuf_flush_count
085c2320 B row_mysql_identically_false
085c2324 B row_rollback_on_timeout
085c2328 B row_mysql_drop_list_inited
085c232c B yyin
085c2330 B yyout
085c2360 B btr_cur_n_non_sea
085c2364 B btr_cur_n_sea
085c2368 B btr_cur_n_non_sea_old
085c236c B btr_cur_n_sea_old
085c2370 B btr_search_this_is_zero
085c2374 B btr_search_n_hash_fail
085c2378 B purge_sys
085c237c B trx_roll_crash_recv_trx
085c2380 B trx_sys
085c2384 B trx_doublewrite
085c2388 B trx_doublewrite_must_reset_space_ids
085c238c B trx_sys_multiple_tablespace_format
085c2390 B trx_dummy_sess
085c2394 B trx_n_mysql_transactions
085c2398 B buf_pool
085c239c B buf_lru_switched_on_innodb_mon
085c23a0 B log_fsp_current_free_limit
085c23a4 B log_sys
085c23a8 B log_has_printed_chkp_warning
085c23ac B recv_sys
085c23b0 B recv_recovery_on
085c23b4 B recv_recovery_from_backup_on
085c23b8 B recv_needed_recovery
085c23bc B recv_lsn_checks_on
085c23c0 B recv_log_scan_is_startup_type
085c23c4 B recv_no_ibuf_operations
085c23c8 B recv_scan_print_counter
085c23cc B recv_is_from_backup
085c23d0 B recv_previous_parsed_rec_offset
085c23d4 B recv_previous_parsed_rec_is_multi
085c23d8 B recv_max_parsed_page_no
085c23e0 B fil_n_log_flushes
085c23e4 B fil_n_pending_log_flushes
085c23e8 B fil_n_pending_tablespace_flushes
085c23ec B fil_system
085c23f0 B lock_sys
085c23f4 B lock_deadlock_found
085c23f8 B thr_local_hash
085c23fc B rw_s_system_call_count
085c2400 B rw_s_spin_wait_count
085c2404 B rw_s_os_wait_count
085c2408 B rw_s_exit_count
085c240c B rw_x_system_call_count
085c2410 B rw_x_spin_wait_count
085c2414 B rw_x_os_wait_count
085c2418 B rw_x_exit_count
085c241c B sync_dummy
085c2420 B mutex_system_call_count
085c2424 B mutex_spin_round_count
085c2428 B mutex_spin_wait_count
085c242c B mutex_os_wait_count
085c2430 B mutex_exit_count
085c2434 B sync_initialized
085c2438 B sync_order_checks_on
085c243c B mem_comm_pool
085c2440 B mem_n_threads_inside
085c2444 B ut_dulint_zero
085c244c B ut_dbg_stop_threads
085c2450 B ut_dbg_null_ptr
085c2454 B ut_total_allocated_memory
085c2458 B ut_mem_block_list_inited
085c245c B ut_mem_null_ptr
085c2460 B ut_always_false
085c2464 B os_sync_mutex_inited
085c2468 B os_sync_free_called
085c246c B os_thread_count
085c2470 B os_event_count
085c2474 B os_mutex_count
085c2478 B os_fast_mutex_count
085c247c B os_aio_use_native_aio
085c2480 B os_aio_print_debug
085c2484 B os_aio_segment_wait_events
085c2488 B os_n_file_reads
085c248c B os_bytes_read_since_printout
085c2490 B os_n_file_writes
085c2494 B os_n_fsyncs
085c2498 B os_n_file_reads_old
085c249c B os_n_file_writes_old
085c24a0 B os_n_fsyncs_old
085c24a4 B os_has_said_disk_full
085c24a8 B os_file_n_pending_preads
085c24ac B os_file_n_pending_pwrites
085c24b0 B os_n_pending_writes
085c24b4 B os_n_pending_reads
085c24e4 B myisam_pid
085c24ec B myisam_open_list
085c24f0 B myisam_flush
085c24f1 B myisam_delay_key_write
085c24f2 B myisam_single_user
085c24f8 B ft_stopword_file
085c24fc B myrg_open_list
085c2500 B heap_open_list
085c2504 B heap_share_list
085c250c B my_init_done
085c2510 B mysys_usage_id
085c257c B my_use_symdir
085c2580 B wild_prefix
085c25a0 B timed_mutexes
085c25a4 B home_dir
085c25a8 B my_progname
085c25c0 B curr_dir
085c27c0 B home_dir_buff
085c29c0 B my_stream_opened
085c29c4 B my_file_opened
085c29c8 B my_tmp_file_created
085c29e0 B my_file_info_default
085c2be0 B my_dont_interrupt
085c2be4 B _my_signals
085c2c00 B _my_sig_remember
085c2c50 B key_cache_inited
085c2c54 B my_once_root_block
085c2c58 B my_use_large_pages
085c2c5c B my_large_page_size
085c2c60 B sf_malloc_prehunc
085c2c64 B sf_malloc_endhunc
085c2c68 B sf_malloc_quick
085c2c6c B sf_malloc_cur_memory
085c2c70 B sf_malloc_max_memory
085c2c74 B sf_malloc_count
085c2c78 B sf_max_adress
085c2c7c B sf_malloc_root
085c2c80 B my_have_got_alarm
085c2c84 B my_disable_locking
085c2c85 B my_disable_async_io
085c2c86 B my_disable_flush_key_blocks
085c2c87 B my_disable_symlinks
085c2c88 B mysys_uses_curses
085c2c90 B my_defaults_file
085c2c94 B my_defaults_group_suffix
085c2c98 B my_defaults_extra_file
085c2c9c B charsets_dir
085c2cc0 B thr_alarm_inited
085c2cc1 B alarm_thread_running
085c2dbc B thr_lock_inited
085c2dc0 B locks_immediate
085c2dc4 B locks_waited
085c2dc8 B thd_lib_detected
085c2dcc B THR_thread_count
085c2de8 B heap_start
085c2e00 B srv_io_thread_function
085c2fa0 B srv_misc_tmpfile_mutex
085c2fe0 B srv_conc_queue
085c2fec B srv_conc_mutex
085c3020 B srv_n_threads
085c3040 B srv_dict_tmpfile_mutex
085c3080 B srv_pad2
085c30c0 B srv_io_thread_op_info
085c3250 B srv_misc_tmpfile
085c3254 B srv_conc_slots
085c3260 B srv_innodb_monitor_mutex
085c32a0 B srv_pad1
085c32e0 B srv_last_monitor_time
085c3300 B srv_meter_high_water2
085c3320 B srv_meter_foreground
085c3340 B srv_monitor_file_mutex
085c3380 B srv_meter
085c33a0 B srv_lock_timeout_thread_event
085c33a4 B srv_monitor_file
085c33c0 B export_vars
085c3470 B srv_dict_tmpfile
085c3480 B srv_n_threads_active
085c34a0 B kernel_mutex_temp
085c34c0 B srv_meter_high_water
085c34e0 B srv_meter_low_water
085c3500 B srv_start_lsn
085c3508 B srv_sizeof_trx_t_in_ha_innodb_cc
085c350c B srv_shutdown_lsn
085c3520 B dict_operation_lock
085c35c0 B dict_foreign_err_mutex
085c3600 B row_mysql_drop_list
085c360c B pars_sym_tab_global
085c3610 B yydebug
085c3614 B yychar
085c3618 B yylval
085c361c B yynerrs
085c3620 B yyleng
085c3624 B yytext
085c3640 B btr_sea_pad2
085c3680 B btr_search_sys
085c36a0 B btr_sea_pad1
085c36e0 B btr_search_latch_temp
085c36e4 B trx_purge_dummy_rec
085c36e8 B trx_roll_max_undo_no
085c36f0 B trx_roll_progress_printed_pct
085c3700 B trx_sys_mysql_bin_log_name
085c3900 B trx_sys_mysql_master_log_name
085c3b00 B eval_dummy
085c3b04 B log_last_warning_time
085c3b08 B recv_max_page_lsn
085c3b10 B lock_latest_err_file
085c3b14 B rec_dummy
085c3b20 B thr_local_mutex
085c3b60 B rw_lock_list
085c3b80 B rw_lock_list_mutex
085c3bc0 B mutex_list
085c3be0 B dummy_mutex_for_fence
085c3c20 B sync_thread_level_arrays
085c3c24 B sync_primary_wait_array
085c3c40 B mutex_list_mutex
085c3c80 B sync_thread_mutex
085c3cc0 B data_error
085c3cc4 B ut_list_mutex
085c3cdc B ut_mem_block_list
085c3ce8 B os_large_page_size
085c3cec B os_use_large_pages
085c3cf0 B os_event_list
085c3cfc B os_mutex_list
085c3d08 B os_sync_mutex
085c3d20 B os_file_seek_mutexes
085c3d60 B os_last_printout
085c3d80 B dflt_key_cache_var
085c4260 B errbuff
085c4460 B my_signals
085c44e0 B default_directories
085c4500 B all_charsets
085c4900 B thr_client_alarm
085c4904 B alarm_thread
085c4908 B table_lock_wait_timeout
085c490c B thr_lock_thread_list
085c4920 B THR_LOCK_lock
085c4938 B THR_LOCK_heap
085c4950 B THR_LOCK_charset
085c4968 B my_errorcheck_mutexattr
085c496c B THR_LOCK_net
085c4984 B THR_LOCK_open
085c499c B THR_LOCK_malloc
085c49b4 B THR_KEY_mysys
085c49b8 B THR_LOCK_myisam
085c49d0 B my_fast_mutexattr
085c49e0 B THR_COND_threads
085c4a10 B THR_LOCK_isam
085c4a28 B THR_LOCK_threads
085c4a40 B end_ptr
085c4ac0 B error
085c4b40 B res
085c4c30 A _end
